ARM GAS  C:\Users\victo\AppData\Local\Temp\ccmPfoG4.s 			page 1


   1              		.cpu cortex-m0
   2              		.fpu softvfp
   3              		.eabi_attribute 20, 1
   4              		.eabi_attribute 21, 1
   5              		.eabi_attribute 23, 3
   6              		.eabi_attribute 24, 1
   7              		.eabi_attribute 25, 1
   8              		.eabi_attribute 26, 1
   9              		.eabi_attribute 30, 4
  10              		.eabi_attribute 34, 0
  11              		.eabi_attribute 18, 4
  12              		.code	16
  13              		.file	"boot.c"
  14              		.text
  15              	.Ltext0:
  16              		.section	.gnu.lto_.profile.92f63638,"",%progbits
  17 0000 789C6366 		.ascii	"x\234cf```e\200\000F\206-\214I\000\003\012\001!"
  17      60606065 
  17      80004686 
  17      2D8C4900 
  17      030A0121 
  18              		.text
  19              		.section	.gnu.lto_.jmpfuncs.92f63638,"",%progbits
  20 0000 789C6366 		.ascii	"x\234cf\300\016\\\2414+\0203122\32631\273|db\354\375"
  20      C00E5CA1 
  20      342B1033 
  20      313232D6 
  20      3331BB7C 
  21 0018 F5F12CDF 		.ascii	"\365\361,\337\013\246\237L\014\\\014\214\313\031\245"
  21      0BA69F4C 
  21      0C5C0C8C 
  21      CB19A5
  22 0027 404A9841 		.ascii	"@J\230A\322\214@eP\035P.\003;\214\301\000\000\303(\011"
  22      D28C4065 
  22      501D502E 
  22      033B8CC1 
  22      0000C328 
  23 003c AE       		.ascii	"\256"
  24              		.text
  25              		.section	.gnu.lto_.inline.92f63638,"",%progbits
  26 0000 789C6D90 		.ascii	"x\234m\220\273J\004A\020EoU\367<\354\035\331\216\006"
  26      BB4A0441 
  26      10456F55 
  26      F73CEC1D 
  26      D98E06
  27 0013 770367C1 		.ascii	"w\003g\301D\21541\361\003v\243I\004\277\301\315\374"
  27      448D3431 
  27      F10376A3 
  27      4904BFC1 
  27      CDFC
  28 0025 0531159C 		.ascii	"\0051\025\234TQ\330@\326G\270\251\211` \010\342\343"
  28      5451D840 
  28      D647B8A9 
  28      89602008 
  28      E2E3
  29 0037 0BC66C52 		.ascii	"\013\306lR3\315\254\352\231Hl\232\252\346R\234{\253"
  29      33CDACEA 
ARM GAS  C:\Users\victo\AppData\Local\Temp\ccmPfoG4.s 			page 2


  29      99486C9A 
  29      AAE6529C 
  29      7BAB
  30 0049 0DFE3F87 		.ascii	"\015\376?\207\324\366H\256%\260\235\025\210g\005\253"
  30      D4F648AE 
  30      25B09D15 
  30      886705AB 
  31 0059 C65871C4 		.ascii	"\306Xq\304\320\011\202A\224/\306p\037\333\214\370\255"
  31      D0098241 
  31      942FC670 
  31      1FDB8CF8 
  31      AD
  32 006a B0A0674E 		.ascii	"\260\240gN9T\235\265\3132_\225Ui\260Y\220\305\301\027"
  32      39549DB5 
  32      CB325F95 
  32      5569B059 
  32      90C5C117 
  33 007e D3D1FCFE 		.ascii	"\323\321\374\376$i\370\207\205@\32744\023L\273.\274"
  33      2469F887 
  33      8540D734 
  33      34134CBB 
  33      2EBC
  34 0090 752D1337 		.ascii	"u-\02378\333C\362\271&\244&\361\214\245\253\035\257"
  34      38DB43F2 
  34      B926A426 
  34      F18CA5AB 
  34      1DAF
  35 00a2 CF11236A 		.ascii	"\317\021#j\374\010q\035o\245\240\015\261\212^(\005;"
  35      FC08711D 
  35      6FA5A00D 
  35      B18A5E28 
  35      053B
  36 00b4 1FFC4C06 		.ascii	"\037\374L\006\221\253R|\323\326\230{\032\271\027v\311"
  36      91AB527C 
  36      D3D6987B 
  36      1AB91776 
  36      C9
  37 00c5 57C98408 		.ascii	"W\311\204\010\357\347\363\343\276F\220\014tCC\004\365"
  37      EFE7F3E3 
  37      BE46900C 
  37      74434304 
  37      F5
  38 00d6 B57E3CCD 		.ascii	"\265~<\315\202*\266\267\252J\302(\373\336G|!\253g\017"
  38      822AB6B7 
  38      AA4AC228 
  38      FBDE477C 
  38      21AB670F 
  39 00ea B907D726 		.ascii	"\271\007\327&\325b;75\013\364\004\375AG\177\272l\026"
  39      D5623B37 
  39      350BF404 
  39      FD41477F 
  39      BA6C16
  40 00fd 563946E8 		.ascii	"V9F\350w\312\231\266Mp\306\325\273\355O\312\227\372"
  40      77CA99B6 
  40      4D70C6D5 
  40      BBED4FCA 
  40      97FA
ARM GAS  C:\Users\victo\AppData\Local\Temp\ccmPfoG4.s 			page 3


  41 010f BF10FC02 		.ascii	"\277\020\374\002\207\254=h"
  41      87AC3D68 
  42              		.text
  43              		.section	.gnu.lto_.pureconst.92f63638,"",%progbits
  44 0000 789C6366 		.ascii	"x\234cf``\340f\200\000V\006\026&IfIV\011vI\000\003Y"
  44      6060E066 
  44      80005606 
  44      16264966 
  44      49560976 
  45 0018 008C     		.ascii	"\000\214"
  46              		.text
  47              		.section	.gnu.lto_get_boot_mode_reason.92f63638,"",%progbits
  48 0000 789C658E 		.ascii	"x\234e\216;K\003Q\020\205\347\314\302\262 \202\210X"
  48      3B4B0351 
  48      1085E7CC 
  48      C2B22082 
  48      8858
  49 0012 A44D1104 		.ascii	"\244M\021\004\331\337\242\375\026b\260\224\200Ic\021"
  49      D9DFA2FD 
  49      1662B094 
  49      80496311 
  50 0022 322B0B2E 		.ascii	"2+\013.\010\242\"\010\276E\305\370\300T\366\321^E\004"
  50      08A22208 
  50      BE45C5F8 
  50      C054F6D1 
  50      5E4504
  51 0035 03011F45 		.ascii	"\003\001\037E\004\355\\b\023$\2563\001\033\035\270\314"
  51      04ED5C62 
  51      1324AE33 
  51      011B1DB8 
  51      CC
  52 0046 DC3387EF 		.ascii	"\3343\207\357\214C\377+\243\317\005\321\260v8\004^\272"
  52      8C43FF2B 
  52      A3CF05D1 
  52      B0763804 
  52      5EBA
  53 0058 210A3D06 		.ascii	"!\012=\006l P\205Q\301;'\214\371\353\317K7w(\"\037W"
  53      6C205085 
  53      51C13B27 
  53      8CF9EBCF 
  53      4B377728 
  54 006f 1707585B 		.ascii	"\027\007X[\235\3500Q\233\011\243\031\214\030\010G\310"
  54      9DE83051 
  54      9B09A319 
  54      8C180847 
  54      C8
  55 0080 913A93A8 		.ascii	"\221:\223\250\333\350s#u\016\330^\027UX\010t\267\260"
  55      DBE87323 
  55      750ED85E 
  55      17555808 
  55      74B7B0
  56 0093 D35CEFCF 		.ascii	"\323\\\357\317\356\211\304/\265\375\307\261z\270+\337"
  56      EE89C42F 
  56      B5FDC7B1 
  56      7AB82BDF 
  57 00a3 698ABF28 		.ascii	"i\212\277(+\034#[\033\254K\232\266\037\226c_\317\243"
  57      2B1C235B 
ARM GAS  C:\Users\victo\AppData\Local\Temp\ccmPfoG4.s 			page 4


  57      1BAC4B9A 
  57      B61F9663 
  57      5FCFA3
  58 00b6 96DAECB0 		.ascii	"\226\332\354\260Wf\353N\023s+Ic\274\307W\267\362\267"
  58      5766EB4E 
  58      13732B49 
  58      63BCC757 
  58      B7F2B7
  59 00c9 EF17CFB9 		.ascii	"\357\027\317\271\374%\261x\035F\327\322U}n\335\336y"
  59      FC25B178 
  59      1D46D7D2 
  59      557D6EDD 
  59      DE79
  60 00db 6FAC4AEF 		.ascii	"o\254J\357[\015\243Mla#\024s\021NP\306)4\027g*\323\023"
  60      5B0DA34D 
  60      6C612314 
  60      73114E50 
  60      C6293417 
  61 00f3 F04B24CB 		.ascii	"\360K$\313\204e)i\310\017\2123\371\2408[,MM\007\223"
  61      84652969 
  61      C80F8A33 
  61      F9A0385B 
  61      2C4D4D07 
  62 0108 8542C9CF 		.ascii	"\205B\311\317\323\017\011\023d\032"
  62      D30F0913 
  62      641A
  63              		.text
  64              		.section	.gnu.lto_boot_validate_configtable.92f63638,"",%progbits
  65 0000 789C6554 		.ascii	"x\234eT\335KTA\024\2373\367\336\331u]u\325\315\217\355"
  65      DD4B5441 
  65      149F33F7 
  65      DED9755D 
  65      75D5CD8F 
  66 0015 A1404282 		.ascii	"\241@B\202\350I\350\241\036\372\023\202\336B\2604\037"
  66      E849E8A1 
  66      1EFA1382 
  66      DE42B034 
  66      1F
  67 0026 82A2481F 		.ascii	"\202\242H\037*\020\257\355\246\021\024\025V\222\226"
  67      2A10AFED 
  67      A6111415 
  67      569296
  68 0035 485F66A6 		.ascii	"H_f\246\346G\246fiAm\230}\222\232\205}\260\033\011i"
  68      E647A666 
  68      69416D98 
  68      7D929A85 
  68      7DB01B09 
  69 004a CA2EEA96 		.ascii	"\312.\352\226\272\2353s\215K-\354\314\2343\347\367\233"
  69      BA9D3373 
  69      8D4B2DEC 
  69      CC9C33E7 
  69      F79B
  70 005c DF3967E6 		.ascii	"\3379g\346j\354\377\337v\374\2575\030\313\301\031\034"
  70      6AECFFDF 
  70      76FCAF35 
  70      18CBC119 
  70      1C
ARM GAS  C:\Users\victo\AppData\Local\Temp\ccmPfoG4.s 			page 5


  71 006d 0CF8E917 		.ascii	"\014\370\351\027\214U89\027\315y\314ti\241lf\2725.z"
  71      8C553839 
  71      17CD79CC 
  71      7469A16C 
  71      66BA352E 
  72 0082 830C4D7D 		.ascii	"\203\014M}\304@S\347\"8H\246\021t\243i\200P \001@\013"
  72      C44053E7 
  72      223848A6 
  72      1174A369 
  72      80502001 
  73 0098 06AC9C6B 		.ascii	"\006\254\234k\272!\240\034&\371,\207\252\341\350\240"
  73      BA21A01C 
  73      26F92C87 
  73      AAE1E8A0 
  74 00a8 C8BD669A 		.ascii	"\310\275f\232\346L{\367\241\013\325;c\234\261\010g\260"
  74      E64C7BF7 
  74      A10BD53B 
  74      639CB108 
  74      67B0
  75 00ba C107EB7D 		.ascii	"\301\007\353}\004\270\001\271\0307\036\256\037J\320"
  75      04B801B9 
  75      18371EAE 
  75      1F4AD0
  76 00c9 3281E1BA 		.ascii	"2\201\341\272\247%:\234\370\235\3078\254%\263\367l\260"
  76      A7253A9C 
  76      F89DC738 
  76      AC25B3F7 
  76      6CB0
  77 00db 4690C975 		.ascii	"F\220\311u2_}\257\\J^w\3054\217\016L\266\233[\365\030"
  77      325F7DAF 
  77      5C4A5E77 
  77      C5348F0E 
  77      4CB69B5B 
  78 00f1 D7A01134 		.ascii	"\327\240\0214\342\274\011>h\002\037C\027\203[\260N\206"
  78      E2BC093E 
  78      68021F43 
  78      17835BB0 
  78      4E86
  79 0103 3FABF890 		.ascii	"?\253\370\220\242\255\221\304C_\027\"nI\354!\363\342"
  79      A2AD91C4 
  79      435F1722 
  79      6E49EC21 
  79      F3E2
  80 0115 6838AA49 		.ascii	"h8\252IbNf\375\271\253\325\356\234\006$\376\334\377"
  80      624E66FD 
  80      B9ABD5EE 
  80      9C0624FE 
  80      DCFF
  81 0127 B8CA6D36 		.ascii	"\270\312m6\232\201\317\361\370\232\030\327\241Y\361"
  81      9A81CFF1 
  81      F89A18D7 
  81      A159F1
  82 0136 DF46FE16 		.ascii	"\337F\376\026\360Y\345C\310l`i4Q\0040;\017\264B\016"
  82      F059E543 
  82      C86C6069 
  82      34510430 
  82      3B0FB442 
ARM GAS  C:\Users\victo\AppData\Local\Temp\ccmPfoG4.s 			page 6


  83 014b 258619B5 		.ascii	"%\206\031\265\201\000\234\310\323\2326`\306\343\035"
  83      81009CC8 
  83      D39A3660 
  83      C6E31D
  84 015a 13678E6F 		.ascii	"\023g\216o\202\325\200\302\230\006\244\314\300\245!"
  84      82D580C2 
  84      9806A4CC 
  84      C0A521
  85 0169 70100E1A 		.ascii	"p\020\016\032\23488\022\310\347\242U\"\015nF\004I\270"
  85      9C383812 
  85      C8E7A255 
  85      220D6E46 
  85      0449B8
  86 017c 7426D34E 		.ascii	"t&\323N\012\005zhH%3\215V\3514x\311\\EIg\220\231IC\026"
  86      0A057A68 
  86      4825338D 
  86      56E93478 
  86      C95C4549 
  87 0196 C1A810D8 		.ascii	"\301\250\020\330\336\020\212\242\336\2041M\234\265q"
  87      DE108AA2 
  87      DE84314D 
  87      9CB571
  88 01a5 383A7762 		.ascii	"8:wb\272v\007\351\234\347\006\2461\277\370\364X\012"
  88      BA7607E9 
  88      9CE706A6 
  88      31BFF8F4 
  88      580A
  89 01b7 15427350 		.ascii	"\025BsPV\323_\272\233\264KP\0131\2360\217\325\275C)"
  89      56D35FBA 
  89      9BB44B50 
  89      0B319E30 
  89      8FD5BD43 
  90 01cc 433B5C02 		.ascii	"C;\\\002\206\330\011\207\002\022\026m\377G\241l\007"
  90      86D80987 
  90      0212166D 
  90      FF47A16C 
  90      07
  91 01dd BA107CF5 		.ascii	"\272\020|\365\334\371f\203\2700)\350@$B\306\252\242"
  91      DCF96683 
  91      B83029E8 
  91      402442C6 
  91      AAA2
  92 01ef A0829C18 		.ascii	"\240\202\234\030\307\244\200\037\\y\022\020\023Y\216"
  92      C7A4801F 
  92      5C791210 
  92      13598E
  93 01fe F47379BE 		.ascii	"\364sy\276\240\363\037D\317,\200\355\374Ny~\327\312"
  93      A0F31F44 
  93      CF2C80ED 
  93      FC4E797E 
  93      D7CA
  94 0210 F97FC95C 		.ascii	"\371\177\311\\\210&\005QKA\242\344w\331E\272\321\313"
  94      88260551 
  94      4B41A2E4 
  94      77D945BA 
  94      D1CB
  95 0222 46409E45 		.ascii	"F@\236E\345D\217\342X\256\315S\021Ix\002{\007\201\027"
ARM GAS  C:\Users\victo\AppData\Local\Temp\ccmPfoG4.s 			page 7


  95      E5448FE2 
  95      58AECD53 
  95      11497802 
  95      7B078117 
  96 0236 FE42CB81 		.ascii	"\376B\313\201\012\246\246Z;u\022\344\214\307\361a\334"
  96      0AA6A65A 
  96      3B7512E4 
  96      8CC7F161 
  96      DC
  97 0247 B57A1EC6 		.ascii	"\265z\036\306\320P\266*\340\223\272-*>\031\343__\274"
  97      D050B62A 
  97      E093BA2D 
  97      2A3E19E3 
  97      5F5FBC
  98 025a EE570594 		.ascii	"\356W\005\224\367,t\357g\237\333\226@\267L\340\336?"
  98      F72C74EF 
  98      679FDB96 
  98      40B74CE0 
  98      DE3F
  99 026c 054C41AC 		.ascii	"\005LA\254\275\200\036t\255Tl\316\245|\251\310\366)"
  99      BD801E74 
  99      AD546CCE 
  99      A57CA9C8 
  99      F629
 100 027e F4F2B553 		.ascii	"\364\362\265S\222\313;\327\265P?\225d#\357\221\344\275"
 100      92CB3BD7 
 100      B5503F95 
 100      6423EF91 
 100      E4BD
 101 0290 FF90A721 		.ascii	"\377\220\247!\326^\233t\311\237F\231\276\367\307O\026"
 101      D65E9B74 
 101      C99F4699 
 101      BEF7C74F 
 101      16
 102 02a1 585E7AA1 		.ascii	"X^z\241\227\333\202\252a\357+\201A\337\337\\u6\003\326"
 102      97DB82AA 
 102      61EF2B81 
 102      41DFDF5C 
 102      753603D6 
 103 02b5 65A9DBA6 		.ascii	"e\251\333\246\342\275\030?\326\360\343|\222\224\343"
 103      E2BD183F 
 103      D6F0E37C 
 103      9294E3
 104 02c4 2439E3D7 		.ascii	"$9\343\327\026\307\03569\367\245\234~%\307_S\371\334"
 104      16C71D36 
 104      39F7A59C 
 104      7E25C75F 
 104      53F9DC
 105 02d7 12B00A37 		.ascii	"\022\260\01271\374\344\257\331\341d\371\346\\\014\036"
 105      31FCE4AF 
 105      D9E164F9 
 105      E65C0C1E 
 106 02e7 A86427AA 		.ascii	"\250d'\252\346\352\026\254\236f\250\016\371\317Z\260"
 106      E6EA16AC 
 106      9E66A80E 
 106      F9CF5AB0 
 107 02f7 4C7421EC 		.ascii	"Lt!\354aM\333[Y`1\027\267~\370\205y\270\202\237\256"
ARM GAS  C:\Users\victo\AppData\Local\Temp\ccmPfoG4.s 			page 8


 107      614DDB5B 
 107      59603117 
 107      B77EF885 
 107      79B8829F 
 108 030c 7B63E1B3 		.ascii	"{c\341\263\020\302>\202\241,\037B/\277=\325\302\313"
 108      10C23E82 
 108      A12C1F42 
 108      2FBF3DD5 
 108      C2CB
 109 031e 7E9BC74D 		.ascii	"~\233\307Mg\214\273\"\234\236\346\000\2241))+\206\367"
 109      678CBB22 
 109      9C9EE600 
 109      94312929 
 109      2B86F7
 110 0331 43D6C4EA 		.ascii	"C\326\304\352\276\027A2\377\020\336\356\\-\314\205|"
 110      BE174132 
 110      FF10DEEE 
 110      5C2DCC85 
 110      7C
 111 0342 331350E1 		.ascii	"3\023P\341A\004b\277\001\330o,\023\014\006\301\2475"
 111      410462BF 
 111      01D86F2C 
 111      130C06C1 
 111      A735
 112 0354 F7ECA659 		.ascii	"\367\354\246Y\017l\266w\214\276\006\217\300g\334\357"
 112      0F6CB677 
 112      8CBE068F 
 112      C067DCEF 
 113 0364 F3D22EC7 		.ascii	"\363\322.\307($\006\242\304=\357\306\374\222\203E\371"
 113      282406A2 
 113      C43DEFC6 
 113      FC928345 
 113      F9
 114 0375 25874B4A 		.ascii	"%\207KJ\213\367\345\027\356\337_\272\261\2109Jw\025"
 114      8BF7E517 
 114      EEDF5FBA 
 114      B188394A 
 114      7715
 115 0387 EE2D2E38 		.ascii	"\356-.8\240\227\3549R\374\007NN\326\222"
 115      A097EC39 
 115      52FC074E 
 115      4ED692
 116              		.text
 117              		.section	.gnu.lto_boot_validate_fw.92f63638,"",%progbits
 118 0000 789C8D54 		.ascii	"x\234\215TmO\034U\024\276\347\316\354\314\354\316\254"
 118      6D4F1C55 
 118      14BEE7CE 
 118      ECCCECCE 
 118      AC
 119 0011 CBFB5B28 		.ascii	"\313\373[(bHK}\241_j\242\326/\376\005?\230\306\204D"
 119      62484B7D 
 119      A15F6AA2 
 119      D62FFE05 
 119      3F98C684 
 120 0026 69C5C40F 		.ascii	"i\305\304\017M\023X\265\232\220\016\354Z\360\245\265"
 120      4D1358B5 
 120      9A900EEC 
ARM GAS  C:\Users\victo\AppData\Local\Temp\ccmPfoG4.s 			page 9


 120      5AF0A5B5 
 121 0036 5250528B 		.ascii	"RPR\213\242`K-\205\226\272\265\205\266,E\013R`\241\266"
 121      A2604B2D 
 121      8596BAB5 
 121      85B62C45 
 121      0B5260A1 
 122 004b 08169134 		.ascii	"\010\026\2214[Ck\233\202K\202\033\251x\316\235aY\250"
 122      5B436B9B 
 122      824B821B 
 122      A978CE9D 
 122      6159A8
 123 005e 24DD64EF 		.ascii	"$\335d\357\334s\356\363\234\373\234s\317\275\022{\360"
 123      DC73EEF3 
 123      9CFB9C73 
 123      CFBD127B 
 123      F0
 124 006f 7704FFE3 		.ascii	"w\004\377\343*c[\360\013n\006|\377\020c\345\032\347"
 124      2A635BF0 
 124      0B6E067C 
 124      FF1063E5 
 124      1AE7
 125 0081 D2DE0DCC 		.ascii	"\322\336\015\314t\311\276\215\3144$n\264<\215\226\022"
 125      74C9BE8D 
 125      CC34246E 
 125      B43C8D96 
 125      12
 126 0092 CE444BE6 		.ascii	"\316DK\346\216\231T\262\032\236E\313\261bM\341zU>Z*"
 126      8E9954B2 
 126      1A9E45CB 
 126      B1624DE1 
 126      7A553E5A 
 127 00a7 8D866A5B 		.ascii	"\215\206j[\232\2604\256\237{\006-\347\3254\264\234\\"
 127      9AB034AE 
 127      9F7B062D 
 127      E7D534B4 
 127      9C5C
 128 00b9 0FF43034 		.ascii	"\017\36404]\327]h\272@\267v\326\301\260&\006\000M\030"
 128      5DD75D68 
 128      BA40B776 
 128      D6C1B026 
 128      06004D18 
 129 00cd B0DD5C92 		.ascii	"\260\335\\\222\035\212\2529]\272\001\273\341\026\237"
 129      1D8AAA39 
 129      5DBA01BB 
 129      E1169F
 130 00dc E5503938 		.ascii	"\345P98\327\255\344\177c\232\346\314\215\316]\237\325"
 130      D7ADE47F 
 130      639AE6CC 
 130      8DCE5D9F 
 130      D5
 131 00ed BC1AE58C 		.ascii	"\274\032\345\214E8\203\247\262\340\361,\242\035\201"
 131      453883A7 
 131      B2E0F12C 
 131      A21D81
 132 00fc 7CC45D79 		.ascii	"|\304]y\177_\330)\245\003\303\371\331\326\271A}\232"
 132      7F5FD829 
 132      A503C3F9 
ARM GAS  C:\Users\victo\AppData\Local\Temp\ccmPfoG4.s 			page 10


 132      D9D6B941 
 132      7D9A
 133 010e 4739E492 		.ascii	"G9\344\222\331Q\335W\247\220\311e2\027\314\266f\327"
 133      D951DD57 
 133      A790C965 
 133      3217CCB6 
 133      66D7
 134 0120 FA46D3AC 		.ascii	"\372F\323\254\010\336n7_\220\243\\\202f\220(\346Q\310"
 134      08DE6E37 
 134      5F90A35C 
 134      82669028 
 134      E651C8
 135 0133 826F218B 		.ascii	"\202o!\213\241\213\3011XO\360\375\357\005\246\025)O"
 135      A18BC131 
 135      584FF0FD 
 135      EF05A615 
 135      294F
 136 0145 041E0D04 		.ascii	"\004\036\015\004\357\252y_\241\230\251\351\236~\335"
 136      EFAA795F 
 136      A198A9E9 
 136      9E7EDD
 137 0154 AC33FD53 		.ascii	"\2543\375S\213\213\217\242$h\261\",\251\242\037\022"
 137      8B8B8FA2 
 137      2468B122 
 137      2CA9A21F 
 137      12
 138 0165 6642A11E 		.ascii	"fB\241\036CzB\220/64]0\210\\1u\273\247\3270\373\226"
 138      437A4290 
 138      2F36345D 
 138      30885C31 
 138      75BBA7D7 
 139 017c C832B4AE 		.ascii	"\3102\264\256\334>F\037h\035>\343\2216\013\372\211\313"
 139      DC3E461F 
 139      681D3EE3 
 139      91360BFA 
 139      89CB
 140 018e 5D2159D0 		.ascii	"]!Y\320\033\3564*q\344\023k\220g\375\367\177\321\025"
 140      1BEE342A 
 140      71E4136B 
 140      9067FDF7 
 140      7FD115
 141 01a1 3F8A4D80 		.ascii	"?\212M\200\343\220\007m\370?\011yT<\254Z;(\300\230\024"
 141      E390076D 
 141      F83F0979 
 141      543CAC5A 
 141      3B28C098 
 142 01b6 BFD29614 		.ascii	"\277\322\226\0244\027\027#\367>\351\333\314\037\003"
 142      34171723 
 142      F73EE9DB 
 142      CC1F03
 143 01c5 464B1C4B 		.ascii	"FK\034K\301T\240Zh8u8qP\\4\3508\250\006#.v\023\262="
 143      C154A05A 
 143      68387538 
 143      71505C34 
 143      E838A806 
 144 01df E8D01269 		.ascii	"\350\320\022iH\242\372%\023<\205@\2514\244\321\220\216"
 144      48A2FA25 
ARM GAS  C:\Users\victo\AppData\Local\Temp\ccmPfoG4.s 			page 11


 144      133C8540 
 144      A934A4D1 
 144      908E
 145 01f1 83338386 		.ascii	"\2033\203\206L\034\\Tg=\233f\353\310\227Cf\256\330\226"
 145      4C1C5C54 
 145      673D9B66 
 145      EBC89743 
 145      66AED896 
 146 0205 B1308AA4 		.ascii	"\2610\212\244\256\270\3119}\245Q\250\010\216T\246\012"
 146      AEB8C939 
 146      7DA551A8 
 146      088E54A6 
 146      0A
 147 0216 D908C0F4 		.ascii	"\331\010\300\364~\017\207F4:U\312\346\024&N\220k\225"
 147      7E0F8746 
 147      343A55CA 
 147      E614264E 
 147      906B95
 148 0229 1E01695B 		.ascii	"\036\001i[\011\221\021\362\235\015\031S\005\002\025"
 148      099111F2 
 148      9D0D1953 
 148      050215
 149 0238 0BD7AF50 		.ascii	"\013\327\257Pq\372\344\374\210p\316s-\236%\2112\006"
 149      71FAE4FC 
 149      8870CE73 
 149      2D9E2589 
 149      3206
 150 024a FEFEF2AE 		.ascii	"\376\376\362\256\273\036>\207(7\346\271\012\001\252"
 150      BB1E3E87 
 150      2837E6B9 
 150      0A01AA
 151 0259 31FA0FCD 		.ascii	"1\372\017\315\035\030\367\024<\031\345n8\015\365\360"
 151      1D18F714 
 151      3C19E56E 
 151      380DF5F0 
 152 0269 17E960F0 		.ascii	"\027\351`\360=\024P\310\311\312;\016+\242\023\203\242"
 152      3D1450C8 
 152      C9CA3B0E 
 152      2BA21383 
 152      A2
 153 027a C737A158 		.ascii	"\3077\241X\266\013]\310n\252\375\264\305A\233(\032\203"
 153      B60B5DC8 
 153      6EAAFDB4 
 153      C5419B28 
 153      1A83
 154 028c 33968EC9 		.ascii	"3\226\216\311\3129\260@:\342\210Tm\223pc\035I\235\003"
 154      CA39B040 
 154      3AE28854 
 154      6D937063 
 154      1D499D03 
 155 02a0 47DB3891 		.ascii	"G\3338\221T\023\017\374\254H\210/\345\213(+\231\205"
 155      54130FFC 
 155      AC48882F 
 155      E58B282B 
 155      9985
 156 02b2 11C962B9 		.ascii	"\021\311b\271\343\324\227\233fp\313Z\031\310\320!2\000"
 156      E3D4979B 
ARM GAS  C:\Users\victo\AppData\Local\Temp\ccmPfoG4.s 			page 12


 156      6670CB5A 
 156      19C8D021 
 156      3200
 157 02c4 CAA01333 		.ascii	"\312\240\0233\300:\231\317/\225\011\003\261\011\360"
 157      C03A99CF 
 157      2F950903 
 157      B109F0
 158 02d3 050FF41B 		.ascii	"\005\017\364\033V\\\017r\277\370y_+/\373\307\2542\265"
 158      565C0F72 
 158      BFF8795F 
 158      2B2FFBC7 
 158      AC32B5
 159 02e6 287F2442 		.ascii	"(\177$BT8\007ex\204\036v\015\374c\276m\313\330\221\203"
 159      54380765 
 159      78841E76 
 159      0DFC63BE 
 159      6DCBD891 
 160 02fb 877D1E92 		.ascii	"\207}\036\222\235\200Mu\336n\321\233X\336\275\033$\304"
 160      9D804D75 
 160      DE6ED19B 
 160      58DEBD1B 
 160      24C4
 161 030d 0EFA4ED5 		.ascii	"\016\372N\325d\333y\"\272&\320U'\320\362\342\"\336\302"
 161      64DB7922 
 161      BA26D055 
 161      27D0F2E2 
 161      22DEC2
 162 0320 0B31BCCC 		.ascii	"\0131\274\314|\033%\022\022\370\300c\301\023\327\020"
 162      7C1B2512 
 162      12F8C063 
 162      C113D710 
 163 0330 D2152FE4 		.ascii	"\322\025/\344\255elh\252\347cC\010\301\362\005c\201"
 163      AD656C68 
 163      AAE76343 
 163      08C1F205 
 163      6381
 164 0342 1DECA02E 		.ascii	"\035\354\240.a\351\252g\207n\350\026:iu\344\304\373"
 164      61E9AA67 
 164      876EE816 
 164      3A6975E4 
 164      C4FB
 165 0354 DCBA55B1 		.ascii	"\334\272U\261\356H\024fs\271\377\020X\365\325\350!\351"
 165      EE481466 
 165      73B9FF10 
 165      58F5D5E8 
 165      21E9
 166 0366 8632B848 		.ascii	"\2062\270H\221\241\007\335\342@\3543M~\240\227\222\376"
 166      91A107DD 
 166      E240EC33 
 166      4D7EA097 
 166      92FE
 167 0378 AF977E58 		.ascii	"\257\227~X\356\245\037\227zi\316\356\316\024\214\022"
 167      EEA51F97 
 167      7A69CEEE 
 167      CE148C12 
 168 0388 DF16A9E8 		.ascii	"\337\026\251\350Bvo\375t\273,\332\002\353{I\364\222"
 168      42766FFD 
ARM GAS  C:\Users\victo\AppData\Local\Temp\ccmPfoG4.s 			page 13


 168      74BB2CDA 
 168      02EB7B49 
 168      F492
 169 039a 6F624F38 		.ascii	"obO8\303\002\245!Nt\030V#\344+\2115T\232\235\275\302"
 169      C302A521 
 169      4E741856 
 169      23E42B89 
 169      35549A9D 
 170 03b0 3E2C9044 		.ascii	">,\220D\343\374v\305\356\331\364\207i{\031z\205Tq\377"
 170      E3FC76C5 
 170      EED9F487 
 170      697B197A 
 170      855471FF 
 171 03c4 FA506AFC 		.ascii	"\372Pj\374\261S\204\362\303\235\037\251$\313\211\200"
 171      B15384F2 
 171      C39D1FA9 
 171      24CB8980 
 172 03d4 9F62D556 		.ascii	"\237b\325V\331\2454I`;\270\335\247q\253\032k\244\263"
 172      D9A53449 
 172      603BB8DD 
 172      A771AB1A 
 172      6BA4B3
 173 03e7 F055EF99 		.ascii	"\360U\357\231<VcW.C\350u\323\006C\276?kw\331^\334\""
 173      3C566357 
 173      2E43E875 
 173      D30643BE 
 173      3F6B77D9 
 174 03fe 3C7DAB49 		.ascii	"<}\253I\261{Ee\320\037\013\343d_KVR\223\325v\3612\037"
 174      B17B4565 
 174      D01F0BE3 
 174      645F4B56 
 174      5293D576 
 175 0415 26A924B8 		.ascii	"&\251$\270,\222\222(\251\001\253\376c\225W\355\272d"
 175      2C929228 
 175      A901ABFE 
 175      639557ED 
 175      BA64
 176 0427 D11D9B00 		.ascii	"\321\035\233\000\333\312^\335#\311\021*\006\014b\367"
 176      DBCA5EDD 
 176      23C9112A 
 176      060C62F7 
 177 0437 09AC3BCA 		.ascii	"\011\254;\312SH\364\270\357^m\225}'3\221gkt\261\347"
 177      5348F4B8 
 177      EF5E6D95 
 177      7D273391 
 177      676B74B1 
 178 044c AC4C475B 		.ascii	"\254LG[j\354\003]g\335\363\206\353\303\335n\221\226"
 178      6AEC035D 
 178      67DDF386 
 178      EBC3DD6E 
 178      9196
 179 045e 293318B2 		.ascii	")3\030\262^\007\224a\327+\007\201(\303o\276h\331\271"
 179      5E079461 
 179      D72B0781 
 179      28C36FBE 
 179      68D9B9
 180 0471 AB85A446 		.ascii	"\253\205\244F(\001\010\011!9Q<\352\245w\3428]\347\\"
ARM GAS  C:\Users\victo\AppData\Local\Temp\ccmPfoG4.s 			page 14


 180      28010809 
 180      2139513C 
 180      EAA577E2 
 180      385DE75C 
 181 0485 B1BD4EE7 		.ascii	"\261\275N\347\216\027=\201Y^\2748\177\000`\250\310\277"
 181      8E173D81 
 181      595EBC38 
 181      7F0060A8 
 181      C8BF
 182 0497 91F3E295 		.ascii	"\221\363\342\225a\012\203a\310R\303[\221\343jz\231\014"
 182      610A8361 
 182      C852C35B 
 182      91E36A7A 
 182      990C
 183 04a9 25BC953E 		.ascii	"%\274\225>N\261\242Q\034C\274\317\223P\236\200\233q"
 183      4EB1A251 
 183      1C43BCCF 
 183      93509E80 
 183      9B71
 184 04bb 0AC2694D 		.ascii	"\012\302iMZ\030\361\322\327\341\177\011c\353\023\343"
 184      5A18F1D2 
 184      D7E17F09 
 184      63EB13E3 
 185 04cb 29F8A603 		.ascii	")\370\246\003a\021\223\262\251\260\264d{a\351;\245\336"
 185      611193B2 
 185      A9B0B464 
 185      7B61E93B 
 185      A5DE
 186 04dd E21D85DB 		.ascii	"\342\035\205\333v\356\364n\332\316\364\327\337~eG\261"
 186      76EEF46E 
 186      DACEF4D7 
 186      DF7E6547 
 186      B1
 187 04ee B7E8B522 		.ascii	"\267\350\265\"o\221R\352-\362\276Y\252\241\013g%^\225"
 187      6F9152EA 
 187      2DF2BE59 
 187      AAA10B67 
 187      255E95
 188 0501 266FBC5B 		.ascii	"&o\274[\374\037\"c\304\033"
 188      FC1F2263 
 188      C41B
 189              		.text
 190              		.section	.gnu.lto_boot_handle_validate_fw_cmd.92f63638,"",%progbits
 191 0000 789C6D53 		.ascii	"x\234mS]oTU\024\335\353\234\3735\267\203\026\002~LL"
 191      5D6F5455 
 191      14DDEB9C 
 191      FB35B783 
 191      16027E4C 
 192 0015 30A90448 		.ascii	"0\251\004H\014O<\360B\364\2074\301P\360\255\251\241"
 192      0C4F3CF0 
 192      42F48734 
 192      C150F0AD 
 192      A9A1
 193 0027 24A2A6E9 		.ascii	"$\242\246\351\231v\0324\005G'\032I\253\245\246\021F"
 193      99761A34 
 193      0547271A 
 193      49ABA5A6 
ARM GAS  C:\Users\victo\AppData\Local\Temp\ccmPfoG4.s 			page 15


 193      1146
 194 0039 291D5190 		.ascii	")\035Q\220\202\240C\014\221\020h\003\306\012\235F\306"
 194      82A0430C 
 194      91106803 
 194      C60A9D46 
 194      C6
 195 004a A46D6AD2 		.ascii	"\244mj\322H\311\224\214c[\306\275\317\235\301\012\334"
 195      48C9948C 
 195      635BC6BD 
 195      CF9DC10A 
 195      DC
 196 005b E4DE7BCE 		.ascii	"\344\336{\316>k\355\265\277\216\246\307\237\267\371"
 196      3E6BEDB5 
 196      BF8EA6C7 
 196      9FB7F9
 197 006a 5D7088B6 		.ascii	"]p\210\266\360\037!A}0F\224\014\224\362\0266\220\011"
 197      F01F2141 
 197      7D304694 
 197      0C94F216 
 197      369009
 198 007d F5E00E32 		.ascii	"\365\340\0162q\255\275\236\004\231\300\261_7Z\303\213"
 198      71ADBD9E 
 198      0499C0B1 
 198      5F375AC3 
 198      8B
 199 008e A06E7DE1 		.ascii	"\240n}\341)\277\177'sb\367\033\231\343\253\330\364\363"
 199      29BF7F27 
 199      7362F71B 
 199      99E3ABD8 
 199      F4F3
 200 00a0 BC0B86B7 		.ascii	"\274\013\206\267\363.@,\002\305\000Y\020\250Si\307\365"
 200      F32E402C 
 200      02C50059 
 200      10A85369 
 200      C7F5
 201 00b2 7CB674E2 		.ascii	"|\266t\342OuO\341\340\365\305K\336\346/\2141\013]\205"
 201      4F754FE1 
 201      E0F5C54B 
 201      DEE62F8C 
 201      310B5D85 
 202 00c6 039F7CF4 		.ascii	"\003\237|\364ZE\021\225\024\341\345\004\266&\204s\034"
 202      5A451195 
 202      14E1E504 
 202      B6268473 
 202      1C
 203 00d7 9B19B774 		.ascii	"\233\031\267t\271\262V?\013\342\345\344\364\314\204"
 203      B9B2563F 
 203      0BE2E5E4 
 203      F4CC84
 204 00e6 DA34644C 		.ascii	"\3324dLW\376\357\021\363**\012\310B\377Gb\003\341Kl"
 204      57FEEF11 
 204      F32A2A0A 
 204      C842FF47 
 204      6203E14B 
 205 00fb 127066E0 		.ascii	"\022pf\340j\277\2537Z\342\271\221\305\353\015s\252\242"
 205      6ABFAB37 
 205      5AE2B991 
ARM GAS  C:\Users\victo\AppData\Local\Temp\ccmPfoG4.s 			page 16


 205      C5EB0D73 
 205      AAA2
 206 010d D48BB23D 		.ascii	"\324\213\262=\237\271r\304\223\255vd;\220\353;\252\233"
 206      9FB972C4 
 206      93AD7664 
 206      3B90EB3B 
 206      AA9B
 207 011f 3E67B7C5 		.ascii	">g\267\305\311\236\261\270\271bR\305jucE9\370*\362~"
 207      C99EB1B8 
 207      B96252C5 
 207      6A756345 
 207      39F82AF2 
 208 0134 02090C23 		.ascii	"\002\011\014#Q+\"S\016\335}o\275~\311\372\356Y\372\247"
 208      512B2253 
 208      0EDD7D6F 
 208      BD7EC9FA 
 208      EE59FAA7 
 209 0148 E80ADB14 		.ascii	"\350\012\333\024\013\227\2576\230#u6adul\017\271\367"
 209      0B97AF36 
 209      98237536 
 209      6164756C 
 209      0FB9F7
 210 015b 522BBF35 		.ascii	"R+\2775x)&4\342$\232\220C\223\344\315\011\177\015\017"
 210      78292634 
 210      E2249A90 
 210      4393E4CD 
 210      097F0D0F 
 211 016f 44AA6ECD 		.ascii	"D\252n\315\255\313\233j\2654\237\231{E\257\341\304\330"
 211      ADCB9B6A 
 211      B5349F99 
 211      7B45AFE1 
 211      C4D8
 212 0181 CCDEF840 		.ascii	"\314\336\370@\333\257\317\351\272\001$\337\230=\014"
 212      DBAFCFE9 
 212      BA0124DF 
 212      983D0C
 213 0190 ED37CE66 		.ascii	"\3557\316f\217h\232=J\351g\224\222\277\236@W\376L\357"
 213      8F689A3D 
 213      4AE96794 
 213      92BF9E40 
 213      57FE4CEF 
 214 01a4 0B568351 		.ascii	"\013V\203Q\034\307\235\351\361\033\201T\201\347\001"
 214      1CC79DE9 
 214      F11B8154 
 214      81E701
 215 01b3 A7383B81 		.ascii	"\2478;\201\234\355\335`!9\013\231\315\236<\266F \364"
 215      9CEDDD60 
 215      21390B99 
 215      CD9E3CB6 
 215      4620F4
 216 01c6 A05A7BB8 		.ascii	"\240Z{\270}\3370v\012\335\371r\3573\202-+_\212\370\313"
 216      7DDF3076 
 216      0ADDF972 
 216      EF33822D 
 216      2B5F8AF8 
 217 01db FB23AA63 		.ascii	"\373#\252c\311\274k\202\212\362K\334\010\302\267\350"
 217      C9BC6B82 
ARM GAS  C:\Users\victo\AppData\Local\Temp\ccmPfoG4.s 			page 17


 217      8AF24BDC 
 217      08C2B7E8 
 218 01eb E06002FA 		.ascii	"\340`\002\372\025\251[\335\273#l\300p[\211\031\245i"
 218      15A95BDD 
 218      BB236CC0 
 218      705B8919 
 218      A569
 219 01fd 7087BE8D 		.ascii	"p\207\276\215T\376\343\261x\355\220\035\335\\^\316\""
 219      54FEE3B1 
 219      78ED901D 
 219      DD5C5ECE 
 219      22
 220 020e 8DC3C994 		.ascii	"\215\303\311\224)N\035\367+*F\264(\345!\234f;#n\364"
 220      294E1DF7 
 220      2B2A46B4 
 220      28E5219C 
 220      663B236E 
 221 0223 1DEB7E5A 		.ascii	"\035\353~Z\242\202m\300_\231\314\3150\"\014\036\022"
 221      A2826DC0 
 221      5F99CCCD 
 221      30220C1E 
 221      12
 222 0234 3CCE7080 		.ascii	"<\316p\200\213\022\001\341\273\2102^\374)\035\267\024"
 222      8B1201E1 
 222      BB88325E 
 222      FC291DB7 
 222      14
 223 0245 25941303 		.ascii	"%\224\023\003\177\014\3254\006G-\345\254\245\330.\214"
 223      7F0CD534 
 223      06472DE5 
 223      ACA5D82E 
 223      8C
 224 0256 F2898DCF 		.ascii	"\362\211\215\317\241\342:}\013\311F\011N\374M\242+s"
 224      A1E23A7D 
 224      0BC94609 
 224      4EFC4DA2 
 224      2B73
 225 0268 6A62C88F 		.ascii	"jb\310\217\202\215=\232u\270\302)\321\352\312\206v\233"
 225      828D3D9A 
 225      75B8C229 
 225      D1EACA86 
 225      769B
 226 027a 4DA63EC5 		.ascii	"M\246>\305g\350O\032A98\207\016\234\227i\302\367l\346"
 226      67E84F1A 
 226      41393887 
 226      0E9C9769 
 226      C2F76CE6 
 227 028e B2AB7A57 		.ascii	"\262\253zW\312\222,+\273\377WVV\371\303y\035\011\207"
 227      CA922C2B 
 227      BBFF5756 
 227      56F9C379 
 227      1D0987
 228 02a1 4F10769E 		.ascii	"O\020v\236\250t\341\241\322\305\307\224B\253\344Q\232"
 228      A874E1A1 
 228      D2C5C794 
 228      42ABE451 
 228      9A
ARM GAS  C:\Users\victo\AppData\Local\Temp\ccmPfoG4.s 			page 18


 229 02b2 8743A46C 		.ascii	"\207C\244l\221y\004\032\355p\225Y4\332X0\244\207\267"
 229      9179041A 
 229      ED709559 
 229      34DA5830 
 229      A487B7
 230 02c5 BB73479F 		.ascii	"\273sG\237\213B\200\035\030~fa\227j\270P\004G\357\\"
 230      8B42801D 
 230      187E6661 
 230      976AB850 
 230      0447EF5C 
 231 02d9 BB3FC7FF 		.ascii	"\273?\307\377\320M\275#f-\346Y\250\3255\221\022\377"
 231      D04DBD23 
 231      662DE659 
 231      A8D53591 
 231      12FF
 232 02eb C08CF93B 		.ascii	"\300\214\371;\007d\222\234\013\205,d\341J\002\345\345"
 232      0764929C 
 232      0B852C64 
 232      E14A02E5 
 232      E5
 233 02fc 9F7B6C6B 		.ascii	"\237{lk\311'\374\310\016\246\226F\301a\372\324\267S"
 233      C927FCC8 
 233      0EA69646 
 233      C161FAD4 
 233      B753
 234 030e 4FF1A814 		.ascii	"O\361\250\024\306\237\212\"\210?Z\204\206\222\264\017"
 234      C69F8A22 
 234      883F5A84 
 234      8692B40F 
 235 031e 799E398E 		.ascii	"y\2369\216\257\242\342\321\330\355\253\301E\2636w\001"
 235      AFA2E2D1 
 235      D8EDABC1 
 235      45B33677 
 235      01
 236 032f 25B7DAFB 		.ascii	"%\267\332\373PN\257\036\366\322\203\322Ee\265=\302%"
 236      504EAF1E 
 236      F6D283D2 
 236      4565B53D 
 236      C225
 237 0341 8B9EE17E 		.ascii	"\213\236\341~\244\243\313S/\213\246\337\221\314\257"
 237      A4A3CB53 
 237      2F8BA6DF 
 237      91CCAF
 238 0350 8CABC8AF 		.ascii	"\214\253\310\257\226\022h\256\226\007Q\360\227W8\033"
 238      961268AE 
 238      960751F0 
 238      9757381B 
 239 0360 2607A73B 		.ascii	"&\007\247;\371\012B\330\034\325\372m\315\355\373Z\232"
 239      F90A42D8 
 239      1CD5FA6D 
 239      CDEDFB5A 
 239      9A
 240 0371 DBDF6ADF 		.ascii	"\333\337j\337\277\267\265yw[\333\376m-\344\277\376\346"
 240      BFB7B579 
 240      775BDBFE 
 240      6D2DE4BF 
 240      FEE6
ARM GAS  C:\Users\victo\AppData\Local\Temp\ccmPfoG4.s 			page 19


 241 0383 AED6B63D 		.ascii	"\256\326\266={\235\326=\273\336pZx\365/\272[\306\341"
 241      7B9DD63D 
 241      BBDE705A 
 241      78F52FBA 
 241      5BC6E1
 242              		.text
 243              		.section	.gnu.lto_boot_get_boot_seq.92f63638,"",%progbits
 244 0000 789C6551 		.ascii	"x\234eQ[KTQ\024\336\337\332\34763\212\022E0D\010b\032"
 244      5B4B5451 
 244      14DEDFDA 
 244      E736338A 
 244      12453044 
 245 0017 A5414F3E 		.ascii	"\245AO>U\377#!P\013z\020#\205\350A\334sAz\310\020S\034"
 245      55FF2321 
 245      500B7A10 
 245      2385E841 
 245      DC73417A 
 246 002f 35752AC2 		.ascii	"5u*\302J\033\323\322\256\017C`\205t\223R+$\245T\254"
 246      4A1BD3D2 
 246      AE0F4360 
 246      85749352 
 246      2B24A554 
 247 0044 08C646B0 		.ascii	"\010\306F\260\301\304\326>GR\352\3009\373\254\265\277"
 247      C1C4D63E 
 247      4752EAC0 
 247      39FBACB5 
 247      BF
 248 0055 DB5E5B8A 		.ascii	"\333^[\212\377\237\243\374fH\210<^\341\010P\323+!B\016"
 248      FF9FA3FC 
 248      6648883C 
 248      5EE10850 
 248      D32B2142 
 249 006a 9191DA21 		.ascii	"\221\221\332!\224_\306K\205\312\2220\274\266AV\343\036"
 249      945FC64B 
 249      85CA9230 
 249      BCB64156 
 249      E31E
 250 007c 6E9B9122 		.ascii	"n\233\221\"n\233d\275;\300\225\375x7W\026l\017d\003"
 250      6E9B64BD 
 250      3BC095FD 
 250      78375716 
 250      6C0F6403 
 251 0090 FA4740D4 		.ascii	"\372G@\324\2234L\313F=\276\322\022\341Ab\371e`\221\330"
 251      93344CCB 
 251      463DBED2 
 251      12E14162 
 251      F9656091 
 252 00a5 2E4F70F9 		.ascii	".Op\371\260\371y\314\322%\014]NM\306\246|\205\327\224"
 252      B0F979CC 
 252      D2250C5D 
 252      4E4DC6A6 
 252      7C85D794 
 253 00b9 0AA7AEB4 		.ascii	"\012\247\256\2646d\267\267\304y\213D\232\004z\021\304"
 253      3664B7B7 
 253      C4798B44 
 253      9A047A11 
 253      C4
ARM GAS  C:\Users\victo\AppData\Local\Temp\ccmPfoG4.s 			page 20


 254 00ca 7504B5E6 		.ascii	"u\004\265\346\015\0242\366{\337\314\250O\356\204\346"
 254      0D1432F6 
 254      7BDFCCA8 
 254      4FEE84E6 
 255 00da 8D35F6CE 		.ascii	"\2155\366\316\371\012\2562/\371\"\241\216 C\0227!5o"
 255      F90AAE32 
 255      2FF922A1 
 255      8E204312 
 255      3721356F 
 256 00ee 7F107B83 		.ascii	"\177\020{\203|<)\320\207\002\015n\356\036\3534\345."
 256      7C3C29D0 
 256      87020D6E 
 256      EE1EEB34 
 256      E52E
 257 0100 97D83DD0 		.ascii	"\227\330=\320\321#\363/3q\266\177p\026\355*\036nR\353"
 257      D123F32F 
 257      3371B67F 
 257      7016ED2A 
 257      1E6E52EB 
 258 0114 EB8759C1 		.ascii	"\353\207Y\301@\277\247\260\351\254\037&-E\327\246\002"
 258      40BFA7B0 
 258      E9AC1F26 
 258      2D45D7A6 
 258      02
 259 0125 56542995 		.ascii	"VT)\225\213[\310\327\3618U\002\026x\321\235\201mI\026"
 259      8B5BC8D7 
 259      F1385502 
 259      1678D19D 
 259      816D4916 
 260 0139 494FC4C2 		.ascii	"IO\304\302\005\2152\013B\367\2103\220\011\035\302\341"
 260      058D320B 
 260      42F78833 
 260      90091DC2 
 260      E1
 261 014a 5FD3CF1F 		.ascii	"_\323\317\037+\240\233B\314\361\253\3075\317\005\257"
 261      2BA09B42 
 261      CCF1ABC7 
 261      35CF05AF 
 262 015a 7202D1F7 		.ascii	"r\002\321\367\221G\243!\251EW\310d\317g]\213C\206\036"
 262      9147A321 
 262      A94557C8 
 262      64CF675D 
 262      8B43861E 
 263 016e 94CD7203 		.ascii	"\224\315r\003\033i\346\371T\361R9\211p2\3759\0057\002"
 263      1B69E6F9 
 263      54F15239 
 263      897032FD 
 263      39053702 
 264 0182 5B317CB0 		.ascii	"[1|\260\243}\331\205\033\3115[\340\266K\230'\303\225"
 264      A37DD985 
 264      1BC9355B 
 264      E0B64B98 
 264      27C395
 265 0195 677CAE9B 		.ascii	"g|\256\233i\205 \246\021I\266}y\003\317\312\3213y{!"
 265      698520A6 
 265      1149B67D 
 265      7903CFCA 
ARM GAS  C:\Users\victo\AppData\Local\Temp\ccmPfoG4.s 			page 21


 265      D133797B 
 266 01aa 4175ABEA 		.ascii	"Au\253\352\234r2\344\244I\237j\020u\034\325'\334d\345"
 266      9C7232E4 
 266      A4499F6A 
 266      10751CD5 
 266      27DC64E5 
 267 01be 1B584EA6 		.ascii	"\033XN\246S,\000\314\032_\215\364\004<\307uv\034B\220"
 267      532C00CC 
 267      1A5F8DF4 
 267      043CC775 
 267      761C4290 
 268 01d2 7EB736E4 		.ascii	"~\2676\344hk\331\322f\261\271)\"Er\032Q\266K\231\236"
 268      686BD9D2 
 268      66B1B929 
 268      2245721A 
 268      51B64B99 
 269 01e7 84FF5F3B 		.ascii	"\204\377_;\177Z\317\003w\330\216\303e(\3409~\243M\374"
 269      7F5ACF03 
 269      77D88EC3 
 269      6528E039 
 269      7EA34DFC 
 270 01fb CCDCEB71 		.ascii	"\314\334\353qG\033e1\360\356\337IX\342\311!\371\021"
 270      471B6531 
 270      F0EEDF49 
 270      58E2C921 
 270      F911
 271 020d E191A585 		.ascii	"\341\221\245\205\330A\017\035\330\2126\334\253\033\376"
 271      D8410F1D 
 271      D88A36DC 
 271      AB1BFE
 272 021c D5F323BB 		.ascii	"\325\363#\273\013\235!\245\222\305\031\312f\023\014"
 272      0B9D21A5 
 272      92C519CA 
 272      66130C
 273 022b 6B0DDEBB 		.ascii	"k\015\336\273\264|\361CN\361>\276\021\214\240\013?\365"
 273      B47CF143 
 273      4EF13EBE 
 273      118CA00B 
 273      3FF5
 274 023d AD0ADC43 		.ascii	"\255\012\334C\261\253o\273\243\373\204P.'#}jb\007+&"
 274      B1AB6FBB 
 274      A3FB8450 
 274      2E27237D 
 274      6A62072B 
 275 0252 B79AE8EC 		.ascii	"\267\232\350\354\367\0214\317w>%\276Uh\016\367\266\227"
 275      F71134CF 
 275      773E25BE 
 275      55680EF7 
 275      B697
 276 0264 94D59CAE 		.ascii	"\224\325\234\256(\2539[S{\274\252\254\274\272\272\266"
 276      28AB395B 
 276      537BBCAA 
 276      ACBCBABA 
 276      B6
 277 0275 A4421827 		.ascii	"\244B\030'\316\234\2544\252*\217\235\372\003\204\307"
 277      CE9CAC34 
 277      AA2A8F9D 
ARM GAS  C:\Users\victo\AppData\Local\Temp\ccmPfoG4.s 			page 22


 277      FA0384C7 
 278 0285 198A     		.ascii	"\031\212"
 279              		.text
 280              		.section	.gnu.lto_.symbol_nodes.92f63638,"",%progbits
 281 0000 789C55CA 		.ascii	"x\234U\312;\012\302@\030\004\340\331\177\\\3638\201"
 281      3B0AC240 
 281      1804E0D9 
 281      7F5CF338 
 281      81
 282 0011 4540F0FD 		.ascii	"E@\360\375\310\035\377\024\201t\342\011\304\210'\011"
 282      C81DFF14 
 282      8174E209 
 282      C4882709 
 283 0021 5B5918F4 		.ascii	"[Y\030\364\004*\226\236A\214\321\";\3150\037C\000\027"
 283      042A969E 
 283      418CD122 
 283      3BCD301F 
 283      430017
 284 0034 FC233305 		.ascii	"\374#3\005\266g@\025\273}\010;B)\012\231\253\351\262"
 284      B6674015 
 284      BB7D083B 
 284      42290A99 
 284      ABE9B2
 285 0047 2C54BCDB 		.ascii	",T\274\333\324\264\267\245\322\343\211\264\274\322\236"
 285      D4B4B7A5 
 285      D2E389B4 
 285      BCD29E
 286 0056 C7631E44 		.ascii	"\307c\036Di\326j\177\214,\013aR\355w&%B\276I\310\030"
 286      69D66A7F 
 286      8C2C0B61 
 286      52ED7726 
 286      2542BE49 
 287 006c 79F11A7E 		.ascii	"y\361\032~\373Y\270\001\031\301\325))\250\256B\333\350"
 287      FB59B801 
 287      19C1D529 
 287      29A8AE42 
 287      DBE8
 288 007e ED6D6889 		.ascii	"\355mh\211\352T'\014b\034\357\315\016\210G\351\014>"
 288      EA54270C 
 288      621CEFCD 
 288      0E8847E9 
 288      0C3E
 289 0090 B7E2361F 		.ascii	"\267\3426\037"
 290              		.text
 291              		.section	.gnu.lto_.refs.92f63638,"",%progbits
 292 0000 789C6366 		.ascii	"x\234cf``\020f\200\000F bddf`\021dbe`cg`\341b\000\000"
 292      60601066 
 292      80004620 
 292      62646466 
 292      60116462 
 293 001d 045B0055 		.ascii	"\004[\000U"
 294              		.text
 295              		.section	.gnu.lto_.decls.92f63638,"",%progbits
 296 0000 789CBD59 		.ascii	"x\234\275Y{T\224\327v\237\363\235\001\206a\000#\206"
 296      7B5494D7 
 296      769FF39D 
 296      01866100 
ARM GAS  C:\Users\victo\AppData\Local\Temp\ccmPfoG4.s 			page 23


 296      2386
 297 0012 2837ED45 		.ascii	"(7\355E\323\3132\275j\257\246\275M\273V\327-QbLU\254"
 297      D3CB32BD 
 297      6AAFA6BD 
 297      4DBB56D7 
 297      2D51624C 
 298 0028 60B2D272 		.ascii	"`\262\322r;k2\214\312\222\2270\304\330\376\221\017\020"
 298      3B6B328C 
 298      CA929730 
 298      C4D8FE91 
 298      0F10
 299 003a 454482F8 		.ascii	"ED\202\370@@q\024\211\242\210\240\250<\0250\212\002"
 299      40407114 
 299      89A288A0 
 299      A83C1530 
 299      8A02
 300 004c 2AF1FD04 		.ascii	"*\361\375\004\004_\341\241 OE\234\356\263\31773\337"
 300      045FE1A1 
 300      204F459C 
 300      EEB3CF37 
 300      33DF
 301 005e 2074F58F 		.ascii	" t\365\217\256~k\035\347;\277\263\317\336\277\275\317"
 301      AE7E6B1D 
 301      E73BBFB3 
 301      CFDEBFBD 
 301      CF
 302 006f 3EE7EC0F 		.ascii	">\347\354\017\251B\241\010\026\024\0123<#\223\025\212"
 302      A942A108 
 302      16140A33 
 302      3C239315 
 302      8A
 303 0080 740785C2 		.ascii	"t\007\205\302\021\260%\320\224\3204\320\246B;\005\315"
 303      11B025D0 
 303      94D034D0 
 303      A6423B05 
 303      CD
 304 0091 53C11F27 		.ascii	"S\301\037'h\255\320\274\211B\241\207\266\002\332*h\221"
 304      68ADD0BC 
 304      8942A187 
 304      B602DA2A 
 304      6891
 305 00a3 D0A2099F 		.ascii	"\320\242\011\237\027\003\277\337C\373/h?\020\205\335"
 305      1703BFDF 
 305      43FB2F68 
 305      3F1085DD 
 306 00b3 C3E68249 		.ascii	"\303\346\202I\305}h\2424F$\234Hs\345\017\263\303xL\201"
 306      C57D68A2 
 306      3446249C 
 306      4873E50F 
 306      B3C3784C 
 307 00c8 5F3789D3 		.ascii	"_7\211\323\207\360\376\367\204s\372\022Z,\341<+\241"
 307      87F0FEF7 
 307      8473FA12 
 307      5A2CE13C 
 307      2BA1
 308 00da AD83F770 		.ascii	"\255\203\367pI\207 \315\217\034\245\223=\214\373\007"
 308      498720CD 
ARM GAS  C:\Users\victo\AppData\Local\Temp\ccmPfoG4.s 			page 24


 308      8F1CA593 
 308      3D8CFB07 
 309 00ea A3F46AE1 		.ascii	"\243\364j\341}&4oI\357\027\320\212\245\030xJv\377C\262"
 309      7D26346F 
 309      49EF17D0 
 309      8AA51878 
 309      4A76FF43 
 310 00ff 9D006D35 		.ascii	"\235\000m5\341\261YO\354mo\200\366\227R,\002\340w1\264"
 310      E1B1594F 
 310      EC6D6F80 
 310      F697522C 
 310      02E07731 
 311 0114 4068FE12 		.ascii	"@h\376\022\246\227b\305x1~\214\336\367\2438\262\270"
 311      A69762C5 
 311      78317E8C 
 311      DEF7A338 
 311      B2B8
 312 0126 BA4AFC98 		.ascii	"\272J\374\230\0159G\306\311S\306a\211\304!\021\232N"
 312      0D3947C6 
 312      C953C661 
 312      89C42111 
 312      9A4E
 313 0138 D243251D 		.ascii	"\322C%\035\321\322:\301\322*6\302o\022\264M\322\332"
 313      D1D23AC1 
 313      D22A36C2 
 313      6F12B44D 
 313      D2DA
 314 014a 8CB6B94A 		.ascii	"\214\266\271J\212\205\305\326L\311/\271M\026\007\213"
 314      8A85C5D6 
 314      4CC92FB9 
 314      4D16078B 
 315 015a 5D8BBD29 		.ascii	"]\213\275)R\\\230\272o\010\267\275Jf{\364\323#\220\216"
 315      525C98BA 
 315      6F08B7BD 
 315      4A667BF4 
 315      D323908E 
 316 016e 86A68DCE 		.ascii	"\206\246\215\316T \354=g\347\303\353\352\031\207DQL"
 316      5420EC3D 
 316      67E7C3EB 
 316      EA198744 
 316      514C
 317 0180 14ABAA04 		.ascii	"\024\253\252\004\233Pv\335\323\024'\372\001\012\365"
 317      9B5076DD 
 317      D31427FA 
 317      010AF5
 318 018f 9FA9C877 		.ascii	"\237\251\310w\242\263\360\275u\350\347cNt\036\276g\336"
 318      A2B3F0BD 
 318      75E8E763 
 318      4E741EBE 
 318      67DE
 319 01a1 7ADC479F 		.ascii	"z\334G\237\011\344K\265\300\272\355\275\261\273\\\350"
 319      09E44BB5 
 319      C0BAEDBD 
 319      B1BB5CE8 
 320 01b1 BFE150D2 		.ascii	"\277\341P\322\363\201VA)(\310\021B\311\357\274Pe\301"
 320      F3815641 
 320      2928C811 
ARM GAS  C:\Users\victo\AppData\Local\Temp\ccmPfoG4.s 			page 25


 320      42C9EFBC 
 320      5065C1
 321 01c4 BEB446C4 		.ascii	"\276\264F\304\016\003\226O\274H\001Q2\374\222\2510N"
 321      0E03964F 
 321      BC480151 
 321      32FC92A9 
 321      304E
 322 01d6 C5F04380 		.ascii	"\305\360C\200\377\225\0279\312\341c[\373v\253\031\234"
 322      FF951739 
 322      CAE1635B 
 322      FB76AB19 
 322      9C
 323 01e7 07F0475E 		.ascii	"\007\360G^\244\220\303\261?\225';\201QO5*M\251\317\254"
 323      A490C3B1 
 323      3F95273B 
 323      81514F35 
 323      2A4DA9CF 
 324 01fc A6D83533 		.ascii	"\246\33053\303B\356\201\255\345J\242\362Y/\212qbw\\"
 324      C342EE81 
 324      ADE54AA2 
 324      F2592F8A 
 324      7162775C 
 325 0210 2C9DAC20 		.ascii	",\235\254 3\274\310\307@\201\024\023\0259Hf\220\023"
 325      33BCC8C7 
 325      40811413 
 325      15394866 
 325      9013
 326 0222 C4871411 		.ascii	"\304\207\024\021%9\006\034\216\023/\305~p\277\273\251"
 326      2539061C 
 326      8E132FC5 
 326      7E70BFBB 
 326      A9
 327 0233 CDAC1245 		.ascii	"\315\254\022E%\023R0)y\310\204\316S\271\265J\342\243"
 327      25135230 
 327      2979C884 
 327      CE53B9B5 
 327      4AE2A3
 328 0246 62922DC9 		.ascii	"b\222-\311\006\0259\005\252\016\000/.\210\223\360y\327"
 328      06153905 
 328      AA0E002F 
 328      2E8893F0 
 328      79D7
 329 0258 2C3909D6 		.ascii	",9\011\326\306\263\314\364\200\023[\356\336HP\322\004"
 329      C6B3CCF4 
 329      80135BEE 
 329      DE4850D2 
 329      04
 330 0269 82A14BFF 		.ascii	"\202\241K\377\345\366)%\335\316;I\367\362\032\234\350"
 330      E5F62925 
 330      DDCE3B49 
 330      F7F21A9C 
 330      E8
 331 027a 6EEC0869 		.ascii	"n\354\010im}\271\204\250}\022\321H\232(3R\001\212=\325"
 331      6D7DB984 
 331      A87D12D1 
 331      489A2833 
 331      52018A3D 
ARM GAS  C:\Users\victo\AppData\Local\Temp\ccmPfoG4.s 			page 26


 332 028f 48C7DEAD 		.ascii	"H\307\336\255+\271?~\310\334*'jRf#\314\242'\371\326"
 332      2BB93F7E 
 332      C8DC2A27 
 332      6A526623 
 332      CCA227F9 
 333 02a4 722BF75F 		.ascii	"r+\367_\307Vzz<\245w\363\352\337gJ+Ai\251M)\330\260"
 333      C7567A7A 
 333      3CA577F3 
 333      EADF674A 
 333      2B4169A9 
 334 02bc E64FFEC6 		.ascii	"\346O\376\306>\201\356\242\350D\315\236\255\255\224"
 334      3E81EEA2 
 334      E844CD9E 
 334      ADAD94
 335 02cb 9AB0434F 		.ascii	"\232\260CO\230\363\013\224\304K\355\265ST\221\032\230"
 335      98F30B94 
 335      C44BEDB5 
 335      5354911A 
 335      98
 336 02dc C10DC7A5 		.ascii	"\301\015\307\245N \266\225b\270\202T\203\315\263`s'"
 336      4E20B695 
 336      62B88254 
 336      83CDB360 
 336      7327
 337 02ee 24279765 		.ascii	"$'\227e\031\333}\256\326\225\026q\315\327\223\337\334"
 337      19DB7DAE 
 337      D6951671 
 337      CDD793DF 
 337      DC
 338 02ff 71A76779 		.ascii	"q\247gy\347j\335\2054\025m\240v\271\351\306s\363\315"
 338      E76ADD85 
 338      34156DA0 
 338      76B9E9C6 
 338      73F3CD
 339 0312 DBBA1E4A 		.ascii	"\333\272\036Jo\363\261\224\202\375\275\3568F\031\243"
 339      6FF3B194 
 339      82FDBDEE 
 339      384619A3 
 340 0322 2E73BD48 		.ascii	".s\275H9\243Dq\210\220z\033\251*9\251z$\325\000\244"
 340      39A34471 
 340      88907A1B 
 340      A92A39A9 
 340      7A24D500 
 341 0337 EA90940A 		.ascii	"\352\220\224\012\021\320Wy\340y\002\241\217\270\362"
 341      11D05779 
 341      E07902A1 
 341      8FB8F2
 342 0346 B2B40B3B 		.ascii	"\262\264\013;\035Q9KWU\312\215\224\006G2\215=\036>\323"
 342      1D51394B 
 342      5755CA8D 
 342      94064732 
 342      8D3D1E3E 
 343 035b 4CA0B6BB 		.ascii	"L\240\266\273\351\350\276\005/\343\032\033\011s\211"
 343      E9E8BE05 
 343      2FE31A1B 
 343      097389
 344 036a 9C87F85D 		.ascii	"\234\207\370]'\036\344\367<\346\323\2750\252W\3114R"
ARM GAS  C:\Users\victo\AppData\Local\Temp\ccmPfoG4.s 			page 27


 344      271EE4F7 
 344      3CE6D3BD 
 344      30AA57C9 
 344      3452
 345 037c 0B56140A 		.ascii	"\013V\024\0126\305\224\3648\301{/E\371\013\343\312_"
 345      36C594F4 
 345      38C17B2F 
 345      45F90BE3 
 345      CA5F
 346 038e B4C99BDB 		.ascii	"\264\311\233\333\254\362?\217+\377\327\2228dt\356\237"
 346      ACF23F8F 
 346      2BFFD792 
 346      386474EE 
 346      9F
 347 039f 1327B39C 		.ascii	"\023'\263\234@\311\031\026I\360\326\"\023\327\262)\267"
 347      40C91916 
 347      49F0D622 
 347      13D7B229 
 347      B7
 348 03b0 CEC5043A 		.ascii	"\316\305\004:\301grI\322y\231\274\243\3642\222\330\""
 348      C1677249 
 348      D27999BC 
 348      A3F43292 
 348      D822
 349 03c2 B2348913 		.ascii	"\2624\211\023\377\331\032>R%\315a\333\340\006$\326/"
 349      FFD91A3E 
 349      5225CD61 
 349      DBE00624 
 349      D62F
 350 03d4 207C13DA 		.ascii	" |\023\332\025h\215\320\256\221i\230;\270\305F\342\235"
 350      15688DD0 
 350      AE916998 
 350      3BB8C546 
 350      E29D
 351 03e6 44C2C447 		.ascii	"D\302\304GmEd\222(1a\336\235\033\327\273\337{\361DL"
 351      6D456492 
 351      283161DE 
 351      9D1BD7BB 
 351      DF7BF144 
 352 03fb 4D38F1CC 		.ascii	"M8\361\314\221\306+\331\342(\273j\356\334P\303j\370"
 352      91C62BD9 
 352      E228BB6A 
 352      EEDC50C3 
 352      6AF8
 353 040d 4C424DC3 		.ascii	"LBM\3039\265.\342\316?\340\2343\240\351\036\2314\246"
 353      39B52EE2 
 353      CE3FE09C 
 353      33A0E91E 
 353      9934A6
 354 0420 F710A1C7 		.ascii	"\367\020\241\307\177\256\212\345\246n\215'\210\314_"
 354      7FAE8AE5 
 354      A66E8D27 
 354      88CC5F
 355 042f E5380273 		.ascii	"\3458\002s\030\037\305<\355\235\210(P\013\013\307]\010"
 355      181FC53C 
 355      ED9D8828 
 355      500B0BC7 
ARM GAS  C:\Users\victo\AppData\Local\Temp\ccmPfoG4.s 			page 28


 355      5D08
 356 0441 C76DA07C 		.ascii	"\307m\240|G\012\001l\312G\333o\026:\221I>\357N#\017"
 356      470A016C 
 356      CA47DB6F 
 356      163A9149 
 356      3EEF4E23 
 357 0456 407ABC99 		.ascii	"@z\274\231H!\005\316\247\373 Pb\333\231\214\217eg\326"
 357      482105CE 
 357      A7FB2050 
 357      62DB998C 
 357      8F6567D6 
 358 046a B70EF56A 		.ascii	"\267\016\365j0A'\3107\212\206o\224[\3276\367\271|\260"
 358      304127C8 
 358      378A866F 
 358      945BD736 
 358      F7B97CB0 
 359 047e 9D9915E3 		.ascii	"\235\231\025\343\305\011\002jj\202unf\013KZ\010\\\334"
 359      C509026A 
 359      6A82756E 
 359      660B4B5A 
 359      085CDC
 360 0491 E4DF955C 		.ascii	"\344\337\225\\\325\203\202\201]\3564\011cKzK\317\305"
 360      D5838281 
 360      5DEE3409 
 360      634B7A4B 
 360      CFC5
 361 04a3 B979678B 		.ascii	"\271yg\213\246\302\3563E\205\256y\307\304\2528\361\215"
 361      A6C2EE33 
 361      4585AE79 
 361      C7C4AA38 
 361      F18D
 362 04b5 D94C6281 		.ascii	"\331Lb\201=\314#\017\255|\024\354\035\371\220V\342\015"
 362      3DCC230F 
 362      AD7C14EC 
 362      1DF99056 
 362      E20D
 363 04c7 73874FDD 		.ascii	"s\207O\335\357P\321b\256\350\322\303\346K\032Z\315;"
 363      EF50D162 
 363      AEE8D2C3 
 363      E64B1A5A 
 363      CD3B
 364 04d9 DD69375F 		.ascii	"\335i7_8\322\006\336\331}\362\364#W\274p\336\232\245"
 364      38D206DE 
 364      D97DF2F4 
 364      2357BC70 
 364      DE9AA5
 365 04ec 87FC00F8 		.ascii	"\207\374\000\370\361\266m\205\224>\344B}%\215\275*\372"
 365      F1B66D85 
 365      943EE442 
 365      7D258DBD 
 365      2AFA
 366 04fe 927712CB 		.ascii	"\222w\022\313\177\315\324\320T\007\354\334\276\220\376"
 366      7FCDD4D0 
 366      5407ECDC 
 366      BE90FE
 367 050d 7738DB99 		.ascii	"w8\333\231\365vd\337\214\2454\207\017\355Z\277{\015"
 367      F57664DF 
ARM GAS  C:\Users\victo\AppData\Local\Temp\ccmPfoG4.s 			page 29


 367      8CA53487 
 367      0FED5ABF 
 367      7B0D
 368 051f ADE0EF9D 		.ascii	"\255\340\357\235\327\262\3124(\347\300\272\325\225\246"
 368      D7B2CA34 
 368      28E7C0BA 
 368      D595A6
 369 052e 2C377A87 		.ascii	",7z\207\217\245%\224\224\270\341\230#\236$7\222\223"
 369      8FA52594 
 369      94B8E198 
 369      239E2437 
 369      9293
 370 0540 5D68171F 		.ascii	"]h\027\037\033\314i\351 8\346\204\367\327\256;\325*"
 370      1BCC69E9 
 370      2038E684 
 370      F7D7AE3B 
 370      D52A
 371 0552 BAC111C7 		.ascii	"\272\301\021\307\366o\337\221\357\200c*\326=\233\222"
 371      F66FDF91 
 371      EF80632A 
 371      D63D9B92 
 372 0562 92A0A2D9 		.ascii	"\222\240\242\331|,.\273p\223\212\226\362\316\346\327"
 372      7C2C2EBB 
 372      70938A96 
 372      F2CEE6D7 
 373 0572 3D97B801 		.ascii	"=\227\270\001<ZJ\232Rn\252i#\037{\232z\360('\346\302"
 373      3C5A4A9A 
 373      526EAA69 
 373      231F7B9A 
 373      7AF02827 
 374 0588 BA755746 		.ascii	"\272uWF\256\252\351c>6\230\320\275Q\215c\032\326}\225"
 374      AEAAE963 
 374      3E3698D0 
 374      BD518D63 
 374      1AD67D95 
 375 059c F6A893D2 		.ascii	"\366\250\223\322\001>\326y\314t^\205c\256x\202\246\226"
 375      013ED679 
 375      CC745E85 
 375      63AE7882 
 375      A696
 376 05ae D438D28D 		.ascii	"\3248\322\215N8V\264\367\336 \277\303\335\360\014\315"
 376      4E3856B4 
 376      F7DE20BF 
 376      C3DDF00C 
 376      CD
 377 05bf 28BDABA1 		.ascii	"(\275\253\241\273\370\330\355\226\270:\027\034sG\322"
 377      BBF8D8ED 
 377      96B83A17 
 377      1C7347D2 
 378 05cf 3F3D32AB 		.ascii	"?=2\253\351!>f\311\242/y\026\231{\207\223\035\330e\035"
 378      E9213E66 
 378      C9A22F79 
 378      16997B87 
 378      931DD865 
 379 05e4 2B501227 		.ascii	"+P\022'\360\013\337\374|W\235\013\003\315\260\362\242"
 379      F00BDFFC 
 379      7C579D0B 
ARM GAS  C:\Users\victo\AppData\Local\Temp\ccmPfoG4.s 			page 30


 379      03CDB0F2 
 379      A2
 380 05f5 E045E205 		.ascii	"\340E\342\005~\205\267\215\230\360\302\037\001\374-"
 380      7E85B78D 
 380      98F0C21F 
 380      01FC2D
 381 0604 E4D63A8E 		.ascii	"\344\326:\216\357~\321~\315\221\341\303\200\277\001"
 381      EF7ED17E 
 381      CD91E1C3 
 381      80BF01
 382 0613 3C81E30F 		.ascii	"<\201\343\017\013r\342Q\376\025\340\257\001_\317\361"
 382      0B72E251 
 382      FE15E0AF 
 382      015FCFF1 
 383 0623 F389C5CD 		.ascii	"\363\211\305\315\210\017\002>\004\370\006\216\017]H"
 383      880F023E 
 383      04F8068E 
 383      0F5D48
 384 0632 DEECC4F0 		.ascii	"\336\354\304\360~\300\007\000O\344x\316\255\341\363"
 384      7EC00700 
 384      4FE478CE 
 384      ADE1F3
 385 0641 C8A70FF0 		.ascii	"\310\247\017\360v\3007r<c]\377\011%\303_\002\336\013"
 385      76C03772 
 385      3C635DFF 
 385      0925C35F 
 385      02DE0B
 386 0654 7812C773 		.ascii	"x\022\307s\263Z\007\234\031\336\015x\017\340\2338~w"
 386      B35A079C 
 386      19DE0D78 
 386      0FE09B38 
 386      7E77
 387 0666 474A0365 		.ascii	"GJ\003e\370s\300_\000\236\314\361\035\225\225\333\220"
 387      F873C05F 
 387      009ECCF1 
 387      1D9595DB 
 387      90
 388 0677 7F27E05D 		.ascii	"\177'\340]\200o\346\370\203\212\036\177\006w`-DR8ZY"
 388      806FE6F8 
 388      838A1E7F 
 388      0677602D 
 388      4452385A 
 389 068c 1A3B8C5A 		.ascii	"\032;\214Z~\225\330\374(\261\351\277]\200\354\237\361"
 389      7E95D8FC 
 389      28B1E9BF 
 389      5D80EC9F 
 389      F1
 390 069d 722895C3 		.ascii	"r(\225\303W\267u%k\030\374\224\227C[$\216OO\014c\225"
 390      57B77525 
 390      6B18FC94 
 390      97435B24 
 390      8E4F4F0C 
 391 06b3 F418E027 		.ascii	"\364\030\340'\240%\215\3435\217\317lgk\376\236Z\264"
 391      A0258DE3 
 391      358FCF6C 
 391      676BFE9E 
 391      5AB4
ARM GAS  C:\Users\victo\AppData\Local\Temp\ccmPfoG4.s 			page 31


 392 06c5 DB2AD7DE 		.ascii	"\333*\327\336^>K\020\377\001\313\245\242\374\006\007"
 392      5E3E4B10 
 392      FF01CBA5 
 392      A2FC0607 
 393 06d5 5E2E89A3 		.ascii	"^.\211\243\352\226G\240p\207\300\353\226t\301\207l\025"
 393      EA9647A0 
 393      7087C0EB 
 393      9674C187 
 393      6C15
 394 06e7 94641B2C 		.ascii	"\224d\033,\342vA\252\002\206+[4\331\"\\\203 \365n\311"
 394      E27641AA 
 394      02862B5B 
 394      34D9225C 
 394      8320F56E 
 395 06fc 3454563C 		.ascii	"4TV<\"XJ\246\323z\025\311\000]m\266#\211M\262\224L\243"
 395      22584AA6 
 395      D37A15C9 
 395      005D6DB6 
 395      23894DB2 
 396 0713 4DEF0473 		.ascii	"M\357\004s\343\231\006\037J\013\372.\271\340\011\346"
 396      E399061F 
 396      4A0BFA2E 
 396      B9E009E6 
 397 0723 2DBF7135 		.ascii	"-\277q5j\236\025\031\035\345\016\232$v\201\247\306\213"
 397      6A9E1519 
 397      1DE50E9A 
 397      247681A7 
 397      C68B
 398 0735 CE5FE0E9 		.ascii	"\316_\340\351\236\011\263\263XZ\222]\202F:\010\267\336"
 398      9E09B3B3 
 398      585A925D 
 398      82463A08 
 398      B7DE
 399 0747 CA6D66E9 		.ascii	"\312mf\351\200\030;\323\000\333\360\372z\267R~\3741"
 399      80183BD3 
 399      00DBF0FA 
 399      7AB7527E 
 399      FC31
 400 0759 D6B6E32F 		.ascii	"\326\266\343/[`\307\337nA:\377^\037\314\274\242\246"
 400      5B60C7DF 
 400      6E413AFF 
 400      5E1FCCBC 
 400      A2A6
 401 076b 57F98E48 		.ascii	"W\371\216H/z\036\347\014\347_\013;\377:]\263\255\347"
 401      2F7A1EE7 
 401      0CE75F0B 
 401      3BFF3A5D 
 401      B3ADE7
 402 077e 1F61D3C8 		.ascii	"\037a\323\310\036\301v\372\301;?\375L\002;\375\312\033"
 402      1EC176FA 
 402      C13B3FFD 
 402      4C023BFD 
 402      CA1B
 403 0790 F28E0AE8 		.ascii	"\362\216\012\350\217(\310\375\323p\377\272jN\034$\264"
 403      8F28C8FD 
 403      D370FFBA 
 403      6A4E1C24 
ARM GAS  C:\Users\victo\AppData\Local\Temp\ccmPfoG4.s 			page 32


 403      B4
 404 07a1 935B49E9 		.ascii	"\223[I\351\337\224\204Et\016\352`\2109!WE\007\245-{"
 404      DF948445 
 404      740EEA60 
 404      88392157 
 404      4507A52D 
 405 07b6 E058852B 		.ascii	"\340X\205+\335\250\302\316\231\323C\347\325t;\357$'"
 405      DDA8C2CE 
 405      99D343E7 
 405      D5743BEF 
 405      2427
 406 07c8 B65C54D3 		.ascii	"\266\\T\323l\336\261\024"
 406      6CDEB114 
 407 07d0 D1537911 		.ascii	"\321Sy\021\335\234\365j\2773vY\236\260\315.\034\177"
 407      DD9CF56A 
 407      BF337659 
 407      9EB0CD2E 
 407      1C7F
 408 07e2 B5E72C21 		.ascii	"\265\347,!>j\251\210l\375\"\036N\361|\001\252A\253\037"
 408      3E6AA988 
 408      6CFD221E 
 408      4EF17C01 
 408      AA41AB1F 
 409 07f6 389B3D89 		.ascii	"8\233=\211\326X+\254\201&\207a\335\246J\305c\036\200"
 409      D6582BAC 
 409      81268761 
 409      DDA64AC5 
 409      631E80
 410 0809 8770ED84 		.ascii	"\207p\355\204\214D\261\326\305Rn\216\236S0\306\034\251"
 410      8C44B1D6 
 410      C5526E8E 
 410      9E5330C6 
 410      1CA9
 411 081b E04CF764 		.ascii	"\340L\367d\005\347\021 p\300F\000\370X\257\265\341\303"
 411      05E71120 
 411      70C04600 
 411      F858AFB5 
 411      E1C3
 412 082d A766D13C 		.ascii	"\247f\321<\356\336\366\272\254\037\035\3501\336I}\230"
 412      EEDEF6BA 
 412      AC1F1DE8 
 412      31DE497D 
 412      98
 413 083e 764D49CB 		.ascii	"vMI\313\355\035\367\346\216\247w\014\025\253\260k6\263"
 413      ED1DF7E6 
 413      8EA7770C 
 413      15ABB06B 
 413      36B3
 414 0850 5A5068CE 		.ascii	"ZPh\316\332\365Pcu\373\361M\254\235O\200\325\"\233U"
 414      DAF55063 
 414      75FBF14D 
 414      AC9D4F80 
 414      D5229B55 
 415 0864 6FB9DB90 		.ascii	"o\271\333\220%\016\323\025\326\024!\305\340\202\267"
 415      250ED315 
 415      D61421C5 
 415      E082B7
ARM GAS  C:\Users\victo\AppData\Local\Temp\ccmPfoG4.s 			page 33


 416 0873 A5660617 		.ascii	"\245f\006\027\216s\267\223\236\233\222\251E\357\335"
 416      8E73B793 
 416      9E9B92A9 
 416      45EFDD
 417 0882 BC34F4E6 		.ascii	"\2744\364\346\024\350-\264\351=!\374O\212O\216\251\230"
 417      14E82DB4 
 417      E93D21FC 
 417      4F8A4F8E 
 417      A998
 418 0894 D49465EE 		.ascii	"\324\224e\356'\364<\367\356`\353\3454WL\244\351\370"
 418      27F43CF7 
 418      EE60EBE5 
 418      34574CA4 
 418      E9F8
 419 08a6 DD96D53E 		.ascii	"\335\226\325>S\235\310R\231o\004\215|\037\2241k\254"
 419      539DC852 
 419      996F048D 
 419      7C1F9431 
 419      6BAC
 420 08b8 60FA18F5 		.ascii	"`\372\030\365\\,\356\330\347<1\025\205M\2427\301]cK"
 420      5C2CEED8 
 420      E73C3115 
 420      854DA237 
 420      C15D634B 
 421 08cc FC7261A2 		.ascii	"\374ra\242e\016\206\261\352\3105'4\364)\3536\0244\226"
 421      650E86B1 
 421      EAC83527 
 421      34F429EB 
 421      36143496 
 422 08e0 B8D3EB2A 		.ascii	"\270\323\353*\273\253N\303\257\272\214\301\206\363\274"
 422      BBAB4EC3 
 422      AFBA8CC1 
 422      86F3BC
 423 08ef D89E2CAF 		.ascii	"\330\236,\257\2755X{\223\364\226\302L\347q9V[82\022"
 423      BD35587B 
 423      93F496C2 
 423      4CE77139 
 423      565B3832 
 424 0904 ECD21938 		.ascii	"\354\322\0318\224k!)ZH\236\001\361*\024\257A\222\325"
 424      946B2129 
 424      5A489E01 
 424      F12A14AF 
 424      4192D5
 425 0917 1692AFFA 		.ascii	"\026\222\257\372\332\217\270\321\373\234\325\306\330"
 425      DA8FB8D1 
 425      FB9CD5C6 
 425      D8
 426 0924 B40C57FA 		.ascii	"\264\014W\372Dewyi\370\345\225q\254\337H\007\370P\353"
 426      44657779 
 426      69F8E595 
 426      71ACDF48 
 426      07F850EB 
 427 0938 93BB9D4A 		.ascii	"\223\273\235J\232\344\214\235\342\352\216zg\232\305"
 427      9AE48C9D 
 427      E2EA8E7A 
 427      679AC5
 428 0947 3B4539FD 		.ascii	";E9\375\305\224\036\340\235\346\301\346\032\036\200"
ARM GAS  C:\Users\victo\AppData\Local\Temp\ccmPfoG4.s 			page 34


 428      C5941EE0 
 428      9DE6C1E6 
 428      1A1E80
 429 0956 3FE0B1D1 		.ascii	"?\340\261\321\324]\341LO\3621\213\307\032\356\361\360"
 429      D45DE14C 
 429      4FF2318B 
 429      C71AEEF1 
 429      F0
 430 0967 95941E07 		.ascii	"\225\224\036\007Z\215c\356\205\365\361\335\356\374s"
 430      5A8D63EE 
 430      85F5F1DD 
 430      EEFC73
 431 0976 407A3CA6 		.ascii	"@z<\246\371\360\257\202\027\207Wo\211\027\223\247`\222"
 431      F9F0AF82 
 431      1787576F 
 431      891793A7 
 431      6092
 432 0988 57425ADC 		.ascii	"WBZ\334\025<l[\3434z8\303Z\216\037\316\265\225\256?"
 432      153C6C5B 
 432      E3347A38 
 432      C35A8E1F 
 432      CEB595AE 
 433 099d 49C26317 		.ascii	"I\302c\027\356\345\3476h\304\235s0\333j%IkV\235C\265"
 433      EEE5E736 
 433      68C49D73 
 433      30DB6A25 
 433      496B569D 
 434 09b3 4DB62F87 		.ascii	"M\266/\207\212\004GI\366\302\330\262\231\202\265(.\310"
 434      8A044749 
 434      F6C2D8B2 
 434      9982B528 
 434      2EC8
 435 09c5 9DCF2840 		.ascii	"\235\317(@n\340\027\201\2350\222\250\020\254,\216\310"
 435      6EE01781 
 435      9D3092A8 
 435      10AC2C8E 
 435      C8
 436 09d6 58948CD6 		.ascii	"X\224\214\326\214\302\245VaS~.#\301\342ptt\034\246\333"
 436      8CC2A556 
 436      61537E2E 
 436      23C1E270 
 436      74741CA6 
 437 09eb 85C174DA 		.ascii	"\205\301t\332*Y?Z\262A\260\213\203\251\322\352\331\305"
 437      2A593F5A 
 437      B241B08B 
 437      83A9D2EA 
 437      D9C5
 438 09fd B13DABB3 		.ascii	"\261=\253\263\261-\223E\367\274}t\317\331-\204h*\371"
 438      B12D9345 
 438      F7BC7D74 
 438      CFD92D84 
 438      682AF9
 439 0a10 1DC841E6 		.ascii	"\035\310A\346\221\263\222\234%\037\245%\263\271\325"
 439      91B3929C 
 439      251FA525 
 439      B3B9D5
 440 0a1f 72E65C2D 		.ascii	"r\346\\-\306\200\321\27546]\036\335-<\303\327\261\252"
ARM GAS  C:\Users\victo\AppData\Local\Temp\ccmPfoG4.s 			page 35


 440      C680D1BD 
 440      34365D1E 
 440      DD2D3CC3 
 440      D7B1AA
 441 0a32 7F2F08EC 		.ascii	"\177/\010\354\203\266\037.\035\234\301.\305\373p\030"
 441      83B61F2E 
 441      1D9CC12E 
 441      C5FB7018 
 442 0a42 5C11A691 		.ascii	"\\\021\246\221\353\320\256A\273\012\3552\264\333\320"
 442      EBD0AE41 
 442      BB0AED32 
 442      B4DBD0
 443 0a51 EE41BB05 		.ascii	"\356A\273\005\255\021\332/\320nB\273\001\355\2160\315"
 443      AD11DA2F 
 443      D06E42BB 
 443      01ED8E30 
 443      CD
 444 0a62 F60D552A 		.ascii	"\366\015U*s\360\347\261\034\264}\321\344\345\262/\032"
 444      73F0E7B1 
 444      1CB47DD1 
 444      E4E5B22F 
 444      1A
 445 0a73 1018E38E 		.ascii	"\020\030\343\216\317z}\020N5\017\224\253\203\317\216"
 445      CF7A7D10 
 445      4E350F94 
 445      AB83CF8E 
 446 0a83 2650936B 		.ascii	"&P\223k;\321\330$|\306q\210<\000?\376/|b\305\346U\361"
 446      3BD1D824 
 446      7CC67188 
 446      3C003FFE 
 446      2F7C62C5 
 447 0a9a 8D8BFCDA 		.ascii	"\215\213\374\332o\222EWA\232\255\327\376\365\352.\025"
 447      6F924557 
 447      419AADD7 
 447      FEF5EA2E 
 447      15
 448 0aab DEFACDD6 		.ascii	"\336\372\315\326[\277e\340\\\2730\376\255\377\020o\375"
 448      5BBF65E0 
 448      5CBB30FE 
 448      ADFF106F 
 448      FD
 449 0abc 16CBAD5F 		.ascii	"\026\313\255_\267?\257\334\221\326\361\315\376\270\265"
 449      B73FAFDC 
 449      91D6F1CD 
 449      FEB8B5
 450 0acb F79993E5 		.ascii	"\367\231\223\345\326\037r\223\337\3720\215\264\312n"
 450      D61F7293 
 450      DFFA308D 
 450      B4CA6E
 451 0ada FD56CBAD 		.ascii	"\375V\313\255\337\206\267~\326\206\241!%\022a\177L\342"
 451      DF86B77E 
 451      D686A121 
 451      2512617F 
 451      4CE2
 452 0aec 44F61417 		.ascii	"D\366\024\027_u\030\237\310c$\362\310B\244t[K\234\222"
 452      5F75189F 
 452      C86324F2 
ARM GAS  C:\Users\victo\AppData\Local\Temp\ccmPfoG4.s 			page 36


 452      C842A474 
 452      5B4B9C92 
 453 0b00 DEE344F6 		.ascii	"\336\343D\366$\233\342\334\361\363\313t;\327\361\240"
 453      249BE2DC 
 453      F1F3CB74 
 453      3BD7F1A0 
 454 0b10 586536FF 		.ascii	"Xe6\377\211M Od\024\236X(<E\012\331/3Sx,X\036p\012E"
 454      894D204F 
 454      64149E58 
 454      283C450A 
 454      D92F3353 
 455 0b2b F70E9FD4 		.ascii	"\367\016\237\324\310)\260l\265Q\370\025)<\263P\270\333"
 455      C829B06C 
 455      B551F815 
 455      293CB350 
 455      B8DB
 456 0b3d 537AC299 		.ascii	"Sz\302\231\016r\012m\303\31779#\205\226CE+3DS\254\010"
 456      0E720A6D 
 456      C3CF3739 
 456      23859643 
 456      452B3344 
 457 0b54 DF690427 		.ascii	"\337i\004'\221v\031\215v\013\215\016\244\2619\373\220"
 457      9176198D 
 457      760B8D0E 
 457      A4B139FB 
 457      90
 458 0b65 49401ACC 		.ascii	"I@\032\314\026\247Q5\362\354\265\312Z\234u\362\242v"
 458      16A75135 
 458      F2ECB5CA 
 458      5A9C75F2 
 458      A276
 459 0b77 EBFA8401 		.ascii	"\353\372\204\001\265\234\233\375%\365\034\271uY\270"
 459      B59C9BFD 
 459      25F51CB9 
 459      7559B8
 460 0b86 1576FC1A 		.ascii	"\025v\374\032\007\265\220\232\037\312{\333\333\035\330"
 460      07B5909A 
 460      1FCA7BDB 
 460      DB1DD8
 461 0b95 3A89DD97 		.ascii	":\211\335\227\356<\362\3148&\326X\326\011\246\221\027"
 461      EE3CF2CC 
 461      3826D658 
 461      D609A691 
 461      17
 462 0ba6 32762F2C 		.ascii	"2v/,\354\272\221\335\371m\271\015vk\302\226\313f\264"
 462      ECBA91DD 
 462      F96DB90D 
 462      766BC296 
 462      CB66B4
 463 0bb9 47907F11 		.ascii	"G\220\177\021\267\227\025\235s\242\345\334fU\342\365"
 463      B797159D 
 463      73A2E5DC 
 463      6655E2F5 
 464 0bc9 57DC6663 		.ascii	"W\334fcS[\255\306\304\027\005\247\220\2272\203/-\006"
 464      535BADC6 
 464      C41705A7 
 464      90973283 
ARM GAS  C:\Users\victo\AppData\Local\Temp\ccmPfoG4.s 			page 37


 464      2F2D06
 465 0bdc 7BD1E0D6 		.ascii	"{\321\340\326\324\212*%\275\302u\014\345\327^v\375h"
 465      D48A2A25 
 465      BDC2750C 
 465      E5D75E76 
 465      FD68
 466 0bee AF683241 		.ascii	"\257h2A~U\374\313\31381\331$v\233\377\364[\3740\357"
 466      7E55FCCB 
 466      CB3831D9 
 466      24769BFF 
 466      F45BFC30 
 467 0c03 E35AAC7F 		.ascii	"\343Z\254\177Q\350\343\232H\277\360\021+\214\037\235"
 467      51E8E39A 
 467      48BFF011 
 467      2B8C1F9D 
 468 0c13 FE923EE0 		.ascii	"\376\222>\340zL\203\371\027\331\367!$}\325\010~\237"
 468      7A4C83F9 
 468      17D9F721 
 468      247DD508 
 468      7E9F
 469 0c25 A6743D3B 		.ascii	"\246t=;\251f\232\367\265\344\305\327k\304\013\260\207"
 469      A9669AF7 
 469      B5E4C5D7 
 469      6BC40BB0 
 469      87
 470 0c36 CDE6DFE2 		.ascii	"\315\346\337\342\266\030\220\364\332\366\317\000\323"
 470      B61890F4 
 470      DAF6CF00 
 470      D3
 471 0c43 4C06D949 		.ascii	"L\006\331I5\204\312/f\325\276V\321\036\256\375E\331"
 471      3584CA2F 
 471      66D5BE56 
 471      D11EAEFD 
 471      45D9
 472 0c55 CDAF24E5 		.ascii	"\315\257$\345fT\336\331\222\177I\211\312M\273s\034\345"
 472      6654DED9 
 472      927F4989 
 472      CA4DBB73 
 472      1CE5
 473 0c67 AA5FBDA3 		.ascii	"\252_\275\243\372\025\252~\315T\017\243\352\227\353"
 473      FA15AA7E 
 473      CD540FA3 
 473      EA97EB
 474 0c76 CABA94AC 		.ascii	"\312\272\224\254(\210\377\337VA}\261\375\003n4\301\005"
 474      2888FFDF 
 474      56417DB1 
 474      FD036E34 
 474      C105
 475 0c88 C9FC54D6 		.ascii	"\311\374T\326\332\306\276\007\336\010\3529X\220\244"
 475      DAC6BE07 
 475      DE08EA39 
 475      5890A4
 476 0c97 97FCC2B8 		.ascii	"\227\374\302\270\254\313i\311<\233\242\021\017Jl`\234"
 476      ACCB69C9 
 476      3C9BA211 
 476      0F4A6C60 
 476      9C
ARM GAS  C:\Users\victo\AppData\Local\Temp\ccmPfoG4.s 			page 38


 477 0ca8 8C486C6C 		.ascii	"\214Hll\3539\202l\33626f\356hOs\261\335\301\302\002"
 477      EB39826C 
 477      DE323666 
 477      EE684F73 
 477      B1DDC1C2 
 478 0cbd 6F632F52 		.ascii	"oc/R<X\330/\373[\342\026\3614%j/\257D)_\344\354\341"
 478      3C58D82F 
 478      FB5BE216 
 478      F134256A 
 478      2FAF4429 
 479 0cd5 EB98B282 		.ascii	"\353\230\262\202&\216\302\2470\345\177\327\254J\334"
 479      268EC2A7 
 479      30E57FD7 
 479      AC4ADC
 480 0ce4 F2F607E9 		.ascii	"\362\366\007\351\003\355G'\024\300?C\262\314d\035\366"
 480      03ED4727 
 480      14C03F43 
 480      B2CC641D 
 480      F6
 481 0cf5 0F9068BC 		.ascii	"\017\220h\274<\360\234\312I\260\244\265\221X'\221X\307"
 481      3CF09CCA 
 481      49B0A4B5 
 481      91582791 
 481      58C7
 482 0d07 4890D417 		.ascii	"H\220\324\027\247\032\355\276\200z\354\204\023$\341"
 482      A71AEDBE 
 482      807AEC84 
 482      1324E1
 483 0d16 0414DE9E 		.ascii	"\004\024\336\236&\376\223\\\226\255\221Mv\275$\273\036"
 483      26FE935C 
 483      96AD914D 
 483      76BD24BB 
 483      1E
 484 0d27 65EF15F5 		.ascii	"e\357\025\365\237u\223\013g\333)\336 \011o@\341\343"
 484      9F75930B 
 484      67DB29DE 
 484      20096F40 
 484      E1E3
 485 0d39 BDA9356A 		.ascii	"\275\2515j\271\360C;\341DI8\021\205{{\343\266\012S\367"
 485      B9F0433B 
 485      E1444938 
 485      11857B7B 
 485      E3B60A53 
 486 0d4e B0FF87A8 		.ascii	"\260\377\207\250\372\214,\361\304\023\212o\212\215t"
 486      FA8C2CF1 
 486      C4138A6F 
 486      8A8D74
 487 0d5d 2AFBC3CB 		.ascii	"*\373\303\313\323\224\012\212\002-\311\007\234\022\210"
 487      D3940A8A 
 487      022DC907 
 487      9C1288
 488 0d6c BD4C12CA 		.ascii	"\275L\022\312\364\246\327\354pG\031S\311\006\321a\224"
 488      F4A6D7EC 
 488      70471953 
 488      C906D161 
 488      94
 489 0d7d CC263A55 		.ascii	"\314&:U\341\032\2756Z\273|\2156,\"\330\2405:\316_\274"
ARM GAS  C:\Users\victo\AppData\Local\Temp\ccmPfoG4.s 			page 39


 489      E11ABD36 
 489      5ABB7C8D 
 489      362C22D8 
 489      A0353ACE 
 490 0d93 CC7BAEC2 		.ascii	"\314{\256\3023\340\233\000\355\347_k\027\371\317\363"
 490      33E09B00 
 490      EDE75F6B 
 490      17F9CFF3 
 491 0da3 D37EE6EF 		.ascii	"\323~\346\357\037\270\320\337w\236\337\322\367\345\360"
 491      1FB8D0DF 
 491      779EDFD2 
 491      F7E5F0
 492 0db2 E75F2F58 		.ascii	"\347_/X\344;\337O;{Lt\216\207\034]\260\370+\337\205"
 492      E43BDF4F 
 492      3B7B4C74 
 492      8E871C5D 
 492      B0F82BDF 
 493 0dc7 0BE679CE 		.ascii	"\013\346y\316\012\212\216\322\007\201E\243!\354o\370"
 493      0A8A8ED2 
 493      078145A3 
 493      21EC6FF8 
 494 0dd7 CFAC950A 		.ascii	"\317\254\225\012w0\037\022\266B\033m\324\031c\242\265"
 494      77301F12 
 494      B6421B6D 
 494      D41963A2 
 494      B5
 495 0de8 46A79890 		.ascii	"F\247\230\220p\343\247Z\243\263V+\275\305\022\375?\006"
 495      70E3A75A 
 495      A3B3562B 
 495      BDC512FD 
 495      3F06
 496 0dfa 454645AC 		.ascii	"EFE\254\210\322\205y/\017\0115D{O\377\376\323?~\034"
 496      88D28579 
 496      2F0F0935 
 496      447B4FFF 
 496      FED33F7E 
 497 0e0f A45F1B19 		.ascii	"\244_\033\031e\210\216\016\212\214\216\320{\353\243"
 497      65888E0E 
 497      8A8C8ED0 
 497      7BEBA3
 498 0e1e 0C3A6344 		.ascii	"\014:cDT\320'\263>\261\007B\302\"#\242\214A+\302c\202"
 498      54D027B3 
 498      3EB10742 
 498      C22223A2 
 498      8C412BC2 
 499 0e34 74516141 		.ascii	"tQaA\177;\353\037@\002\336f\206G\204\033f\032t\337\206"
 499      7F3BEB1F 
 499      4002DE66 
 499      8647841B 
 499      661A74DF 
 500 0e49 048584EB 		.ascii	"\004\205\204\353Cc\202\015Aa:\375\312\220pC\2206\330"
 500      4363820D 
 500      41613AFD 
 500      CA907043 
 500      9036D8
 501 0e5c B05C1713 		.ascii	"\260\\\027\023j\324\032\327F\032\242\201\344\352\377"
 501      6AD41AD7 
ARM GAS  C:\Users\victo\AppData\Local\Temp\ccmPfoG4.s 			page 40


 501      461AA281 
 501      E4EAFF
 502 0e6b 2F06D1C6 		.ascii	"/\006\321\306`p\032,\322\357t\241\023,+\003z\242#\302"
 502      60701A2C 
 502      D2EF74A1 
 502      132C2B03 
 502      7AA223C2 
 503 0e7f B5C6F7BE 		.ascii	"\265\306\367\276\215\2100Z\240\3251\206h\243\012\314"
 503      8D88305A 
 503      A0D53186 
 503      68A30ACC 
 504 0e8f 1BA2BE33 		.ascii	"\033\242\2763\004\273,_3[\033\022\016\263B\330\373\034"
 504      04BB2C5F 
 504      335B1B12 
 504      0EB342D8 
 504      FB1C
 505 0ea1 CBBBB345 		.ascii	"\313\273\263E`\366$\273\3703M`\306\221\207}\322\012"
 505      60F624BB 
 505      F8334D60 
 505      C691877D 
 505      D20A
 506 0eb3 83512B57 		.ascii	"\203Q+W\316\354\331M\010\302\011z\205F\257\267\255\225"
 506      CEECD94D 
 506      08C2097A 
 506      8546AFB7 
 506      AD95
 507 0ec5 DAD69934 		.ascii	"\332\326\2314w\356|m@\240o\240v\261\277v\251_\300\022"
 507      77EE7C6D 
 507      40A06FA0 
 507      76B1BF76 
 507      A95FC012 
 508 0ed9 FFC5017E 		.ascii	"\377\305\001~\023\254`\300\262\271s\375\002\002\376"
 508      13AC60C0 
 508      B2B973FD 
 508      0202FE
 509 0ee8 C20A7CBE 		.ascii	"\302\012|\276\3207\340\013\355<\337@_\255\357W\276\013"
 509      D037E00B 
 509      ED3CDF40 
 509      5FADEF57 
 509      BE0B
 510 0efa 16FA7EB6 		.ascii	"\026\372~\266\320o\242u\3643\337y\332%\276K}\027M\266"
 510      D06FA275 
 510      F433DF79 
 510      DA25BE4B 
 510      7D174DB6 
 511 0f0e 42521669 		.ascii	"BR\026i\347\372/Z\344\273x\336\207\2434-[\002\272 \003"
 511      E7FA2F5A 
 511      E4BB78DE 
 511      87A3342D 
 511      5B02BA20 
 512 0f23 4195DF3C 		.ascii	"A\225\337<\217wf}\376\365\224w0\337\245\363\227-\362"
 512      8F77667D 
 512      FEF59477 
 512      30DFA5F3 
 512      972DF2
 513 0f36 5B1CE829 		.ascii	"[\034\350)\243\316\230.Y\342\2774\320o\236\327;\023"
 513      A3CE982E 
ARM GAS  C:\Users\victo\AppData\Local\Temp\ccmPfoG4.s 			page 41


 513      59E2BF34 
 513      D06F9ED7 
 513      3B13
 514 0f48 0216CC5F 		.ascii	"\002\026\314_\354\033\270l\251\237mF\340R\337\305\001"
 514      EC1BB86C 
 514      A99F6D46 
 514      E052DFC5 
 514      01
 515 0f59 6815605B 		.ascii	"h\025`[\014\346.\232g\001m1\220\000\233\227K\375\300"
 515      0CE62E9A 
 515      67016D31 
 515      90009B97 
 515      4BFDC0
 516 0f6c 4D168289 		.ascii	"M\026\202\211v\014\030\374\215\253-\026\313\002\276"
 516      760C18FC 
 516      8DAB2D16 
 516      CB02BE
 517 0f7b B129095C 		.ascii	"\261)\011\\\260\310\317\177Y\340\250\315\204K\000\313"
 517      B0C8CF7F 
 517      59E0A8CD 
 517      844B00CB 
 518 0f8b 3905D710 		.ascii	"9\005\327\020\027^g4h\365\021\341\313CV\030u\337\206"
 518      175E6734 
 518      68F511E1 
 518      CB435618 
 518      75DF86
 519 0f9e 1AD4     		.ascii	"\032\324"
 520 0fa0 5A6DA44E 		.ascii	"Zm\244N\277\312\020\254\325\276g\331\364\006\243\016"
 520      BFCA10AC 
 520      D5BE67D9 
 520      F406A30E 
 521 0fb0 C4745A23 		.ascii	"\304tZ#$\214V\277\322\240_\025\035\023\246b\273\356"
 521      248C56BF 
 521      D2A05F15 
 521      1D13A662 
 521      BBEE
 522 0fc2 9339B0B8 		.ascii	"\2239\260\270|\003\262W\025\214\033\302\215Qkqp\366"
 522      7C03B257 
 522      158C1BC2 
 522      8D516B71 
 522      70F6
 523 0fd4 1FAD83EC 		.ascii	"\037\255\203\354\325\025m\206\352\242\215\332\250\210"
 523      D5156D86 
 523      EAA28DDA 
 523      A888
 524 0fe2 354E201A 		.ascii	"5N \032\035\362\237\006k\336\315q\327\351\215!\337\031"
 524      1DF29F06 
 524      6BDECD71 
 524      D7E98D21 
 524      DF19
 525 0ff4 787AE922 		.ascii	"xz\351\"#=,/\332\357\014Q"
 525      233D2C2F 
 525      DAEF0C51 
 526 1000 52F64C90 		.ascii	"R\366L\220c\321!\021\341.V $\330\315J\024\035S\203\005"
 526      63D12111 
 526      E12E5620 
 526      24D8CD4A 
ARM GAS  C:\Users\victo\AppData\Local\Temp\ccmPfoG4.s 			page 42


 526      141D5383 
 527 1015 494A8552 		.ascii	"IJ\205R\321\206\325\023\354\375^\276\3467\010\254\324"
 527      D186D513 
 527      ECFD5EBE 
 527      E63708AC 
 527      D4
 528 1026 8507871A 		.ascii	"\205\007\207\032\344\270V\037\026\314w\2215\343a\372"
 528      E4B8561F 
 528      16CC7791 
 528      35E361FA 
 529 1036 6FC20C61 		.ascii	"o\302\014aZ\275.T\037\023\312\304\276]\313b'\305\343"
 529      5ABD2E54 
 529      1F13CAC4 
 529      BE5DCB62 
 529      27C5E3
 530 1049 7DBB48C7 		.ascii	"}\273H\307\030CBY\240=X\014\231\212`\303w!z\003n\033"
 530      18434259 
 530      A03D580C 
 530      998A60C3 
 530      77217A03 
 531 105f D715A1B2 		.ascii	"\327\025\241\262\223\314\203\367\346\310#-a\263\345"
 531      93CC83F7 
 531      E6C8232D 
 531      61B3E5
 532 106e D844C090 		.ascii	"\330D\300\220\307\032]\010S\027\252[\373\337o4\204\302"
 532      C71A5D08 
 532      5317AA5B 
 532      FBDF6F34 
 532      84C2
 533              		.text
 534              		.section	.gnu.lto_.symtab.92f63638,"",%progbits
 535 0000 6765745F 		.ascii	"get_boot_mode_reason\000\000\000\000\000\000\000\000"
 535      626F6F74 
 535      5F6D6F64 
 535      655F7265 
 535      61736F6E 
 536 001c 00000000 		.ascii	"\000\000\000\000\342\000\000\000gl_img_status\000\000"
 536      E2000000 
 536      676C5F69 
 536      6D675F73 
 536      74617475 
 537 0033 04000100 		.ascii	"\004\000\001\000\000\000\000\000\000\000u\001\000\000"
 537      00000000 
 537      00007501 
 537      0000
 538 0041 626F6F74 		.ascii	"boot_validate_configtable\000\000\000\000\000\000\000"
 538      5F76616C 
 538      69646174 
 538      655F636F 
 538      6E666967 
 539 0061 00000000 		.ascii	"\000\000\000\000\000 \001\000\000boot_validate_fw\000"
 539      00200100 
 539      00626F6F 
 539      745F7661 
 539      6C696461 
 540 007b 00000000 		.ascii	"\000\000\000\000\000\000\000\000\000\000\000c\001\000"
 540      00000000 
ARM GAS  C:\Users\victo\AppData\Local\Temp\ccmPfoG4.s 			page 43


 540      00000063 
 540      0100
 541 0089 00676C5F 		.ascii	"\000gl_img2_fw_metadata\000\000\000\000\000\000\000"
 541      696D6732 
 541      5F66775F 
 541      6D657461 
 541      64617461 
 542 00a4 00000000 		.ascii	"\000\000\000\000\000x\001\000\000boot_handle_valida"
 542      00780100 
 542      00626F6F 
 542      745F6861 
 542      6E646C65 
 543 00bf 74655F66 		.ascii	"te_fw_cmd\000\000\000\000\000\000\000\000\000\000\000"
 543      775F636D 
 543      64000000 
 543      00000000 
 543      00000000 
 544 00d3 00670100 		.ascii	"\000g\001\000\000gl_img1_fw_metadata\000\000\000\000"
 544      00676C5F 
 544      696D6731 
 544      5F66775F 
 544      6D657461 
 545 00ef 00000000 		.ascii	"\000\000\000\000\000\000\000\000{\001\000\000boot_g"
 545      00000000 
 545      7B010000 
 545      626F6F74 
 545      5F67
 546 0101 65745F62 		.ascii	"et_boot_seq\000\000\000\000\000\000\000\000\000\000"
 546      6F6F745F 
 546      73657100 
 546      00000000 
 546      00000000 
 547 0116 00006B01 		.ascii	"\000\000k\001\000\000mem_calculate_byte_checksum\000"
 547      00006D65 
 547      6D5F6361 
 547      6C63756C 
 547      6174655F 
 548 0138 00020000 		.ascii	"\000\002\000\000\000\000\000\000\000\000\000p\001\000"
 548      00000000 
 548      00000070 
 548      0100
 549 0146 00737973 		.ascii	"\000sys_get_device_mode\000\000\002\000\000\000\000"
 549      5F676574 
 549      5F646576 
 549      6963655F 
 549      6D6F6465 
 550 0161 00000000 		.ascii	"\000\000\000\000\000s\001\000\000"
 550      00730100 
 550      00
 551              		.text
 552              		.section	.gnu.lto_.opts,"",%progbits
 553 0000 272D666E 		.ascii	"'-fno-trapv' '-mcpu=cortex-m0' '-mthumb' '-g' '-Os'"
 553      6F2D7472 
 553      61707627 
 553      20272D6D 
 553      6370753D 
 554 0033 20272D57 		.ascii	" '-Werror' '-ffunction-sections' '-finline-function"
ARM GAS  C:\Users\victo\AppData\Local\Temp\ccmPfoG4.s 			page 44


 554      6572726F 
 554      72272027 
 554      2D666675 
 554      6E637469 
 555 0066 73272027 		.ascii	"s' '-flto' '-ffat-lto-objects' '-fno-strict-aliasin"
 555      2D666C74 
 555      6F272027 
 555      2D666661 
 555      742D6C74 
 556 0099 672700   		.ascii	"g'\000"
 557              		.text
 558              		.cfi_sections	.debug_frame
 559              		.section	.text.get_boot_mode_reason,"ax",%progbits
 560              		.align	1
 561              		.global	get_boot_mode_reason
 562              		.code	16
 563              		.thumb_func
 564              		.type	get_boot_mode_reason, %function
 565              	get_boot_mode_reason:
 566              	.LFB34:
 567              		.file 1 ".\\src\\system\\boot.c"
   1:.\src\system/boot.c **** /**
   2:.\src\system/boot.c ****  * @file boot.c
   3:.\src\system/boot.c ****  *
   4:.\src\system/boot.c ****  * @brief @{Bootloader support functions.@}
   5:.\src\system/boot.c ****  *
   6:.\src\system/boot.c ****  *******************************************************************************
   7:.\src\system/boot.c ****  *
   8:.\src\system/boot.c ****  * Copyright (2014-2016), Cypress Semiconductor Corporation or a subsidiary of
   9:.\src\system/boot.c ****  * Cypress Semiconductor Corporation. All rights reserved.
  10:.\src\system/boot.c ****  *
  11:.\src\system/boot.c ****  * This software, including source code, documentation and related materials
  12:.\src\system/boot.c ****  * (Software), is owned by Cypress Semiconductor Corporation or one of its
  13:.\src\system/boot.c ****  * subsidiaries (Cypress) and is protected by and subject to worldwide patent
  14:.\src\system/boot.c ****  * protection (United States and foreign), United States copyright laws and
  15:.\src\system/boot.c ****  * international treaty provisions. Therefore, you may use this Software only
  16:.\src\system/boot.c ****  * as provided in the license agreement accompanying the software package from
  17:.\src\system/boot.c ****  * which you obtained this Software (EULA).
  18:.\src\system/boot.c ****  *
  19:.\src\system/boot.c ****  * If no EULA applies, Cypress hereby grants you a personal, nonexclusive,
  20:.\src\system/boot.c ****  * non-transferable license to copy, modify, and compile the Software source
  21:.\src\system/boot.c ****  * code solely for use in connection with Cypresss integrated circuit
  22:.\src\system/boot.c ****  * products. Any reproduction, modification, translation, compilation, or
  23:.\src\system/boot.c ****  * representation of this Software except as specified above is prohibited
  24:.\src\system/boot.c ****  * without the express written permission of Cypress. Disclaimer: THIS SOFTWARE
  25:.\src\system/boot.c ****  * IS PROVIDED AS-IS, WITH NO WARRANTY OF ANY KIND, EXPRESS OR IMPLIED,
  26:.\src\system/boot.c ****  * INCLUDING, BUT NOT LIMITED TO, NONINFRINGEMENT, IMPLIED WARRANTIES OF
  27:.\src\system/boot.c ****  * MERCHANTABILITY AND FITNESS FOR A PARTICULAR PURPOSE. Cypress reserves the
  28:.\src\system/boot.c ****  * right to make changes to the Software without notice. Cypress does not
  29:.\src\system/boot.c ****  * assume any liability arising out of the application or use of the Software
  30:.\src\system/boot.c ****  * or any product or circuit described in the Software. Cypress does not
  31:.\src\system/boot.c ****  * authorize its products for use in any products where a malfunction or
  32:.\src\system/boot.c ****  * failure of the Cypress product may reasonably be expected to result in
  33:.\src\system/boot.c ****  * significant property damage, injury or death (High Risk Product). By
  34:.\src\system/boot.c ****  * including Cypresss product in a High Risk Product, the manufacturer of such
  35:.\src\system/boot.c ****  * system or application assumes all risk of such use and in doing so agrees to
  36:.\src\system/boot.c ****  * indemnify Cypress against all liability.
ARM GAS  C:\Users\victo\AppData\Local\Temp\ccmPfoG4.s 			page 45


  37:.\src\system/boot.c ****  */
  38:.\src\system/boot.c **** 
  39:.\src\system/boot.c **** #include <stdbool.h>
  40:.\src\system/boot.c **** #include <config.h>
  41:.\src\system/boot.c **** #include <flash_config.h>
  42:.\src\system/boot.c **** #include <app_version.h>
  43:.\src\system/boot.c **** #include <utils.h>
  44:.\src\system/boot.c **** #include <status.h>
  45:.\src\system/boot.c **** #include <system.h>
  46:.\src\system/boot.c **** #include <flash.h>
  47:.\src\system/boot.c **** #include <boot.h>
  48:.\src\system/boot.c **** 
  49:.\src\system/boot.c **** #if (SECURE_FW_UPDATE == 1)
  50:.\src\system/boot.c **** #include <secure_boot.h>
  51:.\src\system/boot.c **** #include <crypto_hal.h>
  52:.\src\system/boot.c **** #endif /* SECURE_FW_UPDATE */
  53:.\src\system/boot.c **** 
  54:.\src\system/boot.c **** /* Structure to hold reason for boot mode. */
  55:.\src\system/boot.c **** fw_img_status_t gl_img_status;
  56:.\src\system/boot.c **** 
  57:.\src\system/boot.c **** #if CCG_DUALAPP_DISABLE
  58:.\src\system/boot.c **** /* If Dual-App bootloading is disabled, provide stub variable to keep the compiler happy. */
  59:.\src\system/boot.c **** volatile uint8_t Bootloader_1_activeApp = 0;
  60:.\src\system/boot.c **** #endif
  61:.\src\system/boot.c **** 
  62:.\src\system/boot.c **** #if (CCG_PSEUDO_METADATA_DISABLE == 0)
  63:.\src\system/boot.c **** 
  64:.\src\system/boot.c **** /* Pointer to Image-1 FW pseudo-metadata table. */
  65:.\src\system/boot.c **** sys_fw_metadata_t *gl_img1_fw_pseudo_metadata;
  66:.\src\system/boot.c **** 
  67:.\src\system/boot.c **** /* Pointer to Image-2 FW pseudo-metadata table. */
  68:.\src\system/boot.c **** sys_fw_metadata_t *gl_img2_fw_pseudo_metadata =
  69:.\src\system/boot.c ****     (sys_fw_metadata_t *)(CCG_IMG2_FW_PSEUDO_METADATA_ADDR);
  70:.\src\system/boot.c **** 
  71:.\src\system/boot.c **** #endif /* CCG_PSEUDO_METADATA_DISABLE */
  72:.\src\system/boot.c **** 
  73:.\src\system/boot.c **** /* Boot-wait duration specified by firmware metadata. */
  74:.\src\system/boot.c **** static volatile uint16_t gl_boot_wait_delay = CCG_BL_WAIT_DEFAULT;
  75:.\src\system/boot.c **** 
  76:.\src\system/boot.c **** /* Pointer to Image-1 FW metadata table. */
  77:.\src\system/boot.c **** sys_fw_metadata_t *gl_img1_fw_metadata = 
  78:.\src\system/boot.c ****         (sys_fw_metadata_t *)(CCG_IMG1_FW_METADATA_ADDR);
  79:.\src\system/boot.c **** 
  80:.\src\system/boot.c **** /* Pointer to Image-2 FW metadata table. */
  81:.\src\system/boot.c **** sys_fw_metadata_t *gl_img2_fw_metadata = 
  82:.\src\system/boot.c ****         (sys_fw_metadata_t *)(CCG_IMG2_FW_METADATA_ADDR);
  83:.\src\system/boot.c **** 
  84:.\src\system/boot.c **** fw_img_status_t get_boot_mode_reason(void)
  85:.\src\system/boot.c **** {
 568              		.loc 1 85 0
 569              		.cfi_startproc
  86:.\src\system/boot.c ****     /* Return the reason for boot mode. */
  87:.\src\system/boot.c ****     return gl_img_status;
 570              		.loc 1 87 0
 571 0000 014B     		ldr	r3, .L2
  88:.\src\system/boot.c **** }
 572              		.loc 1 88 0
ARM GAS  C:\Users\victo\AppData\Local\Temp\ccmPfoG4.s 			page 46


 573              		@ sp needed
  87:.\src\system/boot.c **** }
 574              		.loc 1 87 0
 575 0002 1878     		ldrb	r0, [r3]
 576              		.loc 1 88 0
 577 0004 7047     		bx	lr
 578              	.L3:
 579 0006 C046     		.align	2
 580              	.L2:
 581 0008 00000000 		.word	gl_img_status
 582              		.cfi_endproc
 583              	.LFE34:
 584              		.size	get_boot_mode_reason, .-get_boot_mode_reason
 585              		.section	.text.boot_validate_configtable,"ax",%progbits
 586              		.align	1
 587              		.global	boot_validate_configtable
 588              		.code	16
 589              		.thumb_func
 590              		.type	boot_validate_configtable, %function
 591              	boot_validate_configtable:
 592              	.LFB35:
  89:.\src\system/boot.c **** 
  90:.\src\system/boot.c **** /* Check whether configuration table checksum is good. */
  91:.\src\system/boot.c **** ccg_status_t boot_validate_configtable(uint8_t *table_p)
  92:.\src\system/boot.c **** {
 593              		.loc 1 92 0
 594              		.cfi_startproc
 595              	.LVL0:
 596 0000 10B5     		push	{r4, lr}
 597              		.cfi_def_cfa_offset 8
 598              		.cfi_offset 4, -8
 599              		.cfi_offset 14, -4
  93:.\src\system/boot.c ****     uint16_t size = MAKE_WORD (table_p[CONFIGTABLE_SIZE_OFFSET + 1], table_p[CONFIGTABLE_SIZE_OFFSE
  94:.\src\system/boot.c **** 
  95:.\src\system/boot.c ****     if (((uint32_t)table_p >= CCG_FLASH_SIZE) ||
 600              		.loc 1 95 0
 601 0002 0D4A     		ldr	r2, .L9
  93:.\src\system/boot.c ****     uint16_t size = MAKE_WORD (table_p[CONFIGTABLE_SIZE_OFFSET + 1], table_p[CONFIGTABLE_SIZE_OFFSE
 602              		.loc 1 93 0
 603 0004 C179     		ldrb	r1, [r0, #7]
 604 0006 8379     		ldrb	r3, [r0, #6]
 605              	.LVL1:
 606              		.loc 1 95 0
 607 0008 9042     		cmp	r0, r2
 608 000a 01D9     		bls	.L5
 609              	.LVL2:
 610              	.L7:
  96:.\src\system/boot.c ****             (MAKE_WORD (table_p[1], table_p[0]) != CONFIGTABLE_SIGNATURE))
  97:.\src\system/boot.c ****     {
  98:.\src\system/boot.c ****         return CCG_STAT_INVALID_FW;
 611              		.loc 1 98 0
 612 000c 0620     		mov	r0, #6
 613 000e 10E0     		b	.L6
 614              	.LVL3:
 615              	.L5:
  96:.\src\system/boot.c ****             (MAKE_WORD (table_p[1], table_p[0]) != CONFIGTABLE_SIGNATURE))
 616              		.loc 1 96 0 discriminator 1
ARM GAS  C:\Users\victo\AppData\Local\Temp\ccmPfoG4.s 			page 47


 617 0010 4278     		ldrb	r2, [r0, #1]
 618 0012 0478     		ldrb	r4, [r0]
 619 0014 1202     		lsl	r2, r2, #8
 620 0016 2243     		orr	r2, r4
  95:.\src\system/boot.c ****             (MAKE_WORD (table_p[1], table_p[0]) != CONFIGTABLE_SIGNATURE))
 621              		.loc 1 95 0 discriminator 1
 622 0018 084C     		ldr	r4, .L9+4
 623 001a A242     		cmp	r2, r4
 624 001c F6D1     		bne	.L7
  93:.\src\system/boot.c ****     uint16_t size = MAKE_WORD (table_p[CONFIGTABLE_SIZE_OFFSET + 1], table_p[CONFIGTABLE_SIZE_OFFSE
 625              		.loc 1 93 0
 626 001e 0902     		lsl	r1, r1, #8
 627              	.LVL4:
  99:.\src\system/boot.c ****     }
 100:.\src\system/boot.c **** 
 101:.\src\system/boot.c ****     if (table_p[CONFIGTABLE_CHECKSUM_OFFSET] != mem_calculate_byte_checksum (
 102:.\src\system/boot.c ****                 table_p + CONFIGTABLE_CHECKSUM_START, size - CONFIGTABLE_CHECKSUM_START))
 628              		.loc 1 102 0
 629 0020 1943     		orr	r1, r3
 101:.\src\system/boot.c ****                 table_p + CONFIGTABLE_CHECKSUM_START, size - CONFIGTABLE_CHECKSUM_START))
 630              		.loc 1 101 0
 631 0022 047A     		ldrb	r4, [r0, #8]
 632              		.loc 1 102 0
 633 0024 0A39     		sub	r1, r1, #10
 101:.\src\system/boot.c ****                 table_p + CONFIGTABLE_CHECKSUM_START, size - CONFIGTABLE_CHECKSUM_START))
 634              		.loc 1 101 0
 635 0026 0A30     		add	r0, r0, #10
 636              	.LVL5:
 637 0028 FFF7FEFF 		bl	mem_calculate_byte_checksum
 638              	.LVL6:
 639 002c 8442     		cmp	r4, r0
 640 002e EDD1     		bne	.L7
 103:.\src\system/boot.c ****     {
 104:.\src\system/boot.c ****         return CCG_STAT_INVALID_FW;
 105:.\src\system/boot.c ****     }
 106:.\src\system/boot.c **** 
 107:.\src\system/boot.c ****     return CCG_STAT_SUCCESS;
 641              		.loc 1 107 0
 642 0030 0020     		mov	r0, #0
 643              	.L6:
 644 0032 40B2     		sxtb	r0, r0
 108:.\src\system/boot.c **** }
 645              		.loc 1 108 0
 646              		@ sp needed
 647 0034 10BD     		pop	{r4, pc}
 648              	.L10:
 649 0036 C046     		.align	2
 650              	.L9:
 651 0038 FFFF0100 		.word	131071
 652 003c 59430000 		.word	17241
 653              		.cfi_endproc
 654              	.LFE35:
 655              		.size	boot_validate_configtable, .-boot_validate_configtable
 656              		.section	.text.boot_validate_fw,"ax",%progbits
 657              		.align	1
 658              		.global	boot_validate_fw
 659              		.code	16
ARM GAS  C:\Users\victo\AppData\Local\Temp\ccmPfoG4.s 			page 48


 660              		.thumb_func
 661              		.type	boot_validate_fw, %function
 662              	boot_validate_fw:
 663              	.LFB36:
 109:.\src\system/boot.c **** 
 110:.\src\system/boot.c **** ccg_status_t boot_validate_fw(sys_fw_metadata_t *fw_metadata)
 111:.\src\system/boot.c **** {
 664              		.loc 1 111 0
 665              		.cfi_startproc
 666              	.LVL7:
 667 0000 F8B5     		push	{r3, r4, r5, r6, r7, lr}
 668              		.cfi_def_cfa_offset 24
 669              		.cfi_offset 3, -24
 670              		.cfi_offset 4, -20
 671              		.cfi_offset 5, -16
 672              		.cfi_offset 6, -12
 673              		.cfi_offset 7, -8
 674              		.cfi_offset 14, -4
 112:.\src\system/boot.c ****     ccg_status_t status = CCG_STAT_SUCCESS;
 113:.\src\system/boot.c ****     /* Pointer to FW image start address. */
 114:.\src\system/boot.c ****     uint32_t fw_start = 0;
 115:.\src\system/boot.c ****     /* Size of FW image. */
 116:.\src\system/boot.c ****     uint32_t fw_size = 0;
 117:.\src\system/boot.c ****    
 118:.\src\system/boot.c ****     fw_start = ((fw_metadata->boot_last_row << CCG_FLASH_ROW_SHIFT_NUM)
 675              		.loc 1 118 0
 676 0002 8679     		ldrb	r6, [r0, #6]
 677 0004 4379     		ldrb	r3, [r0, #5]
 678 0006 3602     		lsl	r6, r6, #8
 679 0008 1E43     		orr	r6, r3
 119:.\src\system/boot.c ****             + CCG_FLASH_ROW_SIZE);
 120:.\src\system/boot.c ****     fw_size = fw_metadata->fw_size;
 680              		.loc 1 120 0
 681 000a 837A     		ldrb	r3, [r0, #10]
 682 000c 417A     		ldrb	r1, [r0, #9]
 683 000e C57A     		ldrb	r5, [r0, #11]
 684 0010 1B02     		lsl	r3, r3, #8
 685 0012 0B43     		orr	r3, r1
 686 0014 2D04     		lsl	r5, r5, #16
 687 0016 1A1C     		mov	r2, r3
 688 0018 2B1C     		mov	r3, r5
 689 001a 057B     		ldrb	r5, [r0, #12]
 118:.\src\system/boot.c ****             + CCG_FLASH_ROW_SIZE);
 690              		.loc 1 118 0
 691 001c 3602     		lsl	r6, r6, #8
 692 001e 771C     		add	r7, r6, #1
 693              		.loc 1 120 0
 694 0020 1343     		orr	r3, r2
 695 0022 2D06     		lsl	r5, r5, #24
 111:.\src\system/boot.c ****     ccg_status_t status = CCG_STAT_SUCCESS;
 696              		.loc 1 111 0
 697 0024 041C     		mov	r4, r0
 118:.\src\system/boot.c ****             + CCG_FLASH_ROW_SIZE);
 698              		.loc 1 118 0
 699 0026 FF37     		add	r7, r7, #255
 700              	.LVL8:
 701              		.loc 1 120 0
ARM GAS  C:\Users\victo\AppData\Local\Temp\ccmPfoG4.s 			page 49


 702 0028 1D43     		orr	r5, r3
 703              	.LVL9:
 121:.\src\system/boot.c ****     
 122:.\src\system/boot.c **** #if (CCG_BOOT == 0)
 123:.\src\system/boot.c ****     /*
 124:.\src\system/boot.c ****      * If FW APP is using this function to validate Alternate APP, then FW should
 125:.\src\system/boot.c ****      * ensure that Start Address of Alternate image is located in the flash region
 126:.\src\system/boot.c ****      * assigned to the alternate image. This takes care of scenario where APP x image
 127:.\src\system/boot.c ****      * is updated in Altenrate APP Flash region.
 128:.\src\system/boot.c ****      */
 129:.\src\system/boot.c ****     if (sys_get_device_mode () == SYS_FW_MODE_FWIMAGE_1)
 704              		.loc 1 129 0
 705 002a FFF7FEFF 		bl	sys_get_device_mode
 706              	.LVL10:
 707 002e 0128     		cmp	r0, #1
 708 0030 10D1     		bne	.L12
 130:.\src\system/boot.c ****     {
 131:.\src\system/boot.c ****         /* Ensure fw_start of APP2 is located beyond the last row of FW APP 1. */
 132:.\src\system/boot.c ****         if (fw_start < ((CCG_IMG1_LAST_FLASH_ROW_NUM + 1u) << CCG_FLASH_ROW_SHIFT_NUM))
 709              		.loc 1 132 0
 710 0032 1A4B     		ldr	r3, .L20
 711 0034 9F42     		cmp	r7, r3
 712 0036 0BD9     		bls	.L13
 713              	.L16:
 133:.\src\system/boot.c ****         {
 134:.\src\system/boot.c ****             /* Invalid image. */
 135:.\src\system/boot.c ****             return CCG_STAT_INVALID_FW;
 136:.\src\system/boot.c ****         }
 137:.\src\system/boot.c ****     }
 138:.\src\system/boot.c ****     else if (sys_get_device_mode () == SYS_FW_MODE_FWIMAGE_2)
 139:.\src\system/boot.c ****     {
 140:.\src\system/boot.c ****         /* Ensure fw_start of APP1 is located before last boot row of APP2. */
 141:.\src\system/boot.c ****         if (fw_start >= ((gl_img2_fw_metadata->boot_last_row + 1u) << CCG_FLASH_ROW_SHIFT_NUM))
 142:.\src\system/boot.c ****         {
 143:.\src\system/boot.c ****              /* Invalid image. */
 144:.\src\system/boot.c ****             return CCG_STAT_INVALID_FW;
 145:.\src\system/boot.c ****         }
 146:.\src\system/boot.c ****     }
 147:.\src\system/boot.c **** #endif /* CCG_BOOT */
 148:.\src\system/boot.c **** 
 149:.\src\system/boot.c ****     /*
 150:.\src\system/boot.c ****      * Validate:
 151:.\src\system/boot.c ****      * 1) FW size.
 152:.\src\system/boot.c ****      * 2) FW checksum.
 153:.\src\system/boot.c ****      */
 154:.\src\system/boot.c ****     if ((fw_metadata->fw_entry == 0) || (fw_size == 0) ||
 714              		.loc 1 154 0
 715 0038 A278     		ldrb	r2, [r4, #2]
 716 003a 6078     		ldrb	r0, [r4, #1]
 717 003c E378     		ldrb	r3, [r4, #3]
 718 003e 1202     		lsl	r2, r2, #8
 719 0040 0243     		orr	r2, r0
 720 0042 1B04     		lsl	r3, r3, #16
 721 0044 1343     		orr	r3, r2
 722 0046 1A1C     		mov	r2, r3
 723 0048 2379     		ldrb	r3, [r4, #4]
 724 004a 1B06     		lsl	r3, r3, #24
ARM GAS  C:\Users\victo\AppData\Local\Temp\ccmPfoG4.s 			page 50


 725 004c 1343     		orr	r3, r2
 726 004e 10D1     		bne	.L14
 727              	.LVL11:
 728              	.L13:
 135:.\src\system/boot.c ****         }
 729              		.loc 1 135 0
 730 0050 0620     		mov	r0, #6
 731 0052 20E0     		b	.L15
 732              	.LVL12:
 733              	.L12:
 138:.\src\system/boot.c ****     {
 734              		.loc 1 138 0
 735 0054 FFF7FEFF 		bl	sys_get_device_mode
 736              	.LVL13:
 737 0058 0228     		cmp	r0, #2
 738 005a EDD1     		bne	.L16
 141:.\src\system/boot.c ****         {
 739              		.loc 1 141 0
 740 005c 104B     		ldr	r3, .L20+4
 741 005e 1B68     		ldr	r3, [r3]
 742 0060 5A79     		ldrb	r2, [r3, #5]
 743 0062 9B79     		ldrb	r3, [r3, #6]
 744 0064 1B02     		lsl	r3, r3, #8
 745 0066 1343     		orr	r3, r2
 746 0068 0133     		add	r3, r3, #1
 747 006a 1B02     		lsl	r3, r3, #8
 748 006c 9F42     		cmp	r7, r3
 749 006e EFD2     		bcs	.L13
 750 0070 E2E7     		b	.L16
 751              	.L14:
 752              		.loc 1 154 0 discriminator 1
 753 0072 002D     		cmp	r5, #0
 754 0074 ECD0     		beq	.L13
 755              		.loc 1 154 0 is_stmt 0 discriminator 2
 756 0076 0B4B     		ldr	r3, .L20+8
 155:.\src\system/boot.c ****             (((uint32_t)fw_start + fw_size) >= CCG_FLASH_SIZE) ||
 757              		.loc 1 155 0 is_stmt 1 discriminator 2
 758 0078 7A19     		add	r2, r7, r5
 154:.\src\system/boot.c ****             (((uint32_t)fw_start + fw_size) >= CCG_FLASH_SIZE) ||
 759              		.loc 1 154 0 discriminator 2
 760 007a 9A42     		cmp	r2, r3
 761 007c E8D8     		bhi	.L13
 156:.\src\system/boot.c ****             (fw_metadata->fw_checksum != mem_calculate_byte_checksum ((uint8_t *)fw_start, fw_size)
 762              		.loc 1 156 0
 763 007e 381C     		mov	r0, r7
 764 0080 291C     		mov	r1, r5
 765 0082 2478     		ldrb	r4, [r4]
 766              	.LVL14:
 767 0084 FFF7FEFF 		bl	mem_calculate_byte_checksum
 768              	.LVL15:
 155:.\src\system/boot.c ****             (((uint32_t)fw_start + fw_size) >= CCG_FLASH_SIZE) ||
 769              		.loc 1 155 0
 770 0088 8442     		cmp	r4, r0
 771 008a E1D1     		bne	.L13
 157:.\src\system/boot.c ****     {
 158:.\src\system/boot.c ****         status = CCG_STAT_INVALID_FW;
 159:.\src\system/boot.c ****     }
ARM GAS  C:\Users\victo\AppData\Local\Temp\ccmPfoG4.s 			page 51


 160:.\src\system/boot.c ****     else
 161:.\src\system/boot.c ****     {
 162:.\src\system/boot.c ****         status = boot_validate_configtable ((uint8_t *)(fw_start + CCG_FW_CONFTABLE_OFFSET));
 772              		.loc 1 162 0
 773 008c 8023     		mov	r3, #128
 774 008e 9B00     		lsl	r3, r3, #2
 775 0090 F018     		add	r0, r6, r3
 776 0092 FFF7FEFF 		bl	boot_validate_configtable
 777              	.LVL16:
 778              	.L15:
 779 0096 40B2     		sxtb	r0, r0
 163:.\src\system/boot.c ****     }
 164:.\src\system/boot.c **** 
 165:.\src\system/boot.c ****     return status;
 166:.\src\system/boot.c **** }
 780              		.loc 1 166 0
 781              		@ sp needed
 782              	.LVL17:
 783              	.LVL18:
 784 0098 F8BD     		pop	{r3, r4, r5, r6, r7, pc}
 785              	.L21:
 786 009a C046     		.align	2
 787              	.L20:
 788 009c FFFF0000 		.word	65535
 789 00a0 00000000 		.word	.LANCHOR0
 790 00a4 FFFF0100 		.word	131071
 791              		.cfi_endproc
 792              	.LFE36:
 793              		.size	boot_validate_fw, .-boot_validate_fw
 794              		.section	.text.boot_handle_validate_fw_cmd,"ax",%progbits
 795              		.align	1
 796              		.global	boot_handle_validate_fw_cmd
 797              		.code	16
 798              		.thumb_func
 799              		.type	boot_handle_validate_fw_cmd, %function
 800              	boot_handle_validate_fw_cmd:
 801              	.LFB37:
 167:.\src\system/boot.c **** 
 168:.\src\system/boot.c **** ccg_status_t boot_handle_validate_fw_cmd(sys_fw_mode_t fw_mode)
 169:.\src\system/boot.c **** {
 802              		.loc 1 169 0
 803              		.cfi_startproc
 804              	.LVL19:
 805 0000 10B5     		push	{r4, lr}
 806              		.cfi_def_cfa_offset 8
 807              		.cfi_offset 4, -8
 808              		.cfi_offset 14, -4
 809              		.loc 1 169 0
 810 0002 041C     		mov	r4, r0
 170:.\src\system/boot.c ****     sys_fw_metadata_t *md_p = NULL;
 171:.\src\system/boot.c ****     ccg_status_t code = CCG_STAT_NO_RESPONSE;
 172:.\src\system/boot.c **** 
 173:.\src\system/boot.c **** #ifdef CCG_BOOT
 174:.\src\system/boot.c ****     switch (fw_mode)
 175:.\src\system/boot.c ****     {
 176:.\src\system/boot.c ****         case SYS_FW_MODE_FWIMAGE_1:
 177:.\src\system/boot.c ****             md_p = gl_img1_fw_metadata;
ARM GAS  C:\Users\victo\AppData\Local\Temp\ccmPfoG4.s 			page 52


 178:.\src\system/boot.c ****             break;
 179:.\src\system/boot.c ****         case SYS_FW_MODE_FWIMAGE_2:
 180:.\src\system/boot.c ****             md_p = gl_img2_fw_metadata;
 181:.\src\system/boot.c ****             break;
 182:.\src\system/boot.c ****         default:
 183:.\src\system/boot.c ****             code = CCG_STAT_INVALID_ARGUMENT;
 184:.\src\system/boot.c ****             break;
 185:.\src\system/boot.c ****     }
 186:.\src\system/boot.c **** #else
 187:.\src\system/boot.c ****     if (fw_mode == sys_get_device_mode ())
 811              		.loc 1 187 0
 812 0004 FFF7FEFF 		bl	sys_get_device_mode
 813              	.LVL20:
 188:.\src\system/boot.c ****     {
 189:.\src\system/boot.c ****         /* There is no need to validate the currently running image. */
 190:.\src\system/boot.c ****         code = CCG_STAT_SUCCESS;
 814              		.loc 1 190 0
 815 0008 0023     		mov	r3, #0
 187:.\src\system/boot.c ****     {
 816              		.loc 1 187 0
 817 000a 8442     		cmp	r4, r0
 818 000c 12D0     		beq	.L27
 191:.\src\system/boot.c ****     }
 192:.\src\system/boot.c ****     else
 193:.\src\system/boot.c ****     {
 194:.\src\system/boot.c ****         switch (fw_mode)
 819              		.loc 1 194 0
 820 000e 012C     		cmp	r4, #1
 821 0010 04D0     		beq	.L24
 822 0012 022C     		cmp	r4, #2
 823 0014 0DD1     		bne	.L35
 195:.\src\system/boot.c ****         {
 196:.\src\system/boot.c ****             case SYS_FW_MODE_FWIMAGE_1:
 197:.\src\system/boot.c **** #ifndef CCG_PSEUDO_METADATA_DISABLE
 198:.\src\system/boot.c ****                 /*
 199:.\src\system/boot.c ****                  * CCG is in FW Image 2 and request is to validate FW image 1. 
 200:.\src\system/boot.c ****                  * There can be following cases:
 201:.\src\system/boot.c ****                  * 1) If Image-1 PMD signature is "CP", use Image-1 PMD for validation.
 202:.\src\system/boot.c ****                  * 2) Otherwise, use Image-1 MD for validation.
 203:.\src\system/boot.c ****                  */
 204:.\src\system/boot.c ****                 if(gl_img1_fw_pseudo_metadata->metadata_valid == 
 205:.\src\system/boot.c ****                     SYS_PSEUDO_METADATA_VALID_SIG)
 206:.\src\system/boot.c ****                 {
 207:.\src\system/boot.c ****                     md_p = gl_img1_fw_pseudo_metadata;
 208:.\src\system/boot.c ****                 }
 209:.\src\system/boot.c ****                 else
 210:.\src\system/boot.c **** #endif /* CCG_PSEUDO_METADATA_DISABLE */
 211:.\src\system/boot.c ****                 {
 212:.\src\system/boot.c ****                     md_p = gl_img1_fw_metadata;
 213:.\src\system/boot.c ****                 }
 214:.\src\system/boot.c ****                 break;
 215:.\src\system/boot.c **** 
 216:.\src\system/boot.c ****             case SYS_FW_MODE_FWIMAGE_2:
 217:.\src\system/boot.c **** #ifndef CCG_PSEUDO_METADATA_DISABLE
 218:.\src\system/boot.c ****                 /*
 219:.\src\system/boot.c ****                  * CCG is in FW Image 1 and request is to validate FW image 2. 
 220:.\src\system/boot.c ****                  * There can be following cases:
ARM GAS  C:\Users\victo\AppData\Local\Temp\ccmPfoG4.s 			page 53


 221:.\src\system/boot.c ****                  * 1) If Image-2 PMD signature is "CP", use Image-2 PMD for validation.
 222:.\src\system/boot.c ****                  * 2) Otherwise, use Image-1 MD for validation.
 223:.\src\system/boot.c ****                  */
 224:.\src\system/boot.c ****                 if(gl_img2_fw_pseudo_metadata->metadata_valid == 
 225:.\src\system/boot.c ****                     SYS_PSEUDO_METADATA_VALID_SIG)
 226:.\src\system/boot.c ****                 {
 227:.\src\system/boot.c ****                     md_p = gl_img2_fw_pseudo_metadata;
 228:.\src\system/boot.c ****                 }
 229:.\src\system/boot.c ****                 else
 230:.\src\system/boot.c **** #endif /* CCG_PSEUDO_METADATA_DISABLE */
 231:.\src\system/boot.c ****                 {
 232:.\src\system/boot.c ****                     md_p = gl_img2_fw_metadata;
 824              		.loc 1 232 0
 825 0016 084B     		ldr	r3, .L36
 826 0018 1868     		ldr	r0, [r3]
 827              	.LVL21:
 233:.\src\system/boot.c ****                 }
 234:.\src\system/boot.c ****                 break;
 828              		.loc 1 234 0
 829 001a 01E0     		b	.L26
 830              	.LVL22:
 831              	.L24:
 212:.\src\system/boot.c ****                 }
 832              		.loc 1 212 0
 833 001c 064B     		ldr	r3, .L36
 834 001e 5868     		ldr	r0, [r3, #4]
 835              	.LVL23:
 836              	.L26:
 837 0020 FE23     		mov	r3, #254
 235:.\src\system/boot.c **** 
 236:.\src\system/boot.c ****             default:
 237:.\src\system/boot.c ****                 code = CCG_STAT_INVALID_ARGUMENT;
 238:.\src\system/boot.c ****                 break;
 239:.\src\system/boot.c ****         }
 240:.\src\system/boot.c ****     }
 241:.\src\system/boot.c **** #endif /* CCG_BOOT */
 242:.\src\system/boot.c **** 
 243:.\src\system/boot.c ****     if (md_p != NULL)
 838              		.loc 1 243 0
 839 0022 0028     		cmp	r0, #0
 840 0024 06D0     		beq	.L27
 244:.\src\system/boot.c ****     {
 245:.\src\system/boot.c ****         if (boot_validate_fw (md_p) == CCG_STAT_SUCCESS)
 841              		.loc 1 245 0
 842 0026 FFF7FEFF 		bl	boot_validate_fw
 843              	.LVL24:
 246:.\src\system/boot.c ****         {
 247:.\src\system/boot.c ****             code = CCG_STAT_SUCCESS;
 844              		.loc 1 247 0
 845 002a 031E     		sub	r3, r0, #0
 245:.\src\system/boot.c ****         {
 846              		.loc 1 245 0
 847 002c 02D0     		beq	.L27
 248:.\src\system/boot.c ****         }
 249:.\src\system/boot.c ****         else
 250:.\src\system/boot.c ****         {
 251:.\src\system/boot.c ****             code = CCG_STAT_INVALID_FW;
ARM GAS  C:\Users\victo\AppData\Local\Temp\ccmPfoG4.s 			page 54


 848              		.loc 1 251 0
 849 002e 0623     		mov	r3, #6
 850 0030 00E0     		b	.L27
 851              	.LVL25:
 852              	.L35:
 237:.\src\system/boot.c ****                 break;
 853              		.loc 1 237 0
 854 0032 0723     		mov	r3, #7
 855              	.LVL26:
 856              	.L27:
 252:.\src\system/boot.c ****         }
 253:.\src\system/boot.c ****     }
 254:.\src\system/boot.c ****     return code;
 857              		.loc 1 254 0
 858 0034 58B2     		sxtb	r0, r3
 255:.\src\system/boot.c **** }
 859              		.loc 1 255 0
 860              		@ sp needed
 861 0036 10BD     		pop	{r4, pc}
 862              	.L37:
 863              		.align	2
 864              	.L36:
 865 0038 00000000 		.word	.LANCHOR0
 866              		.cfi_endproc
 867              	.LFE37:
 868              		.size	boot_handle_validate_fw_cmd, .-boot_handle_validate_fw_cmd
 869              		.section	.text.boot_get_boot_seq,"ax",%progbits
 870              		.align	1
 871              		.global	boot_get_boot_seq
 872              		.code	16
 873              		.thumb_func
 874              		.type	boot_get_boot_seq, %function
 875              	boot_get_boot_seq:
 876              	.LFB38:
 256:.\src\system/boot.c **** 
 257:.\src\system/boot.c **** #ifdef CCG_BOOT
 258:.\src\system/boot.c **** #if (BOOT_WAIT_WINDOW_DISABLE == 0)
 259:.\src\system/boot.c **** /* Return the boot-wait setting to the user code. */
 260:.\src\system/boot.c **** uint16_t boot_get_wait_time(void)
 261:.\src\system/boot.c **** {
 262:.\src\system/boot.c ****     return (gl_boot_wait_delay);
 263:.\src\system/boot.c **** }
 264:.\src\system/boot.c **** 
 265:.\src\system/boot.c **** static void boot_set_wait_timeout(sys_fw_metadata_t *md_p)
 266:.\src\system/boot.c **** {
 267:.\src\system/boot.c ****     /* Check for boot-wait option. */
 268:.\src\system/boot.c ****     if (md_p->boot_app_id == CCG_FWMETA_APPID_WAIT_0)
 269:.\src\system/boot.c ****     {
 270:.\src\system/boot.c ****         gl_boot_wait_delay = 0;
 271:.\src\system/boot.c ****     }
 272:.\src\system/boot.c ****     else
 273:.\src\system/boot.c ****     {
 274:.\src\system/boot.c ****         if (md_p->boot_app_id != CCG_FWMETA_APPID_WAIT_DEF)
 275:.\src\system/boot.c ****         {
 276:.\src\system/boot.c ****             /* Get the boot-wait delay from metadata, applying the MIN and MAX limits. */
 277:.\src\system/boot.c ****             gl_boot_wait_delay = GET_MAX (CCG_BL_WAIT_MAXIMUM, GET_MIN (CCG_BL_WAIT_MINUMUM,
 278:.\src\system/boot.c ****                         md_p->boot_app_id));
ARM GAS  C:\Users\victo\AppData\Local\Temp\ccmPfoG4.s 			page 55


 279:.\src\system/boot.c ****         }
 280:.\src\system/boot.c ****     }
 281:.\src\system/boot.c **** }
 282:.\src\system/boot.c **** #endif /* BOOT_WAIT_WINDOW_DISABLE */
 283:.\src\system/boot.c **** 
 284:.\src\system/boot.c **** /*This function schedules recent and valid FW. It sets boot mode reason */
 285:.\src\system/boot.c **** bool boot_start(void)
 286:.\src\system/boot.c **** {
 287:.\src\system/boot.c ****     sys_fw_metadata_t *md_p;
 288:.\src\system/boot.c ****     uint8_t img;
 289:.\src\system/boot.c **** 
 290:.\src\system/boot.c ****     bool boot_fw1 = false;
 291:.\src\system/boot.c ****     bool boot_fw2 = false;
 292:.\src\system/boot.c **** 
 293:.\src\system/boot.c **** #if (CCG_DUALAPP_DISABLE)
 294:.\src\system/boot.c ****     (void)boot_fw1;
 295:.\src\system/boot.c ****     (void)boot_fw2;
 296:.\src\system/boot.c **** #endif /* CCG_DUALAPP_DISABLE */
 297:.\src\system/boot.c **** 
 298:.\src\system/boot.c ****     md_p = NULL;
 299:.\src\system/boot.c ****     gl_img_status.val = 0;
 300:.\src\system/boot.c ****    
 301:.\src\system/boot.c ****     /* Check the two firmware binaries for validity. */
 302:.\src\system/boot.c ****     if (boot_validate_fw ((sys_fw_metadata_t *)CCG_IMG1_FW_METADATA_ADDR) != CCG_STAT_SUCCESS)
 303:.\src\system/boot.c ****     {
 304:.\src\system/boot.c ****         gl_img_status.status.fw1_invalid  = 1;
 305:.\src\system/boot.c ****     }
 306:.\src\system/boot.c **** 
 307:.\src\system/boot.c **** #if (!CCG_DUALAPP_DISABLE)
 308:.\src\system/boot.c ****     if (boot_validate_fw ((sys_fw_metadata_t *)CCG_IMG2_FW_METADATA_ADDR) != CCG_STAT_SUCCESS)
 309:.\src\system/boot.c **** #endif /* CCG_DUALAPP_DISABLE */
 310:.\src\system/boot.c ****     {
 311:.\src\system/boot.c ****         gl_img_status.status.fw2_invalid = 1;
 312:.\src\system/boot.c ****     }
 313:.\src\system/boot.c ****     
 314:.\src\system/boot.c ****     /* Check for the boot mode request. */
 315:.\src\system/boot.c ****     /*
 316:.\src\system/boot.c ****      * NOTE: cyBtldrRunType is Bootloader component provided variable.
 317:.\src\system/boot.c ****      * It is used to store the jump signature. Check the lower two bytes
 318:.\src\system/boot.c ****      * for signature.
 319:.\src\system/boot.c ****      */
 320:.\src\system/boot.c ****     if ((cyBtldrRunType & 0xFFFF) == SYS_BOOT_MODE_RQT_SIG)
 321:.\src\system/boot.c ****     {
 322:.\src\system/boot.c ****         /*
 323:.\src\system/boot.c ****          * FW has made a request to stay in boot mode. Return
 324:.\src\system/boot.c ****          * from here after clearing the variable.
 325:.\src\system/boot.c ****          */
 326:.\src\system/boot.c ****         cyBtldrRunType = 0;
 327:.\src\system/boot.c ****         /* Set the reason for boot mode. */
 328:.\src\system/boot.c ****         gl_img_status.status.boot_mode_request = true;
 329:.\src\system/boot.c ****         return false;
 330:.\src\system/boot.c ****     }
 331:.\src\system/boot.c ****     
 332:.\src\system/boot.c ****     /* Check if we have been asked to boot FW1 or FW2 specifically. */
 333:.\src\system/boot.c ****     if ((cyBtldrRunType & 0xFFFF) == CCG_FW1_BOOT_RQT_SIG)
 334:.\src\system/boot.c ****         boot_fw1 = true;
 335:.\src\system/boot.c **** 
ARM GAS  C:\Users\victo\AppData\Local\Temp\ccmPfoG4.s 			page 56


 336:.\src\system/boot.c **** #if (!CCG_DUALAPP_DISABLE)
 337:.\src\system/boot.c ****     if ((cyBtldrRunType & 0xFFFF) == CCG_FW2_BOOT_RQT_SIG)
 338:.\src\system/boot.c ****         boot_fw2 = true;
 339:.\src\system/boot.c **** #endif /* CCG_DUALAPP_DISABLE */
 340:.\src\system/boot.c **** 
 341:.\src\system/boot.c **** #if (!CCG_DUALAPP_DISABLE)
 342:.\src\system/boot.c ****     /*
 343:.\src\system/boot.c ****      * If we have been specifically asked to boot FW2, do that.
 344:.\src\system/boot.c ****      * Otherwise, if we have not been specifically asked to boot FW1; choose the binary with
 345:.\src\system/boot.c ****      * greater sequence number.
 346:.\src\system/boot.c ****      */
 347:.\src\system/boot.c ****     if (!gl_img_status.status.fw2_invalid)
 348:.\src\system/boot.c ****     {
 349:.\src\system/boot.c ****         /* 
 350:.\src\system/boot.c ****          * FW2 is valid.
 351:.\src\system/boot.c ****          * We can boot this if:
 352:.\src\system/boot.c ****          * 1. We have been asked to boot FW2.
 353:.\src\system/boot.c ****          * 2. FW1 is not valid.
 354:.\src\system/boot.c ****          * 3. FW2 is newer than FW1, and we have not been asked to boot FW1.
 355:.\src\system/boot.c ****          */
 356:.\src\system/boot.c ****         if ((boot_fw2) || (gl_img_status.status.fw1_invalid) ||
 357:.\src\system/boot.c ****                 ((!boot_fw1) && (sys_get_recent_fw_image() == SYS_FW_MODE_FWIMAGE_2)))
 358:.\src\system/boot.c ****         {
 359:.\src\system/boot.c ****             md_p = gl_img2_fw_metadata;
 360:.\src\system/boot.c ****             img  = Bootloader_1_MD_BTLDB_ACTIVE_1;
 361:.\src\system/boot.c ****         }
 362:.\src\system/boot.c ****         else
 363:.\src\system/boot.c ****         {
 364:.\src\system/boot.c ****             md_p = gl_img1_fw_metadata;
 365:.\src\system/boot.c ****             img  = Bootloader_1_MD_BTLDB_ACTIVE_0;
 366:.\src\system/boot.c ****         }
 367:.\src\system/boot.c ****     }
 368:.\src\system/boot.c ****     else
 369:.\src\system/boot.c **** #endif /* CCG_DUALAPP_DISABLE */
 370:.\src\system/boot.c ****     {
 371:.\src\system/boot.c ****         /* FW2 is invalid. */
 372:.\src\system/boot.c ****         /* Load FW1 if it is valid. */
 373:.\src\system/boot.c ****         if (!gl_img_status.status.fw1_invalid)
 374:.\src\system/boot.c ****         {
 375:.\src\system/boot.c ****             md_p = gl_img1_fw_metadata;
 376:.\src\system/boot.c ****             img  = Bootloader_1_MD_BTLDB_ACTIVE_0;
 377:.\src\system/boot.c ****         }
 378:.\src\system/boot.c ****     }
 379:.\src\system/boot.c ****     
 380:.\src\system/boot.c ****     if (md_p != NULL)
 381:.\src\system/boot.c ****     {
 382:.\src\system/boot.c **** #if (BOOT_WAIT_WINDOW_DISABLE == 0)
 383:.\src\system/boot.c ****         /*
 384:.\src\system/boot.c ****          * If we are in the middle of a jump-to-alt-fw command, do not provide
 385:.\src\system/boot.c ****          * the boot wait window.
 386:.\src\system/boot.c ****          */
 387:.\src\system/boot.c ****         if ((boot_fw1) || (boot_fw2))
 388:.\src\system/boot.c ****             gl_boot_wait_delay = 0;
 389:.\src\system/boot.c ****         else
 390:.\src\system/boot.c ****             boot_set_wait_timeout (md_p);
 391:.\src\system/boot.c **** #endif /* BOOT_WAIT_WINDOW_DISABLE */
 392:.\src\system/boot.c **** 
ARM GAS  C:\Users\victo\AppData\Local\Temp\ccmPfoG4.s 			page 57


 393:.\src\system/boot.c ****         Bootloader_1_activeApp = img;
 394:.\src\system/boot.c ****         return true;
 395:.\src\system/boot.c ****     }
 396:.\src\system/boot.c **** 
 397:.\src\system/boot.c ****     /* Stay in bootlaoder. */
 398:.\src\system/boot.c ****     return false;
 399:.\src\system/boot.c **** }
 400:.\src\system/boot.c **** 
 401:.\src\system/boot.c **** void boot_jump_to_fw(void)
 402:.\src\system/boot.c **** {
 403:.\src\system/boot.c ****     /* Schedule the FW and undergo a reset. */
 404:.\src\system/boot.c ****     Bootloader_1_SET_RUN_TYPE (Bootloader_1_START_APP);
 405:.\src\system/boot.c ****     CySoftwareReset ();
 406:.\src\system/boot.c **** }
 407:.\src\system/boot.c **** #else /* !CCG_BOOT */
 408:.\src\system/boot.c **** 
 409:.\src\system/boot.c **** #if (CCG_PSEUDO_METADATA_DISABLE == 0)
 410:.\src\system/boot.c **** 
 411:.\src\system/boot.c **** void boot_check_for_valid_fw(void)
 412:.\src\system/boot.c **** {
 413:.\src\system/boot.c ****     /* Temporary data buffer (of size one Flash row) to store contents of pseudo metadata. */
 414:.\src\system/boot.c ****     uint8_t temp_pseudo_metadata_buf[CCG_FLASH_ROW_SIZE] = {0};
 415:.\src\system/boot.c ****     sys_fw_metadata_t *p_md, *alt_p_md, *md, *alt_md;
 416:.\src\system/boot.c ****     uint16_t alt_p_md_row_num, alt_md_row_num, p_md_row_num;
 417:.\src\system/boot.c ****     /* To hold the bit position of alternate image in Image status structure. */
 418:.\src\system/boot.c ****     uint8_t alt_img_bit_pos;
 419:.\src\system/boot.c ****     bool invalidate_md = false;
 420:.\src\system/boot.c **** #if (SECURE_FW_UPDATE == 1)
 421:.\src\system/boot.c ****     /* Buffer to hold FW HASH. */
 422:.\src\system/boot.c ****     uint32_t fw_hash[CRYPTO_SHA_2_HASH_SIZE_WORDS] = {0};
 423:.\src\system/boot.c **** #endif /* SECURE_FW_UPDATE */
 424:.\src\system/boot.c **** 
 425:.\src\system/boot.c ****     /*Pointer to the metadata table's start address  in pseudo metadata row buffer. */
 426:.\src\system/boot.c ****     sys_fw_metadata_t *temp_fw_pmetadata = (sys_fw_metadata_t *)
 427:.\src\system/boot.c ****             (temp_pseudo_metadata_buf + (CCG_FLASH_ROW_SIZE - CCG_METADATA_TABLE_SIZE));
 428:.\src\system/boot.c **** 
 429:.\src\system/boot.c ****     /* Determine the pseudo and actual metadata row details based on FW mode. */
 430:.\src\system/boot.c ****     if (sys_get_device_mode() == SYS_FW_MODE_FWIMAGE_1)
 431:.\src\system/boot.c ****     {
 432:.\src\system/boot.c ****         p_md = gl_img1_fw_pseudo_metadata;
 433:.\src\system/boot.c ****         alt_p_md = gl_img2_fw_pseudo_metadata;
 434:.\src\system/boot.c ****         md = gl_img1_fw_metadata;
 435:.\src\system/boot.c ****         alt_md = gl_img2_fw_metadata;
 436:.\src\system/boot.c ****         p_md_row_num = CCG_IMG1_LAST_FLASH_ROW_NUM;
 437:.\src\system/boot.c ****         alt_p_md_row_num = CCG_IMG2_PSEUDO_METADATA_ROW_NUM;
 438:.\src\system/boot.c ****         alt_md_row_num = CCG_IMG2_METADATA_ROW_NUM;
 439:.\src\system/boot.c ****         alt_img_bit_pos = 3;
 440:.\src\system/boot.c ****     }
 441:.\src\system/boot.c ****     else
 442:.\src\system/boot.c ****     {
 443:.\src\system/boot.c ****         p_md = gl_img2_fw_pseudo_metadata;
 444:.\src\system/boot.c ****         alt_p_md = gl_img1_fw_pseudo_metadata;
 445:.\src\system/boot.c ****         md = gl_img2_fw_metadata;
 446:.\src\system/boot.c ****         alt_md = gl_img1_fw_metadata;
 447:.\src\system/boot.c ****         p_md_row_num = CCG_IMG2_PSEUDO_METADATA_ROW_NUM;
 448:.\src\system/boot.c ****         alt_p_md_row_num = gl_img2_fw_metadata->boot_last_row;
 449:.\src\system/boot.c ****         alt_md_row_num = CCG_IMG1_METADATA_ROW_NUM;
ARM GAS  C:\Users\victo\AppData\Local\Temp\ccmPfoG4.s 			page 58


 450:.\src\system/boot.c ****         alt_img_bit_pos = 2;
 451:.\src\system/boot.c ****     }
 452:.\src\system/boot.c ****     
 453:.\src\system/boot.c ****     /* Current FW shall ensure that it's PMD row is cleared if it contains
 454:.\src\system/boot.c ****      * valid signature. This ensures there is no stale PMD information in the flash. */
 455:.\src\system/boot.c ****     if (p_md->metadata_valid == SYS_PSEUDO_METADATA_VALID_SIG)
 456:.\src\system/boot.c ****     {
 457:.\src\system/boot.c ****         flash_row_clear (p_md_row_num);
 458:.\src\system/boot.c ****     }
 459:.\src\system/boot.c ****         
 460:.\src\system/boot.c ****     /*
 461:.\src\system/boot.c ****      * Read pseudo-metadata row of other fw image. If pseudo-metadata has
 462:.\src\system/boot.c ****      * signature "CP", which indicates that other FW Image got updated before
 463:.\src\system/boot.c ****      * re-boot, and FW image is valid then copy this pseudo-metadta in to
 464:.\src\system/boot.c ****      * its actual metadata row after changing its signature and
 465:.\src\system/boot.c ****      * increamenting image pointer.
 466:.\src\system/boot.c ****      */
 467:.\src\system/boot.c ****     if (alt_p_md->metadata_valid == SYS_PSEUDO_METADATA_VALID_SIG)
 468:.\src\system/boot.c ****     {
 469:.\src\system/boot.c ****         if(boot_validate_fw (alt_p_md) == CCG_STAT_SUCCESS)
 470:.\src\system/boot.c ****         {
 471:.\src\system/boot.c **** #if (SECURE_FW_UPDATE == 1)
 472:.\src\system/boot.c ****            if(sboot_authenticate_fw(alt_p_md, alt_p_md_row_num, fw_hash) == CCG_STAT_SUCCESS)
 473:.\src\system/boot.c **** #endif /* SECURE_FW_UPDATE */
 474:.\src\system/boot.c ****            {
 475:.\src\system/boot.c ****                 /* Read pesudo metadata in a temp buffer. */
 476:.\src\system/boot.c ****                 MEM_COPY ((uint8_t *)temp_fw_pmetadata, (uint8_t *)alt_p_md,
 477:.\src\system/boot.c ****                     CCG_METADATA_TABLE_SIZE);
 478:.\src\system/boot.c ****                 temp_fw_pmetadata->metadata_valid = SYS_METADATA_VALID_SIG;
 479:.\src\system/boot.c ****                 temp_fw_pmetadata->boot_seq = (md->boot_seq) + 1;
 480:.\src\system/boot.c **** #if (SECURE_FW_UPDATE == 1)
 481:.\src\system/boot.c ****                 /* Copy FW HASH in first 32 bytes of pseudo metadata row. */
 482:.\src\system/boot.c ****                 MEM_COPY (temp_pseudo_metadata_buf, (uint8_t *)fw_hash,
 483:.\src\system/boot.c ****                     CRYPTO_SHA_2_HASH_SIZE_BYTES);
 484:.\src\system/boot.c **** #endif /* SECURE_FW_UPDATE */
 485:.\src\system/boot.c ****                 /* This flash write can always be blocking. */
 486:.\src\system/boot.c ****                 if (CYRET_SUCCESS == CySysFlashWriteRow (alt_md_row_num,
 487:.\src\system/boot.c ****                             temp_pseudo_metadata_buf))
 488:.\src\system/boot.c ****                 {
 489:.\src\system/boot.c ****                     /*Invalidate Pseudo-metadata of FW Image 2.*/
 490:.\src\system/boot.c ****                     flash_row_clear (alt_p_md_row_num);
 491:.\src\system/boot.c ****                     /* Undergo Software Reset. */
 492:.\src\system/boot.c ****                     CySoftwareReset();
 493:.\src\system/boot.c ****                 }
 494:.\src\system/boot.c ****             }
 495:.\src\system/boot.c **** #if (SECURE_FW_UPDATE == 1)
 496:.\src\system/boot.c ****             else
 497:.\src\system/boot.c ****             {
 498:.\src\system/boot.c ****                 invalidate_md = true;
 499:.\src\system/boot.c ****             }
 500:.\src\system/boot.c **** #endif /* SECURE_FW_UPDATE */
 501:.\src\system/boot.c ****         }
 502:.\src\system/boot.c ****         else
 503:.\src\system/boot.c ****         {
 504:.\src\system/boot.c ****             invalidate_md = true;
 505:.\src\system/boot.c ****         }
 506:.\src\system/boot.c ****     }
ARM GAS  C:\Users\victo\AppData\Local\Temp\ccmPfoG4.s 			page 59


 507:.\src\system/boot.c ****     else
 508:.\src\system/boot.c ****     {
 509:.\src\system/boot.c ****         /* Check if other image is valid. */
 510:.\src\system/boot.c ****         if (boot_validate_fw (alt_md) != CCG_STAT_SUCCESS)
 511:.\src\system/boot.c ****         {
 512:.\src\system/boot.c ****             /* Mark the other image as invalid. */
 513:.\src\system/boot.c ****             gl_img_status.val |= (1 << alt_img_bit_pos);
 514:.\src\system/boot.c ****         }
 515:.\src\system/boot.c ****     }
 516:.\src\system/boot.c **** 
 517:.\src\system/boot.c ****     if (invalidate_md)
 518:.\src\system/boot.c ****     {
 519:.\src\system/boot.c ****         /*Invalidate Pseudo-metadata and Metadata of other FW Image.*/
 520:.\src\system/boot.c ****         flash_row_clear (alt_md_row_num);
 521:.\src\system/boot.c ****         flash_row_clear (alt_p_md_row_num);
 522:.\src\system/boot.c ****         /* Mark the other image as invalid. */
 523:.\src\system/boot.c ****         gl_img_status.val |= (1 << alt_img_bit_pos);
 524:.\src\system/boot.c ****     }
 525:.\src\system/boot.c **** }
 526:.\src\system/boot.c **** #endif /* CCG_PSEUDO_METADATA_DISABLE */
 527:.\src\system/boot.c **** 
 528:.\src\system/boot.c **** #endif /* CCG_BOOT */
 529:.\src\system/boot.c **** 
 530:.\src\system/boot.c **** uint32_t boot_get_boot_seq(uint8_t fwid)
 531:.\src\system/boot.c **** {
 877              		.loc 1 531 0
 878              		.cfi_startproc
 879              	.LVL27:
 880 0000 38B5     		push	{r3, r4, r5, lr}
 881              		.cfi_def_cfa_offset 16
 882              		.cfi_offset 3, -16
 883              		.cfi_offset 4, -12
 884              		.cfi_offset 5, -8
 885              		.cfi_offset 14, -4
 886              		.loc 1 531 0
 887 0002 051E     		sub	r5, r0, #0
 532:.\src\system/boot.c ****     sys_fw_metadata_t *md_p;
 533:.\src\system/boot.c **** 
 534:.\src\system/boot.c ****     if (fwid == SYS_FW_MODE_FWIMAGE_1)
 888              		.loc 1 534 0
 889 0004 012D     		cmp	r5, #1
 890 0006 01D0     		beq	.L43
 535:.\src\system/boot.c ****         md_p = (sys_fw_metadata_t *)CCG_IMG1_FW_METADATA_ADDR;
 536:.\src\system/boot.c ****     else
 537:.\src\system/boot.c ****         md_p = (sys_fw_metadata_t *)CCG_IMG2_FW_METADATA_ADDR;
 891              		.loc 1 537 0
 892 0008 074C     		ldr	r4, .L47
 893 000a 00E0     		b	.L39
 894              	.L43:
 535:.\src\system/boot.c ****         md_p = (sys_fw_metadata_t *)CCG_IMG1_FW_METADATA_ADDR;
 895              		.loc 1 535 0
 896 000c 074C     		ldr	r4, .L47+4
 897              	.L39:
 898              	.LVL28:
 538:.\src\system/boot.c **** 
 539:.\src\system/boot.c **** #ifdef CCG_BOOT
 540:.\src\system/boot.c ****     if (boot_validate_fw (md_p) == CCG_STAT_SUCCESS)
ARM GAS  C:\Users\victo\AppData\Local\Temp\ccmPfoG4.s 			page 60


 541:.\src\system/boot.c ****     {
 542:.\src\system/boot.c ****         return (md_p->boot_seq);
 543:.\src\system/boot.c ****     }
 544:.\src\system/boot.c **** #else /* CCG_BOOT */
 545:.\src\system/boot.c **** 
 546:.\src\system/boot.c ****     /* We only need to validate if the target is not the active firmware. */
 547:.\src\system/boot.c ****     if ((sys_get_device_mode () == fwid) || (boot_validate_fw (md_p) == CCG_STAT_SUCCESS))
 899              		.loc 1 547 0
 900 000e FFF7FEFF 		bl	sys_get_device_mode
 901              	.LVL29:
 902 0012 A842     		cmp	r0, r5
 903 0014 01D1     		bne	.L40
 904              	.L42:
 548:.\src\system/boot.c ****     {
 549:.\src\system/boot.c ****         return (md_p->boot_seq);
 905              		.loc 1 549 0
 906 0016 E069     		ldr	r0, [r4, #28]
 907 0018 05E0     		b	.L41
 908              	.L40:
 547:.\src\system/boot.c ****     {
 909              		.loc 1 547 0 discriminator 1
 910 001a 201C     		mov	r0, r4
 911 001c FFF7FEFF 		bl	boot_validate_fw
 912              	.LVL30:
 913 0020 0028     		cmp	r0, #0
 914 0022 F8D0     		beq	.L42
 550:.\src\system/boot.c ****     }
 551:.\src\system/boot.c **** #endif /* CCG_BOOT */
 552:.\src\system/boot.c ****     return 0;
 915              		.loc 1 552 0
 916 0024 0020     		mov	r0, #0
 917              	.L41:
 553:.\src\system/boot.c **** }
 918              		.loc 1 553 0
 919              		@ sp needed
 920              	.LVL31:
 921 0026 38BD     		pop	{r3, r4, r5, pc}
 922              	.L48:
 923              		.align	2
 924              	.L47:
 925 0028 C0FE0100 		.word	130752
 926 002c C0FF0100 		.word	131008
 927              		.cfi_endproc
 928              	.LFE38:
 929              		.size	boot_get_boot_seq, .-boot_get_boot_seq
 930              		.global	gl_img2_fw_metadata
 931              		.global	gl_img1_fw_metadata
 932              		.comm	gl_img_status,1,1
 933              		.data
 934              		.align	2
 935              		.set	.LANCHOR0,. + 0
 936              		.type	gl_img2_fw_metadata, %object
 937              		.size	gl_img2_fw_metadata, 4
 938              	gl_img2_fw_metadata:
 939 0000 C0FE0100 		.word	130752
 940              		.type	gl_img1_fw_metadata, %object
 941              		.size	gl_img1_fw_metadata, 4
ARM GAS  C:\Users\victo\AppData\Local\Temp\ccmPfoG4.s 			page 61


 942              	gl_img1_fw_metadata:
 943 0004 C0FF0100 		.word	131008
 944              		.type	gl_boot_wait_delay, %object
 945              		.size	gl_boot_wait_delay, 2
 946              	gl_boot_wait_delay:
 947 0008 3200     		.short	50
 948 000a 0000     		.text
 949              	.Letext0:
 950              		.file 2 "c:\\program files (x86)\\cypress\\psoc creator\\3.3\\psoc creator\\import\\gnu\\arm\\4.9.
 951              		.file 3 "c:\\program files (x86)\\cypress\\psoc creator\\3.3\\psoc creator\\import\\gnu\\arm\\4.9.
 952              		.file 4 ".\\src\\system/status.h"
 953              		.file 5 ".\\src\\system/system.h"
 954              		.file 6 ".\\src\\system/boot.h"
 955              		.file 7 ".\\src\\system/utils.h"