ARM GAS  C:\Users\victo\AppData\Local\Temp\cckkraNh.s 			page 1


   1              		.cpu cortex-m0
   2              		.fpu softvfp
   3              		.eabi_attribute 20, 1
   4              		.eabi_attribute 21, 1
   5              		.eabi_attribute 23, 3
   6              		.eabi_attribute 24, 1
   7              		.eabi_attribute 25, 1
   8              		.eabi_attribute 26, 1
   9              		.eabi_attribute 30, 4
  10              		.eabi_attribute 34, 0
  11              		.eabi_attribute 18, 4
  12              		.code	16
  13              		.file	"CyFlash.c"
  14              		.text
  15              	.Ltext0:
  16              		.section	.gnu.lto_.profile.92f685f1,"",%progbits
  17 0000 789C6366 		.ascii	"x\234cf```c\200\000F\206\367\2143\031\001\005\224\001"
  17      60606063 
  17      80004686 
  17      F78C3319 
  17      01059401 
  18 0014 95       		.ascii	"\225"
  19              		.text
  20              		.section	.gnu.lto_.jmpfuncs.92f685f1,"",%progbits
  21 0000 789C6366 		.ascii	"x\234cf\300\016\302\2404+\020310030\2600122\327\327"
  21      C00EC2A0 
  21      342B1033 
  21      31303033 
  21      30B03031 
  22 0018 3342C481 		.ascii	"3B\304\201\002\314\345\214\214\014L\037\231\030w\237"
  22      02CCE58C 
  22      8C0C4C1F 
  22      9918779F 
  23 0028 59B99EE9 		.ascii	"Y\271\236\351\005\323O&\206\006&\006\306\345\214R\014"
  23      05D34F26 
  23      86062606 
  23      C6E58C52 
  23      0C
  24 0039 AC8C8C8C 		.ascii	"\254\214\214\214 \225\214 \351\306e\273{\330A\322 \201"
  24      20958C20 
  24      E9C665BB 
  24      7BD841D2 
  24      2081
  25 004b 15405906 		.ascii	"\025@Y\006\006\0008|\017\214"
  25      0600387C 
  25      0F8C
  26              		.text
  27              		.section	.gnu.lto_.inline.92f685f1,"",%progbits
  28 0000 789C6D8F 		.ascii	"x\234m\217\275J\003A\024\205\317\2753\356\016\256Y\227"
  28      BD4A0341 
  28      1485CFBD 
  28      33EE0EAE 
  28      5997
  29 0012 6815C444 		.ascii	"h\025\304D++\361\021\366\011\362\026\212\372\024S\006"
  29      2B2BF111 
  29      F609F216 
  29      8AFA1453 
ARM GAS  C:\Users\victo\AppData\Local\Temp\cckkraNh.s 			page 2


  29      06
  30 0023 1BB7B0B0 		.ascii	"\033\267\260\260\260H\241\250\011X\331\010ba\351\017"
  30      B048A1A8 
  30      0958D908 
  30      6261E90F 
  31 0033 D1079005 		.ascii	"\321\007\220\005\261H\251(\376Tzg&\213\315\016\314\234"
  31      B148A928 
  31      FE547A67 
  31      268BCD0E 
  31      CC9C
  32 0045 CBF92EC3 		.ascii	"\313\371.\3039\012\365g\227\202N\301\314g\004^\276|"
  32      390AF567 
  32      97824EC1 
  32      CC67045E 
  32      BE7C
  33 0057 2244FD36 		.ascii	"\"D\3756;\223\321L\305[<\270\372\367T\315\236.x\204"
  33      3B93D14C 
  33      C55B3CB8 
  33      FAF754CD 
  33      9E2E7884 
  34 006b 058AB0FE 		.ascii	"\005\212\260\376\306\364yst\336\030\363\017\363\257"
  34      C6F47973 
  34      74DE18F3 
  34      0FF3AF
  35 007a 021D530B 		.ascii	"\002\035S\013\330\360B[B\313\227\321\243qT\001t\342"
  35      D8F0425B 
  35      42CB97D1 
  35      A3715401 
  35      74E2
  36 008c DC4D2F90 		.ascii	"\334M/\220\034$7\216^W\303\277\272\337\316\241\037f"
  36      1C24378E 
  36      5E57C3BF 
  36      BADFCEA1 
  36      1F66
  37 009e 2D69F0DE 		.ascii	"-i\360\336\364\012\266\357v(\223\271G\271\210\213\227"
  37      F40AB6EF 
  37      762893B9 
  37      47B9888B 
  37      97
  38 00af 40062ABA 		.ascii	"@\006*\272a@\255\350\206\023\205\242+\035[K\024\373"
  38      6140ADE8 
  38      861385A2 
  38      2B1D5B4B 
  38      14FB
  39 00c1 90B7CFDF 		.ascii	"\220\267\317\337\3573.\206\316@\247!\243\027\007/\316"
  39      EF332E86 
  39      CE40A721 
  39      A317072F 
  39      CE
  40 00d2 3EEE130F 		.ascii	">\356\023\017;\240A\200\203\012\226_\345u\354\341\032"
  40      3BA04180 
  40      830A965F 
  40      E575ECE1 
  40      1A
  41 00e3 6818E070 		.ascii	"h\030\340pR\300H\250*\273\225\2677g\331H\207\304r\307"
  41      52C048A8 
  41      2ABB95B7 
ARM GAS  C:\Users\victo\AppData\Local\Temp\cckkraNh.s 			page 3


  41      3767D948 
  41      87C472C7 
  42 00f7 C0ECA7B9 		.ascii	"\300\354\247\271\223q\232\031D\207\315\252\303\244\201"
  42      93719A19 
  42      4487CDAA 
  42      C3A481
  43 0106 2581E40D 		.ascii	"%\201\344\015\340\017\275\024JE"
  43      E00FBD14 
  43      4A45
  44              		.text
  45              		.section	.gnu.lto_.pureconst.92f685f1,"",%progbits
  46 0000 789C6366 		.ascii	"x\234cf``\340f\200\000V\006+&+f+\026+V)\000\007*\001"
  46      6060E066 
  46      80005606 
  46      2B262B66 
  46      2B162B56 
  47 0019 24       		.ascii	"$"
  48              		.text
  49              		.section	.gnu.lto_CySysFlashClockBackup.92f685f1,"",%progbits
  50 0000 789C7D54 		.ascii	"x\234}T_lSU\030?\337\271\177w\273\366N\243<,h4K\234"
  50      5F6C5355 
  50      183FDFB9 
  50      7F77BBF6 
  50      4EA33C2C 
  51 0018 2FA32F3E 		.ascii	"/\243/>\030\037\300\204D\337\200\204\204\247\031\323"
  51      181FC084 
  51      44DF8084 
  51      84A719D3 
  52 0028 60A33128 		.ascii	"`\2431(\246\214d>,\234\226\006\027$\270,87\376\214\021"
  52      A68C643E 
  52      2C9C9606 
  52      1724B82C 
  52      3837FE8C 
  53 003d 644ED66D 		.ascii	"dN\326ml\323\311\006l\205\215\2151\025\226E\306 N\320"
  53      6CD3C906 
  53      6C858D8D 
  53      31159645 
  53      C6204ED0 
  54 0051 758C64D1 		.ascii	"u\214d\321\362G\353\025J\371\276s\333\245\235\311N\322"
  54      F247EB15 
  54      4AF9BE73 
  54      DBA59DC9 
  54      4ED2
  55 0063 73EFF7EF 		.ascii	"s\357\367\357\367\373}_\317\271\012\373\377\332\202"
  55      F7FB7D5F 
  55      CFB90AFB 
  55      FFDA82
  56 0072 BF98C6D8 		.ascii	"\277\230\306\330:|\202\311\200\327\375\314X\330\344"
  56      3A7C82C9 
  56      80D7FDCC 
  56      58D8E4
  57 0081 5C19B399 		.ascii	"\\\031\263\231\260\324\361\265L\024+`\270n\225k-\257"
  57      B0D4F1B5 
  57      4C142B60 
  57      B86E956B 
  57      2DAF
  58 0093 A35B4F3E 		.ascii	"\243[O>\217n\015t\327\255\347\342\006\000\2750`\273"
ARM GAS  C:\Users\victo\AppData\Local\Temp\cckkraNh.s 			page 4


  58      8F6E0D74 
  58      D7ADE7E2 
  58      0600BD30 
  58      60BB
  59 00a5 B8A26ABA 		.ascii	"\270\242j\272\001\273\340.\277\307\241\277\363\341O"
  59      01BBE02E 
  59      BFC7A1BF 
  59      F3E14F
  60 00b4 9E05EE70 		.ascii	"\236\005\356p\366\022Cs\240\376R\243N&\250dN_k\234."
  60      F6124373 
  60      A0FE52A3 
  60      4E26A864 
  60      4E5F6B9C 
  61 00c9 2A3F2144 		.ascii	"*?!D$Y\177t\364\271\246\003-\030\342\354\001g\360\015"
  61      24597F74 
  61      F4B9A603 
  61      2D18E2EC 
  61      0167F00D 
  62 00dd 94421B94 		.ascii	"\224B\033\224\022\346\267PN\311\375\311\323OL\345\025"
  62      12E6B750 
  62      4EC9FDC9 
  62      D34F4CE5 
  62      15
  63 00ee A0F77464 		.ascii	"\240\367td\361\246Vv\014\013o=\352\256n\022-\221:\221"
  63      F1A65676 
  63      0C0B6F3D 
  63      EAAE6E12 
  63      2D913A91 
  64 0102 C9AC03AC 		.ascii	"\311\254\003\254\206\223\240\024\002\320\302\232\241"
  64      8693A014 
  64      02D0C29A 
  64      A1
  65 010f BAC50155 		.ascii	"\272\305\001U\361\313\372\236\343'\372\212\244\2547"
  65      F1CBFA9E 
  65      E327FA8A 
  65      A4AC37
  66 011e C9FCFACB 		.ascii	"\311\374\372\313\206\230&e\231d&:\206\022*\242\217\204"
  66      86982665 
  66      9964263A 
  66      86122AA2 
  66      8F84
  67 0130 6F65BA1F 		.ascii	"oe\272\037C8\017^\201\230\013\337\201\360\235\371\360"
  67      43380F5E 
  67      81980BDF 
  67      81F09DF9 
  67      F0
  68 0141 F7A2E969 		.ascii	"\367\242\351i\217\036\025B\224@;\224A\027\224Q#\250"
  68      8F1E1542 
  68      94403B94 
  68      41179451 
  68      23A8
  69 0153 FF14E8C0 		.ascii	"\377\024\350\300\030\317y\273\236\215#Xo\2721\362r\233"
  69      18CF79BB 
  69      9E8D2358 
  69      6FBA31F2 
  69      729B
  70 0165 F20C30F2 		.ascii	"\362\0140\362s\346pU\303M3h\263h\363\320VL\233\227\242"
ARM GAS  C:\Users\victo\AppData\Local\Temp\cckkraNh.s 			page 5


  70      73E67055 
  70      C34D3368 
  70      B368F3D0 
  70      564C9B97 
  71 017a 3E7AB369 		.ascii	">z\263i+!\223\2619\004\247\241'pb\370T\256A$\236\372"
  71      2B2193B1 
  71      3904A7A1 
  71      277062F8 
  71      54AE4124 
  72 0190 2309920F 		.ascii	"#\011\222\0171Q\323osW&\315\0059S\006\335\250\366\006"
  72      3151D36F 
  72      735726CD 
  72      05395306 
  72      DDA8F606 
  73 01a4 5C48261F 		.ascii	"\\H&\0376US\016\306\303\255g\366\031\024\327e\013W\333"
  73      3655530E 
  73      C6C3AD67 
  73      F61914D7 
  73      650B57DB 
  74 01b8 0763DCDF 		.ascii	"\007c\334\337!\242\341\270\337\341\006\211\205\036\267"
  74      21A2E1B8 
  74      DFE10689 
  74      851EB7
  75 01c7 47E8053F 		.ascii	"G\350\005?f\324^\2378\000T\240\365M)\014\276\223\220"
  75      66D45E9F 
  75      380054A0 
  75      F54D290C 
  75      BE9390
  76 01da 91D9CFE6 		.ascii	"\221\331\317\346\233\207m\302Lq\015\263\232\247\366"
  76      9B876DC2 
  76      4C710DB3 
  76      9AA7F6
  77 01e9 77F29A47 		.ascii	"w\362\232G\242V\230\0167\323\334\035\320\222\030S\232"
  77      A256980E 
  77      37D3DC1D 
  77      D0921853 
  77      9A
  78 01fa 6DE1E861 		.ascii	"m\341\350a8\002\207\302\202\262\212\340{\250\201>\""
  78      380287C2 
  78      82B28AE0 
  78      7BA8813E 
  78      22
  79 020b C3D893D8 		.ascii	"\303\330\223\330\027=zE;\3162^\355p\013~\300\304\373"
  79      173D7A45 
  79      3BCE325E 
  79      ED700B7E 
  79      C0C4FB
  80 021e 3C3BE8DA 		.ascii	"<;\350\332\303\231I\013Ubp\277\342p\017\234\206\212"
  80      C399490B 
  80      556270BF 
  80      E2700F9C 
  80      868A
  81 0230 9C4C0CFF 		.ascii	"\234L\014\377u#}\277H\222\3077:\274\030\372\301\217"
  81      75237DBF 
  81      4892C737 
  81      3ABC18FA 
  81      C18F
ARM GAS  C:\Users\victo\AppData\Local\Temp\cckkraNh.s 			page 6


  82 0242 F207A086 		.ascii	"\362\007\240\206\232\257?\366b\266\365\261#\013=\252"
  82      9AAF3FF6 
  82      62B6F5B1 
  82      230B3DAA 
  83 0252 6C5D1E88 		.ascii	"l]\036\210\273\251\206;\366\262\326\317d[?\013~\354"
  83      BBA9863B 
  83      F6B2D6CF 
  83      645B3F0B 
  83      7EEC
  84 0264 CB6DF4CF 		.ascii	"\313m\364\317\346\343\253\334F\215\302\201\325,\033"
  84      E6E3ABDC 
  84      468DC281 
  84      D52C1B
  85 0273 18461F8C 		.ascii	"\030F\037\214\034\2342P\011\012\375\320\341^8'\225\014"
  85      1C9C3250 
  85      090AFDD0 
  85      E15E3827 
  85      950C
  86 0285 6695DC2E 		.ascii	"f\225\334.\317*\371|o\327*\022\342C\305B-\230\224\317"
  86      CF2AF97C 
  86      6FD72A12 
  86      E243C542 
  86      2D9894CF 
  87 0299 9D54EBC4 		.ascii	"\235T\353\304A/M\012i^p\270\015Cx\366\342D\003\347q"
  87      412F4D0A 
  87      695E70B8 
  87      0D4378F6 
  87      E24403E7 
  88 02ae 302845FE 		.ascii	"0(E\376\257\247RM\315\220\305\214\374\327\367\225<\337"
  88      AFA7524D 
  88      CD90C58C 
  88      FCD7F795 
  88      3CDF
  89 02c0 BE680EF4 		.ascii	"\276h\016\364\344\355\213g\225|\224\013K(\303\210\202"
  89      E4ED8B67 
  89      957C940B 
  89      4B28C388 
  89      82
  90 02d1 197FD7F6 		.ascii	"\031\177\327\366\316\310\221h\015\250\031\277\011#\030"
  90      CEC89168 
  90      0DA819BF 
  90      092318
  91 02e0 BD096278 		.ascii	"\275\011bx\366}\202\245\256\336 \246\177\366\216\036"
  91      F67D82A5 
  91      AEDE20A6 
  91      7FF68E1E 
  92 02f0 DDED73A7 		.ascii	"\335\355s\247`\025\350\203Bu\027\021\027\013v\377\253"
  92      6015E883 
  92      42751711 
  92      170B76FF 
  92      AB
  93 0301 BBC91E37 		.ascii	"\273\311\0367\177\246\353\327V\237\344A\032a3\030\305"
  93      7FA6EBD7 
  93      569FE441 
  93      1A613318 
  93      C5
  94 0312 EC5F207A 		.ascii	"\354_ z]\311\246I\007\255\004W\330\230\255\020\247\345"
ARM GAS  C:\Users\victo\AppData\Local\Temp\cckkraNh.s 			page 7


  94      5DC9A649 
  94      07AD0457 
  94      D898AD10 
  94      A7E5
  95 0324 C68A57E2 		.ascii	"\306\212W\342\033[\306\347u\363\033\0179\203\362\224"
  95      1B5BC6E7 
  95      75F31B0F 
  95      3983F294 
  96 0334 AB19BC6D 		.ascii	"\253\031\274m\227$v\002o\320\370\332|d\337J\310\343"
  96      97247602 
  96      6FD0F8DA 
  96      7C64DF4A 
  96      C8E3
  97 0346 CB906DCC 		.ascii	"\313\220m\314\317\311\236\311\312\266\351B-\376>\011"
  97      CFC99EC9 
  97      CAB6E942 
  97      2DFE3E09 
  98 0356 4BAD590C 		.ascii	"K\255Y\014./u\242\261=\025\371|%+\361M\020\037U\351"
  98      2E2F75A2 
  98      B13D15F9 
  98      7C252BF1 
  98      4D101F55 
  99 036b A492CD03 		.ascii	"\244\222\315\003\307\002\255\340l\340\027\000~\204R"
  99      C702ADE0 
  99      6CE01700 
  99      7E8452
 100 037a 95B28CDC 		.ascii	"\225\262\214\334\007@\274\223\273\375)\016l\026\302"
 100      0740BC93 
 100      BBFD290E 
 100      6C16C2
 101 0389 F1CC9D57 		.ascii	"\361\314\235W]>\304\233\007<,^e\337\320\236\325)Nw~"
 101      5D3EC49B 
 101      073C2C5E 
 101      65DFD09E 
 101      D5294E77 
 102 039e 0EBD5889 		.ascii	"\016\275X\2117\253lM\345\333\301\217\203\241@U\360\275"
 102      37AB6C4D 
 102      E5DBC18F 
 102      83A14055 
 102      F0BD
 103 03b0 77376FDF 		.ascii	"w7o\337\031\332\032\254\334\264y\373\372\327*\327\177"
 103      19DA1AAC 
 103      DCB479FB 
 103      FAD72AD7 
 103      7F
 104 03c1 FAD6B6C0 		.ascii	"\372\326\266\300\216\017\326lef(X\265%\260mg\320\372"
 104      8E0FD66C 
 104      65662858 
 104      B525B06D 
 104      67D0FA
 105 03d4 24100A7C 		.ascii	"$\020\012|\024\254\012\206vh\0336n\262\330S\247:\026"
 105      14AC0A86 
 105      76681B36 
 105      6EB2D853 
 105      A73A16
 106 03e7 C1       		.ascii	"\301"
 107              		.text
ARM GAS  C:\Users\victo\AppData\Local\Temp\cckkraNh.s 			page 8


 108              		.section	.gnu.lto_CySysFlashClockConfig.92f685f1,"",%progbits
 109 0000 789C7D52 		.ascii	"x\234}RMH\224a\020\236y\337\357g\377l#\254\203\247@"
 109      4D489461 
 109      109E79DF 
 109      EF67FF6C 
 109      23AC83A7 
 110 0015 C83A6417 		.ascii	"\310:d\027\017]\262\203P\267\022\004OB\210-t\020\005"
 110      0F5DB283 
 110      50B71204 
 110      4F42882D 
 110      741005
 111 0028 53A84BBE 		.ascii	"S\250K\276\273.\022v\2210Z\025\311\016\231Y\271\226"
 111      BB2E1276 
 111      91305A15 
 111      C90E9959 
 111      B996
 112 003a 69AE492D 		.ascii	"i\256I-\225m\022%\026if\377\250Y\210\254\024\331\006"
 112      956D1225 
 112      166966FF 
 112      A85988AC 
 112      14D906
 113 004d 6633DFB7 		.ascii	"f3\337\267\273\270\006\276\360\275?3\317<\317\314|#"
 113      BBB806BE 
 113      F0BD3F33 
 113      CF3CCFCC 
 113      7C23
 114 005f E1FF554A 		.ascii	"\341\377UJ_L\002\024\320\211\016@\321\374\002\300\357"
 114      5F4C0214 
 114      D0890E40 
 114      D1FC02C0 
 114      EF
 115 0070 1042C6BC 		.ascii	"\020B\306\274\240\\\332X!(\217D\3236kB\357\334Of#\276"
 115      A05CDA58 
 115      21288F44 
 115      D3366B42 
 115      EFDC4F66 
 116 0086 9DCC3A1A 		.ascii	"\235\314:\032\266\331H\371MD\276\000B\275\220\232n\230"
 116      B6D948F9 
 116      4D44BE00 
 116      42BD909A 
 116      6E98
 117 0098 588FDFC4 		.ascii	"X\217\337\304\262\300H\357\317\347\356\005\221\020\260"
 117      B2C048EF 
 117      CFE7EE05 
 117      9110B0
 118 00a7 13E8397C 		.ascii	"\023\3509|\376i\310\340'j\374\234\232\014M9\363\256"
 118      FE69C8E0 
 118      276AFC9C 
 118      9A0C4D39 
 118      F3AE
 119 00b9 281588BF 		.ascii	"(\025\210\277|\365$\273\265\245\223\\\002~\010\300\253"
 119      7CF524BB 
 119      B5A5935C 
 119      027E08C0 
 119      AB
 120 00ca 9883DD98 		.ascii	"\230\203\335\230\303\234\3270\217\301\221\370\320_\207"
 120      C39CD730 
ARM GAS  C:\Users\victo\AppData\Local\Temp\cckkraNh.s 			page 9


 120      8FC191F8 
 120      D05F87
 121 00d9 DC857C5F 		.ascii	"\334\205|_\015,\316\350\271\227)\360\323\245\201S\255"
 121      0D2CCEE8 
 121      B99729F0 
 121      D3A58153 
 121      AD
 122 00ea AA33D0AC 		.ascii	"\2523\320\254\326\326\016\"Ec\017\312L\002^\024\263"
 122      D6D60E22 
 122      45630FCA 
 122      4C025E14 
 122      B3
 123 00fb 1C5C9D72 		.ascii	"\034\\\235r\033A\245\324V\274\216\271\254B\3447\320"
 123      1B41A5D4 
 123      56BC8EB9 
 123      AC42E437 
 123      D0
 124 010c 403AD812 		.ascii	"@:\330\022\336\026%\222\376\361\266\300\236\210\314"
 124      DE162592 
 124      FEF1B6C0 
 124      9E88CC
 125 011b 42609B80 		.ascii	"B`\233\200\204\220\006m\232\311\233\2037'\333\\|s\363"
 125      8490066D 
 125      9AC99B83 
 125      3727DB5C 
 125      7C73F3
 126 012e E6E127C0 		.ascii	"\346\341'\300,\321q\017\346\250\000:\345$\006\242\017"
 126      2CD1710F 
 126      E6A8003A 
 126      E52406A2 
 126      0F
 127 013f BEC7D152 		.ascii	"\276\307\321R &\312\340\343\354\370\204c\301*\021\360"
 127      2026CAE0 
 127      E3ECF884 
 127      63C12A11 
 127      F0
 128 0150 26E5F616 		.ascii	"&\345\366\026\037\306\373\036\267\237a\014\371\3175"
 128      1FC6FB1E 
 128      B79F610C 
 128      F9CF35
 129 015f 8577B05B 		.ascii	"\205w\260[?\253\242\312jP:B\267J\350\356z\326\226\325"
 129      3FABA2CA 
 129      6A503A42 
 129      B74AE8EE 
 129      7AD696D5 
 130 0173 81EDFEA0 		.ascii	"\201\355\376\240?\252'\204\201\275Td\230\213\304>\354"
 130      3FAA2784 
 130      81BD5464 
 130      988BC43E 
 130      EC
 131 0184 40427CED 		.ascii	"@B|\355\350\212y8@\033\234\220\200\267\222\"\361\321"
 131      E88A7938 
 131      401B9C90 
 131      80B79222 
 131      F1D1
 132 0196 B448E0CF 		.ascii	"\264H\340\317\340E\247E\031L\251\364|\036\035\221\353"
 132      E045A745 
ARM GAS  C:\Users\victo\AppData\Local\Temp\cckkraNh.s 			page 10


 132      194CA9F4 
 132      7C1E1D91 
 132      EB
 133 01a7 696FA769 		.ascii	"io\247i\373m\332\206\276\226fi\321^\240\376\321\270"
 133      FB6DDA86 
 133      BE966669 
 133      D15EA0FE 
 133      D1B8
 134 01b9 DC21EF0C 		.ascii	"\334!\357\014\252G\241*\246\345\016\357c\241_MKC\015"
 134      AA47A12A 
 134      A6E50EEF 
 134      63A15F4D 
 134      4B430D
 135 01cc 2E36AD08 		.ascii	".6\255\010##a\314Lw\200x)\240\341\267a\203M\033?\035"
 135      232361CC 
 135      4C778078 
 135      29A0E1B7 
 135      61834D1B 
 136 01e2 7EDFB5C5 		.ascii	"~\337\265\305\322!\031\345\005\034$\364k\014\276\221"
 136      D22119E5 
 136      051C24F4 
 136      6B0CBE91 
 137 01f2 499865E0 		.ascii	"I\230e\3405G=\217y%k&\365\034\233\351\335\335\240\347"
 137      35473D8F 
 137      79256B26 
 137      F51C9BE9 
 137      DDDDA0E7 
 138 0206 B4F1A1F6 		.ascii	"\264\361\241\366\304}\223\365\344\032\375\357!\213{"
 138      C47D93F5 
 138      E41AFDEF 
 138      218B7B
 139 0215 4E683056 		.ascii	"Nh0V\270\236\331\265\031sd\003\263\233\360\251\264\247"
 139      B89ED9B5 
 139      19736403 
 139      B39BF0A9 
 139      B4A7
 140 0227 9369BB89 		.ascii	"\223i\273\211\300\277\370e\002\323\245\271\000\207\323"
 140      C0BFF865 
 140      02D3A5B9 
 140      0087D3
 141 0236 95E8D0B8 		.ascii	"\225\350\320\270w\275\236g3\275{\254\307Q\006g\011\363"
 141      77BD9E67 
 141      33BD7BAC 
 141      C7510667 
 141      09F3
 142 0248 282840CF 		.ascii	"((@\317\030\026\232F\034\301\034\215Qfj\030\325\201"
 142      18169A46 
 142      1CC11C8D 
 142      51666A18 
 142      D581
 143 025a D424AE08 		.ascii	"\324$\256\010\204\017\350\217\366/\355\266\365\210o"
 143      840FE88F 
 143      F62FEDB6 
 143      F5886F
 144 0269 1E919A22 		.ascii	"\036\221\232\"\337-7f\257\010\242\246qF\216\244I\315"
 144      DF2D3766 
 144      AF08A2A6 
ARM GAS  C:\Users\victo\AppData\Local\Temp\cckkraNh.s 			page 11


 144      71468EA4 
 144      49CD
 145 027b CD2F3BEC 		.ascii	"\315/;\354\253\362\325\224\327\372\216\037+\251\256"
 145      ABF2D594 
 145      D7FA8E1F 
 145      2BA9AE
 146 028a ABA9F095 		.ascii	"\253\251\360\225\025\227T\027\025\224\025\235>TY~\362"
 146      15975417 
 146      1594159D 
 146      3E54597E 
 146      F2
 147 029b 447E0538 		.ascii	"D~\0058j|\265\245\345\225u>\375\310\321b\027\374\003"
 147      6A7CB5A5 
 147      E595753E 
 147      FDC8D162 
 147      17FC03
 148 02ae 05AB60BD 		.ascii	"\005\253`\275"
 149              		.text
 150              		.section	.gnu.lto_CySysFlashClockRestore.92f685f1,"",%progbits
 151 0000 789C7D54 		.ascii	"x\234}T]L\024W\024\276\347\336\371c\226\335\241M\353"
 151      5D4C1457 
 151      14BEE7DE 
 151      F96396DD 
 151      A14DEB
 152 0013 03699B26 		.ascii	"\003i\233&$\245/\270/}0M\324&&\355\233\232\230\370D"
 152      24A52FB8 
 152      2F7D304D 
 152      D42626ED 
 152      9B9A98F8 
 153 0028 D36CEC26 		.ascii	"\323l\354&Mck\263b\202\017\304\331u\243F[KMU\0244\030"
 153      4D636BB3 
 153      62820FC4 
 153      D975A346 
 153      5B4B4D55 
 154 003f 0BB5B080 		.ascii	"\013\265\260\200\305\026\004\025VA\021\250\266D\005"
 154      C5160415 
 154      564111A8 
 154      B64405
 155 004e 7F291A96 		.ascii	"\177)\032\226bB\332\025\332\342\250\013=\347\316.\331"
 155      6242DA15 
 155      DAE2A80B 
 155      3DE7CE2E 
 155      D9
 156 005f A50993CC 		.ascii	"\245\011\223\314\2359\177\337\367\2353\367\216`\377"
 156      9D397FDF 
 156      F79D33F7 
 156      8E60FF
 157 006e BF36E21D 		.ascii	"\2776\342\035S\031[\215O0\030\360\312\353\214\205\015"
 157      53195B8D 
 157      4F3018F0 
 157      CAEB8C85 
 157      0D
 158 007f CE459FC5 		.ascii	"\316E\237\305lS\351_\305\354|\001\272\353V\270Z\273"
 158      6C53E95F 
 158      C5EC7C01 
 158      BAEB56B8 
 158      5ABB
ARM GAS  C:\Users\victo\AppData\Local\Temp\cckkraNh.s 			page 12


 159 0091 02DD5AF2 		.ascii	"\002\335Z\362Ut\253\240\271n-\023\327\001\350\205\001"
 159      5574ABA0 
 159      B96E2D13 
 159      D701E885 
 159      01
 160 00a2 DBC185A2 		.ascii	"\333\301\205\242j:\354\200\307\374\011\207\216\346\277"
 160      6A3AEC80 
 160      C7FC0987 
 160      8EE6BF
 161 00b1 AF7926B9 		.ascii	"\257y&\271\303\331\233\014\315\316\003W\25342A!sd\270"
 161      C3D99B0C 
 161      CDCE0357 
 161      AB343241 
 161      217364B8 
 162 00c5 6A24AFB8 		.ascii	"j$\257\270\316\266#\311\351\177\256\274r\344\333Z\014"
 162      CEB623C9 
 162      E97FAEBC 
 162      72E4DB5A 
 162      0C
 163 00d6 7136C319 		.ascii	"q6\303\031|\017\205p\012\012\011\363\007(\246\344\216"
 163      7C0F8570 
 163      0A0A09F3 
 163      0728A6E4 
 163      8E
 164 00e7 E4D93943 		.ascii	"\344\3319C\274\005\364\236\212L\335S\213N`\341XG{\371"
 164      BC05F49E 
 164      8A4CDD53 
 164      8B4E60E1 
 164      58477BF9 
 165 00fb 11BB3652 		.ascii	"\021\2736Ri\317\317\257\006\254\206\006\020\271\000"
 165      69CFCFAF 
 165      06AC8606 
 165      10B900
 166 010a 74614D77 		.ascii	"taMw\345T\247\"\374\262\276\365d][\236\224\365\036\231"
 166      E554A722 
 166      FCB2BEF5 
 166      645D5B9E 
 166      94F51E99 
 167 011e DF1D3C14 		.ascii	"\337\035<\024S\245,\203\314DSwBA\364\336\360\330\205"
 167      53A52C83 
 167      CC445377 
 167      4241F4DE 
 167      F0D885
 168 0131 F61710CE 		.ascii	"\366\027\020\316\202\027\020s\341\233\020\2769\033\376"
 168      82171073 
 168      E19B10BE 
 168      391BFE
 169 0140 493435E2 		.ascii	"I45\342\321\242\266m\027@#\024A\013\024Q#\250\3774h"
 169      D1A2B66D 
 169      17402314 
 169      410B1451 
 169      23A8FF34 
 170 0155 C018CF78 		.ascii	"\300\030\317x[^\216#\330\231\373\325\221\225\203\342"
 170      5B5E8E23 
 170      D899FBD5 
 170      919583E2 
 171 0165 2560E4E7 		.ascii	"%`\344\347\314\341\212\212\213\252\323b\322\342\241"
ARM GAS  C:\Users\victo\AppData\Local\Temp\cckkraNh.s 			page 13


 171      CCE18A8A 
 171      8BAAD362 
 171      D2E2A1
 172 0174 259F162F 		.ascii	"%\237\026/E}\364f\321R@&c\343\010NCO\340\304\360)\206"
 172      457DF466 
 172      D1524026 
 172      63E3084E 
 172      434FE0C4 
 173 018b 21129FF9 		.ascii	"!\022\237\3713\011\222\0171Q\323\357\343\277\016\031"
 173      3309920F 
 173      3151D3EF 
 173      E3BF0E19 
 174 019b 9372A60C 		.ascii	"\223r\246\014~D\265w\341R\362\364\315\232r\312\301x"
 174      7E44B577 
 174      E152F2F4 
 174      CD9A72CA 
 174      C178
 175 01ad B8FEDC97 		.ascii	"\270\376\334\227:\3055\331\302o\215]1\356o\262\243\341"
 175      3AC535D9 
 175      C26F8D5D 
 175      31EE6FB2 
 175      A3E1
 176 01bf B8DFE13A 		.ascii	"\270\337\341:\211\205V\267G8\003~\314\370\352\233\372"
 176      898556B7 
 176      4738037E 
 176      CCF8EA9B 
 176      FA
 177 01d0 063937B5 		.ascii	"\00697\265\355\226`\360\223\204\214\214\356\036\035"
 177      ED9660F0 
 177      93848C8C 
 177      EE1E1D
 178 01df E8B10873 		.ascii	"\350\261\010s\226\253\230u\374\306\376f^\361\334\336"
 178      96AB9875 
 178      FCC6FE66 
 178      5EF1DCDE 
 179 01ef 631B0E37 		.ascii	"c\033\0167R\334\035\320\202\030C\232\247\302\321\032"
 179      52DC1DD0 
 179      8218439A 
 179      A7C2D11A 
 180 01ff 3806D561 		.ascii	"8\006\325a\233\262\362\340g\250\2006\"\303\330\\\354"
 180      9BB2F2E0 
 180      67A88036 
 180      22C3D85C 
 180      EC
 181 0210 EB56ADA4 		.ascii	"\353V\255\244\021g\031/w\270\011\355\2308\315\323\203"
 181      1167192F 
 181      77B809ED 
 181      9838CDD3 
 181      83
 182 0221 DE53333F 		.ascii	"\336S3?d\242J\014\356\027\016\367\300Y(\311\310\304"
 182      64A24A0C 
 182      EE170EF7 
 182      C05928C9 
 182      C8C4
 183 0233 F05F7753 		.ascii	"\360_wS\323y\222<\276\316\341\371\320\001~\224\337\011"
 183      D379923C 
 183      BECEE1F9 
ARM GAS  C:\Users\victo\AppData\Local\Temp\cckkraNh.s 			page 14


 183      D0017E94 
 183      DF09
 184 0245 15D4FC81 		.ascii	"\025\324\374\201\023o\244[\357;6\331\252\310\326\345"
 184      136FA45B 
 184      EF3B36D9 
 184      AAC8D6E5 
 185 0255 86783C7B 		.ascii	"\206x<{\350\017kQ\353\347\322\255\237\007?\366\3456"
 185      E80F6B51 
 185      EBE7D2AD 
 185      9F073FF6 
 185      E536
 186 0267 3A317072 		.ascii	":1pr\231\333\250\236;\260\212E\003\303\350L\357\321"
 186      99DBA89E 
 186      3BB08A45 
 186      03C3E84C 
 186      EFD1
 187 0279 1B3A2A41 		.ascii	"\033:*A\241\237:\334\013\027\244\222\256\264\222\207"
 187      A19F3ADC 
 187      0B17A492 
 187      AEB49287 
 188 0289 C56925FB 		.ascii	"\305i%\373\366\266,#!>Tl+9\223\362\271\223\252\037<"
 188      F6B62C23 
 188      213E546C 
 188      2B3993F2 
 188      B993AA1F 
 189 029e EAA54921 		.ascii	"\352\245I!\315\353\016\267\240\033\367^\234h\340\"\016"
 189      CDEB0EB7 
 189      A01BF75E 
 189      9C68E022 
 189      0E
 190 02af 06A5C8EF 		.ascii	"\006\245\310\357\232\034\2569\016i\314\310\263\266\303"
 190      9A1CAE39 
 190      0E69CCC8 
 190      B3B6C3
 191 02be F23BF9A2 		.ascii	"\362;\371\242\031\320\206\207\227\317\213l\224K\013"
 191      19D08687 
 191      97CF8B6C 
 191      944B0B
 192 02cd 283D8882 		.ascii	"(=\210\202\031cu\027g,\371q\017\243f\374'\364b\364\036"
 192      19637517 
 192      672CF971 
 192      0FA366FC 
 192      27F462F4 
 193 02e2 D83DF743 		.ascii	"\330=\367C\004K]\275KL\377\356\235\033\330\351s\247"
 193      044B5DBD 
 193      4B4CFFEE 
 193      9D1BD8E9 
 193      73A7
 194 02f4 60E6E883 		.ascii	"`\346\350\203\\u\227\021\027\013v>\325\334d\217\233"
 194      5C759711 
 194      170B763E 
 194      D5DC648F 
 194      9B
 195 0305 7FA7E541 		.ascii	"\177\247\345A\275O\362 \215m1\270\202\331\267 z[\244"
 195      BD4FF220 
 195      8D6D31B8 
 195      82D9B720 
ARM GAS  C:\Users\victo\AppData\Local\Temp\cckkraNh.s 			page 15


 195      7A5BA4
 196 0318 D3A483AE 		.ascii	"\323\244\203\256\004\027\254\317\022\304i\272\261\374"
 196      0417ACCF 
 196      12C469BA 
 196      B1FC
 197 0326 A5F8FA16 		.ascii	"\245\370\372\026\361y\335\374\252j\247K\356re\036O\333"
 197      F179DDFC 
 197      AA6AA74B 
 197      EE72651E 
 197      4FDB
 198 0338 55899DC0 		.ascii	"U\211\235\300\023\324\277*\033\331\267\024r\377\"d\013"
 198      13D4BF2A 
 198      1BD9B714 
 198      72FF2264 
 198      0B
 199 0349 F333B2EF 		.ascii	"\3633\262\357\244e[t\240\246\036\015\301Bk&\203\201"
 199      A4655B74 
 199      A0A61E0D 
 199      C1426B26 
 199      8381
 200 035b 854E54B6 		.ascii	"\205NT\266\253$\233\257`)\276A\342\243*\215T\262\011"
 200      AB249BAF 
 200      6029BE41 
 200      E2A32A8D 
 200      54B209
 201 036e E058A0E6 		.ascii	"\340X\240\346\354\015\374\003\300/P\250P\226\236\371"
 201      EC0DFC03 
 201      C02F50A8 
 201      50969EF9 
 202 037e 01D81F66 		.ascii	"\001\330\037fN\377,\0076\012\341xj\372m\227\017\361"
 202      4EFF2C07 
 202      360AE178 
 202      6AFA6D97 
 202      0FF1
 203 0390 2600378B 		.ascii	"&\0007\213W\2748\270\373\265YNg~\034\275X\211'\253h"
 203      57BC38B8 
 203      FBB5594E 
 203      677E1CBD 
 203      588927AB 
 204 03a5 79E907C1 		.ascii	"y\351\007\301\317\203\241@Y\360\343\2176l\331\026\332"
 204      CF83A140 
 204      59F0E38F 
 204      366CD916 
 204      DA
 205 03b6 142C5DBF 		.ascii	"\024,]\277a\313\232wJ\327l\177\177s`\353'\31371#\024"
 205      61CB9A77 
 205      4AD76C7F 
 205      7F7360EB 
 205      27CB3731 
 206 03cc 2CDB18D8 		.ascii	",\333\030\330\274-h~\021\010\005>\013\226\005C[\325"
 206      BC2D687E 
 206      1108053E 
 206      0B960543 
 206      5BD5
 207 03de B5EBD69B 		.ascii	"\265\353\326\233\354?\025H\027\345"
 207      EC3F1548 
 207      17E5
ARM GAS  C:\Users\victo\AppData\Local\Temp\cckkraNh.s 			page 16


 208              		.text
 209              		.section	.gnu.lto_CySysFlashWriteRow.92f685f1,"",%progbits
 210 0000 789C7D56 		.ascii	"x\234}V}PTU\024\277\347\276\267\337\337\300\262J\205"
 210      7D505455 
 210      14BFE7BE 
 210      B7DFDFC0 
 210      B24A85
 211 0013 4E8846A9 		.ascii	"N\210F\251\230i\34646\315\330\324_Y\2233M\3158\025c"
 211      9869E634 
 211      36CDD8D4 
 211      5F599333 
 211      4DCD3815 
 212 0028 F431193A 		.ascii	"\3641\031:\204S\375a=\330\315\210\312)\2622\030\035"
 212      8453FD61 
 212      3DD8CD88 
 212      CA29B232 
 212      181D
 213 003a 8C34FC44 		.ascii	"\2144\374D\3114\021u\375\012\0254W\004\004\011\321\204"
 213      C9341175 
 213      FD0A1534 
 213      57040409 
 213      D184
 214 004c B09CC230 		.ascii	"\260\234\3020m3\243s\356}\273\276]\215\235\331\263\357"
 214      6D33A373 
 214      EE7DBBBE 
 214      5D8D9DD9 
 214      B3EF
 215 005e DE7BCEEF 		.ascii	"\336{\316\357w\356\271\367\374\366)\354\306O&0v\325"
 215      77EEB9F7 
 215      FCF629EC 
 215      C64F2630 
 215      76D5
 216 0070 C9D83C7C 		.ascii	"\311\330<|\206\021\014\370GG\031+\266r\256\224\216c"
 216      86110CF8 
 216      4747192B 
 216      B672AE94 
 216      8E63
 217 0082 9A3D9DAC 		.ascii	"\232=\235\254S\341j\343\2754:\024\300\221\312M\003~"
 217      53E16AE3 
 217      BD343A14 
 217      C091CA4D 
 217      037E
 218 0094 1C99ABEE 		.ascii	"\034\231\253\356\303\221\011l2\304\314-4a\267\322\242"
 218      C391096C 
 218      32C4CC2D 
 218      3461B7D2 
 218      A2
 219 00a5 D3025639 		.ascii	"\323\002V9m\215\255\333\270\275>\023\327\003m\271\270"
 219      6D8DADDB 
 219      B8BD3E13 
 219      D7036DB9 
 219      B8
 220 00b6 6EE78E13 		.ascii	"n\347\216\023\3518r6L\303\221\003\234\322\311\311]\202"
 220      E9387236 
 220      4CC39103 
 220      9CD2C9C9 
 220      5D82
ARM GAS  C:\Users\victo\AppData\Local\Temp\cckkraNh.s 			page 17


 221 00c8 3755F0BA 		.ascii	"7U\360\272\270[0y\004\223\033R\244\223\207{\005\223"
 221      B85B3079 
 221      04931B52 
 221      A493877B 
 221      0593
 222 00da 4F3079C1 		.ascii	"O0y\301'\247}\261\365\024H\225\017\251<MP\372\005e\032"
 222      27A77DB1 
 222      F5144895 
 222      0FA93C4D 
 222      50FA0565 
 223 00ef F8E5B41F 		.ascii	"\370\345\264\037\002\362!=\366\020\000\240\007\006\354"
 223      02F2213D 
 223      F61000A0 
 223      0706EC
 224 00fe 6DAEA826 		.ascii	"m\256\250&\263\305j\263;\234.\267\307\353KIM\363\247"
 224      B3C56AB3 
 224      3B9C2EB7 
 224      C7EB4B49 
 224      4DF3A7
 225 0111 07E06D38 		.ascii	"\007\340m8\317/r\330\276\361\322\021G?\217r6\232\341"
 225      CF2F72D8 
 225      BEF1D211 
 225      473F8F72 
 225      369AE1
 226 0124 B0BEFCE0 		.ascii	"\260\276\374\34023\015A\245a{\333\262v\333\270U\232"
 226      32330D41 
 226      A5617BDB 
 226      B276DBB8 
 226      559A
 227 0136 563250F2 		.ascii	"V2P\362\355s_,\255\302\025\316\0069\203\257!\003j \203"
 227      ED735F2C 
 227      ADC215CE 
 227      063983AF 
 227      21036A20 
 228 014b 28D6C038 		.ascii	"(\326\3008t\275\264\267\3574(c\201\302j:\017\257\361"
 228      74BDB4B7 
 228      EF342863 
 228      81C26A3A 
 228      0FAFF1
 229 015e 64576358 		.ascii	"dWcX\370p\235\366\240\212A\260\026\024c\034\341\300"
 229      F8709DF6 
 229      A08A41B0 
 229      1614631C 
 229      E1C0
 230 0170 3AC846EF 		.ascii	":\310F\357\216=e\025&e\202\210\374\254\251\030'E\344"
 230      8E3D6515 
 230      26658288 
 230      FCACA918 
 230      2745E4
 231 0183 6F325281 		.ascii	"o2R\201\365\311\221\012\203\015\220M\356\333\007\276"
 231      F5C9910A 
 231      830D904D 
 231      EEDB07BE 
 232 0193 FBD7AA4C 		.ascii	"\373\327\252L\025\241\337Wh+<Y+\265P\260gmu\223S;\250"
 232      15A1DF57 
 232      682B3C59 
 232      2BB550B0 
ARM GAS  C:\Users\victo\AppData\Local\Temp\cckkraNh.s 			page 18


 232      676D7593 
 233 01aa 857A8686 		.ascii	"\205z\206\206FE\271\012\033\023\021\344\007C\272\367"
 233      4645B90A 
 233      1B1311E4 
 233      0743BAF7 
 234 01ba 9F7D5079 		.ascii	"\237}Py@Dok9\362\241IDW\255\2536\033b7\375O\354\356"
 234      40446F6B 
 234      39F2A149 
 234      4457ADAB 
 234      361B6237 
 235 01d2 8F2ED4AB 		.ascii	"\217.\324\253\312\243\222zc\177\203E\0241\354\245\361"
 235      CAA3927A 
 235      637F8345 
 235      1431ECA5 
 235      F1
 236 01e3 E5A19E4A 		.ascii	"\345\241\236J\253\250b)\247\361\037{\276iP\021|\177"
 236      ABA86229 
 236      A7F11F7B 
 236      BE695011 
 236      7C7F
 237 01f5 71D5FAAC 		.ascii	"q\325\372\2548\266\011\352$\3667\210\275\305\210\335"
 237      38B609EA 
 237      24F63788 
 237      BDC588DD 
 238 0205 7EFEEF4E 		.ascii	"~\376\357N\223\362\224\300\356=\264e\251\202\261ZI\317"
 238      93F294C0 
 238      EE3DB465 
 238      A982B15A 
 238      49CF
 239 0217 8660A343 		.ascii	"\206`\243C[\026\0137\303V\031>>\003r\014\301\027C\327"
 239      5B160B37 
 239      C356193E 
 239      3E03720C 
 239      C11743D7 
 240 022b DA1DE690 		.ascii	"\332\035\346\220\246i^\250\205,\330\214\337o\361\273"
 240      A6695EA8 
 240      852CD88C 
 240      DF6FF1BB 
 241 023b 0DB2E8E4 		.ascii	"\015\262\350\344\360\300\276\00336\211\232\274Z\233"
 241      F0C0BE03 
 241      3336899A 
 241      BC5A9B
 242 024a 12D68686 		.ascii	"\022\326\206\206\006O|\334\177\027\025%\312-\234\214"
 242      064F7CDC 
 242      7F171525 
 242      CA2D9C8C 
 243 025a 424625E3 		.ascii	"BF%\343\004:1\027P\365}8aM#\343'\223N&@N#\350i$\031"
 243      043A3117 
 243      50F57D38 
 243      614D23E3 
 243      27934E26 
 244 0275 3A2ACBAD 		.ascii	":*\313\255\364\224\311\010\1774=\336Nf\014\231\261d"
 244      F494C908 
 244      7F343DDE 
 244      4E660C99 
 244      B164
 245 0287 EE209343 		.ascii	"\356 \223C\346N2\343\311\344\222\231D\346n2\223\011"
ARM GAS  C:\Users\victo\AppData\Local\Temp\cckkraNh.s 			page 19


 245      E64E32E3 
 245      C9E49299 
 245      44E66E32 
 245      9309
 246 0299 E61E7A9A 		.ascii	"\346\036z\232Bf*\015\247\321\323t23\304Mb\347\360K\027"
 246      42662A0D 
 246      A7D1D374 
 246      3233C44D 
 246      62E7F04B 
 247 02ae BE1707F8 		.ascii	"\276\027\007\370\253t\302\336\201M\255\021\223\330+"
 247      AB74C2DE 
 247      814DAD11 
 247      93D82B
 248 02bd EE13EB72 		.ascii	"\356\023\353r\372\334\017\021q(*\226`;\226\233|\216"
 248      FADC0F11 
 248      71282A96 
 248      603B969B 
 248      7C8E
 249 02cf B58270A1 		.ascii	"\265\202p\2412\320\\+\204\216\004\253\227\214\240\311"
 249      32D05C2B 
 249      848E04AB 
 249      978CA0C9 
 250 02df 2BDC4967 		.ascii	"+\334Igyx\325\026\027\205\361!\274w\365\3721\365\342"
 250      7978D516 
 250      1785F121 
 250      BC77F5FA 
 250      31F5E2
 251 02f2 252C1DA7 		.ascii	"%,\035\247\240{G\260\217Ko\227\221DA\222\035qg\225U"
 251      A07B47B0 
 251      8F4B6F97 
 251      91444192 
 251      1D716795 
 252 0307 DFA274C1 		.ascii	"\337\242t\301\342\360\347\215Nr\246sZ\321\262d#_tU+"
 252      E2F0E78D 
 252      4E72A673 
 252      5AD1B264 
 252      235F7455 
 253 031c D5AC516E 		.ascii	"\325\254Qn\033\344x$\320\000\213h\251\242\275\367\222"
 253      1BE47824 
 253      D0008B68 
 253      A9A2BDF7 
 253      92
 254 032d 42287671 		.ascii	"B(vq}\"\315\235Aw\356\006-T\034~\232\256$\235\327N\211"
 254      7D22CD9D 
 254      4177EE06 
 254      2D541C7E 
 254      9AAE249D 
 255 0344 8DAB7F56 		.ascii	"\215\253\177V\226\376cA\034M\013?\020\345\016\330\005"
 255      96FE6341 
 255      1C4D0B3F 
 255      10E50ED8 
 255      05
 256 0355 B9820276 		.ascii	"\271\202\002v\303\"\231\324\216\3465\265\\\300ix]\302"
 256      C32299D4 
 256      8EE635B5 
 256      5CC06978 
 256      5DC2
ARM GAS  C:\Users\victo\AppData\Local\Temp\cckkraNh.s 			page 20


 257 0367 9011E54E 		.ascii	"\220\021\345N\261\373\201k\305\026\362E\237\342\325"
 257      B1FB816B 
 257      C516F245 
 257      9FE2D5
 258 0376 3B3E1057 		.ascii	";>\020W\330.@\267\205J\253\234\222\362\256\030\345\036"
 258      D82E40B7 
 258      854AAB9C 
 258      92F2AE18 
 258      E51E
 259 0388 49097B21 		.ascii	"I\011{!\227:u\351\357\305*\005X\267\326ba\366\351\005"
 259      973A75E9 
 259      EFC52A05 
 259      58B7D662 
 259      61F6E905 
 260 039c 1D188A43 		.ascii	"\035\030\212C6.\357\257\023\036vq\221\203_\266|\352"
 260      362EEFAF 
 260      131E7671 
 260      91835FB6 
 260      7CEA
 261 03ae 4E82DCAF 		.ascii	"N\202\334\257C\036\020\220\313*\243\273D\016\352\020"
 261      431E1090 
 261      CB2AA3BB 
 261      440EEA10 
 262 03be 30F85E20 		.ascii	"0\370^ \226t\277{\264\246\002d\205}\211\231\275\231"
 262      9674BF7B 
 262      B4A60264 
 262      857D8999 
 262      BD99
 263 03d0 9419AEB6 		.ascii	"\224\031\256\266v\274[\251\312b<C\305h\204\\\204?\210"
 263      76BC5BA9 
 263      CA623C43 
 263      C568845C 
 263      843F88
 264 03e3 65C5E4CA 		.ascii	"e\305\344\312\317d\353\251\275_V\233ND\256R-\254\011"
 264      CF64EBA9 
 264      BD5F569B 
 264      4E44AE52 
 264      2DAC09
 265 03f6 A58B1F9C 		.ascii	"\245\213\037\234K\340\324\254n\252p-\207\312b\244\031"
 265      4BE0D4AC 
 265      6EAA702D 
 265      87CA62A4 
 265      19
 266 0407 19E56E38 		.ascii	"\031\345n8\204=z\230h\240\011\226\003\246\"v\273\351"
 266      843D7A98 
 266      68A00996 
 266      03A62276 
 266      BBE9
 267 0419 409D4D87 		.ascii	"@\235M\207,\371{\353\3476\001\020\212a\256=s\240A1\202"
 267      2CF97BEB 
 267      E7360110 
 267      8A61AE3D 
 267      73A04131 
 268 042e 34C7418E 		.ascii	"4\307A\216 \010z\204V,o1\211\"R\277Z\031\034\305\325"
 268      20087A84 
 268      562C6F31 
 268      892252BF 
ARM GAS  C:\Users\victo\AppData\Local\Temp\cckkraNh.s 			page 21


 268      5A191CC5 
 269 0443 53A0EDFB 		.ascii	"S\240\355\373\314.\316\020?/\022\321\345\262\276\232"
 269      CC2ECE10 
 269      3F2F12D1 
 269      E5B2BE9A 
 270 0453 A7640DD2 		.ascii	"\247d\015\322\022\262\203\304\334~@X\364\017\376e\226"
 270      12B283C4 
 270      DC7E4058 
 270      F40FFE65 
 270      96
 271 0464 CE7EE9DF 		.ascii	"\316~\351\337Q\373\343j\267\240A\026\315\303\340\230"
 271      51FBE36A 
 271      B7A04116 
 271      CDC3E098 
 272 0474 BCEA2715 		.ascii	"\274\352'\025\335ML\310\253jb\307-\324>\227\355r-}8"
 272      DD4D4CC8 
 272      AB6A62C7 
 272      2DD43E97 
 272      ED722D7D 
 273 0489 BE48125F 		.ascii	"\276H\022_@\372\307\017\322B\007y\\`\367r3;\236jD\036"
 273      40FAC70F 
 273      D2420779 
 273      5C60F772 
 273      333B9E6A 
 274 049f 311C724B 		.ascii	"1\034rK\022\362H\364\217\245\335\241\247=\222\356\355"
 274      12F248F4 
 274      8FA5DDA1 
 274      A73D92EE 
 274      ED
 275 04b0 85B31188 		.ascii	"\205\263\021\210o\315\316\340D|'\026V\3566\362e\014"
 275      6FCDCEE0 
 275      447C2716 
 275      56EE36F2 
 275      650C
 276 04c2 C7D74A7C 		.ascii	"\307\327J|\024e\245,Y\037p\014\260$\334\014\013\272"
 276      1465A52C 
 276      591F700C 
 276      B024DC0C 
 276      0BBA
 277 04d4 B5418699 		.ascii	"\265A\206\231\274l\324\320t\245V\372c\022s\205\203\270"
 277      BC6CD4D0 
 277      74A556FA 
 277      63127385 
 277      83B8
 278 04e6 649B1B8F 		.ascii	"d\233\033\217\233$\341\2554-\352\034,\320g\214\235f"
 278      9B24E1AD 
 278      342DEA1C 
 278      2CD0678C 
 278      9D66
 279 04f8 45BC7699 		.ascii	"E\274v\231m\037\340\225\012\230\232#\233\360\227\026"
 279      6D1FE095 
 279      0A989A23 
 279      9BF09716 
 280 0508 7AB10F23 		.ascii	"z\261\017#v\224\214`xgY\246\014\316L\026\015\317 I\037"
 280      76948C60 
 280      786759A6 
 280      0CCE4C16 
ARM GAS  C:\Users\victo\AppData\Local\Temp\cckkraNh.s 			page 22


 280      0DCF2049 
 281 051d 9CC4DB1D 		.ascii	"\234\304\333\035\345^\326\006B\210Hj\321\231Ql\244l"
 281      E55ED606 
 281      4288486A 
 281      D199516C 
 281      A46C
 282 052f 948C1D9D 		.ascii	"\224\214\035\235\034\353\033\024\022\325!bSD\342+3c"
 282      1CEB1B14 
 282      12D52162 
 282      5344E22B 
 282      3363
 283 0541 5288FE62 		.ascii	"R\210\376b\346b\353\037\026\031\177;M\313\255\274\025"
 283      E662EB1F 
 283      16197F3B 
 283      4DCBADBC 
 283      15
 284 0552 9B698F57 		.ascii	"\233i\217W\332\301\336WD\256\247b\271\216\271\011\037"
 284      DAC1DE57 
 284      44AEA762 
 284      B98EB909 
 284      1F
 285 0563 E96EA791 		.ascii	"\351n\247\221\357\266\353\245\033#p\234\264gA\334U\256"
 285      EFB6EBA5 
 285      1B23709C 
 285      B46741DC 
 285      55AE
 286 0575 138FBD5E 		.ascii	"\023\217\275^\303\267b3\327\211]\254\306$\265\276\273"
 286      C3B76233 
 286      D7895DAC 
 286      C624B5BE 
 286      BB
 287 0586 3CD68806 		.ascii	"<\326\210\006\201\270?Y\272N\011\235\271\322|\254\305"
 287      81B83F59 
 287      BA4E099D 
 287      B9D27CAC 
 287      C5
 288 0597 23A56B33 		.ascii	"#\245k3JW\227\224\256\372\213\335%6IqG\002\2145\031"
 288      4A579794 
 288      AEFA8BDD 
 288      25364971 
 288      47028C35 
 289 05ac E5471415 		.ascii	"\345G\024\025\274\232]\213\273T\351\237#\377*\232\316"
 289      BC9A5D8B 
 289      BB54E99F 
 289      23FF2A9A 
 289      CE
 290 05bd FE35E824 		.ascii	"\3765\350$\334T/\203n\201\032\274\264x\277\356t'\342"
 290      DC542F83 
 290      6E811ABC 
 290      B478BFEE 
 290      7427E2
 291 05d0 A2ABD83A 		.ascii	"\242\253\330:\334\220\353\015$\247!\027c\244\002\376"
 291      DC90EB0D 
 291      24A72117 
 291      63A402FE 
 292 05e0 BBAE5E57 		.ascii	"\273\256^W\300\361\211\033|O\031V\002\013H\002{\204"
 292      C0F1891B 
ARM GAS  C:\Users\victo\AppData\Local\Temp\cckkraNh.s 			page 23


 292      7C4F1956 
 292      020B4802 
 292      7B84
 293 05f2 049E8949 		.ascii	"\004\236\211I\340\004\235\332\250p9\211\275pV(\334x"
 293      E0049DDA 
 293      A8703989 
 293      BD705628 
 293      DC78
 294 0604 A970E7EA 		.ascii	"\251p\347\352\034z\204Q\316r\022\345\354')g\373v\365"
 294      1C7A8451 
 294      CE7212E5 
 294      EC272967 
 294      FB76F5
 295 0617 1F92CDF8 		.ascii	"\037\222\315\370\216\224\263s\272\234\225;\222\344\254"
 295      8E94B373 
 295      BA9C953B 
 295      92E4AC
 296 0626 6DFD1B72 		.ascii	"m\375\033rC\271\3035eo\222\010LB\377d\355\232d\320."
 296      43B9C335 
 296      656F9208 
 296      4C42FF64 
 296      ED9A64D0 
 297 063b 37DB0DC6 		.ascii	"7\333\015\306\216\277{8\360\276$\360\311\350\037\327"
 297      8EBF7B38 
 297      F0BE24F0 
 297      C9E81FD7 
 298 064b 2A0FFB45 		.ascii	"*\017\373E1\"\3353\034\322\317IHS\320?Y\253\246\030"
 298      3122DD33 
 298      1CD2CF49 
 298      4853D03F 
 298      59ABA618 
 299 065f 84C9CBCE 		.ascii	"\204\311\313\316p#\370\324\341\300\373c\302\344\243"
 299      7023F8D4 
 299      E1C0FB63 
 299      C2E4A3
 300 066e 94502954 		.ascii	"\224P)T\014\360\012%\362\320t\212\336\002\011\355\244"
 300      0CF00A25 
 300      F2D0748A 
 300      DE0209ED 
 300      A4
 301 067f 90A428B8 		.ascii	"\220\244(\270'\367A\313\025\256\372\31015\336\\\315"
 301      27F741CB 
 301      15AEFAC8 
 301      3135DE5C 
 301      CD
 302 0690 837A734D 		.ascii	"\203zsM\273\241\253\247\031\232+\215}\242\212\256\336"
 302      BBA1ABA7 
 302      199A2B8D 
 302      7DA28AAE 
 302      DE
 303 06a1 B6245BAE 		.ascii	"\266$[\256N\277IW\2330\307\363\306\256\036s]E\246\013"
 303      4EBF4957 
 303      9B30C7F3 
 303      C6AE1E73 
 303      5D45A60B 
 304 06b5 1CBF54B2 		.ascii	"\034\277T\262Px\347Q\367M_~\322\006\361\277\201\301"
 304      5078E751 
ARM GAS  C:\Users\victo\AppData\Local\Temp\cckkraNh.s 			page 24


 304      F74D5F7E 
 304      D206F1BF 
 304      81C1
 305 06c7 2F8882C2 		.ascii	"/\210\202\302\025\305\000\012Kg\027&\213\336\036h\255"
 305      15C5000A 
 305      4B671726 
 305      8BDE1E68 
 305      AD
 306 06d8 36BEC77D 		.ascii	"6\276\307}\0259\035\021/G\252\312\340W\375\274\002\261"
 306      15391D11 
 306      2F47AACA 
 306      E057FDBC 
 306      02B1
 307 06ea B7BEF2CD 		.ascii	"\267\276\362\315\355\263e\2623\204rt\203\33693\030\275"
 307      EDB365B2 
 307      33847274 
 307      83DE3933 
 307      18BD
 308 06fc 2502F9A1 		.ascii	"%\002\371\241hfM\234\363H~A~a^Q\376\363\317\316\236"
 308      68664D9C 
 308      F3487E41 
 308      7E615E51 
 308      FEF3CFCE 
 309 0711 BFB0706E 		.ascii	"\277\260pn\376\234\307g\317\2379e\316\3147\037\236\227"
 309      FE9CC767 
 309      CF9F3965 
 309      CECC371F 
 309      9E97
 310 0723 F7DA4B13 		.ascii	"\367\332K\023\3472s\341\374\327g-|\325\202?\017\345"
 310      E73273E1 
 310      FCD7672D 
 310      7CD5823F 
 310      0FE5
 311 0735 15E5590B 		.ascii	"\025\345Y\013\363\213\236\314\233\2670\337=w\336+3\013"
 311      F38B9ECC 
 311      9BB730DF 
 311      3D77DE2B 
 311      330B
 312 0747 5E78421F 		.ascii	"^xB\037\332\027\344\025\346\275\232_\224_\370\232\373"
 312      DA17E415 
 312      E6BD9A5F 
 312      945FF89A 
 312      FB
 313 0758 E502FC29 		.ascii	"\345\002\374)\\\270\240hv\021\"\233f=\366\270\235\375"
 313      5CB8A068 
 313      7611229B 
 313      663DF6B8 
 313      9DFD
 314 076a 0749CDAC 		.ascii	"\007I\315\254:"
 314      3A
 315              		.text
 316              		.section	.gnu.lto_CySysFlashSetWaitCycles.92f685f1,"",%progbits
 317 0000 789C9553 		.ascii	"x\234\225S[HTQ\024\335\373\334\327<|e\0209\220\011b"
 317      5B485451 
 317      14DDFBDC 
 317      D73C7C65 
 317      10399009 
ARM GAS  C:\Users\victo\AppData\Local\Temp\cckkraNh.s 			page 25


 318 0015 6699F6D1 		.ascii	"f\231\366\321O\037A \324o\340\257\024b\023\005\2215"
 318      4F1F4120 
 318      D46FE0AF 
 318      14621305 
 318      9135
 319 0027 E9471FE2 		.ascii	"\351G\037\342\035g*\355\205H\204(\006\022ei\251\371"
 319      1D672AED 
 319      85488428 
 319      06126569 
 319      A9F9
 320 0039 C87CA437 		.ascii	"\310|\2447\177\254D\3054%\021\225tH?\242dD\2354\246"
 320      7FAC44C5 
 320      34251195 
 320      74483FA2 
 320      64449D34 
 321 004e 7DCED531 		.ascii	"}\316\3251{\010\015\314>\347\256\263\366\332{m\316\221"
 321      7B080DCC 
 321      3EE7AEB3 
 321      F6DA7B6D 
 321      CE91
 322 0060 E0CF5F36 		.ascii	"\340\317_6\375=2\300aZ\321\006\310\212\373\001\334\026"
 322      FD3D32C0 
 322      615AD106 
 322      C88AFB01 
 322      DC16
 323 0072 C6A48E58 		.ascii	"\306\244\216X\320m\362p*\350a\022ZMXf\212\200U\001+"
 323      D06DF270 
 323      2AE86112 
 323      5A4D5866 
 323      8A805501 
 324 0087 EBB0CAB4 		.ascii	"\353\260\312\264\021\002l\2266:\014\323\326a\313\372"
 324      11026C96 
 324      363A0CD3 
 324      D661CBFA 
 325 0097 C68AC837 		.ascii	"\306\212\3107\200\220\317$YQ5B\362q\216\3153,6jJ\355"
 325      8090CF24 
 325      59513542 
 325      F2718ECD 
 325      332C366A 
 326 00ad 890F755D 		.ascii	"\211\017u]\377\366\376c\314\325\235\001\006\340gfoX"
 326      FFF6FE63 
 326      CCD59D01 
 326      06E06766 
 326      6F58
 327 00bf 85894419 		.ascii	"\205\211D\031j\271~D\332\203@\333\326\332\205>\373,"
 327      6AB97E44 
 327      DA8340DB 
 327      D6DA853E 
 327      FB2C
 328 00d1 0B308CE3 		.ascii	"\0130\214\343\237m%oJU\376\311d\376\371ee\372\235\232"
 328      9F6D256F 
 328      4A55FEC9 
 328      64FEF965 
 328      65FA9D9A 
 329 00e5 F040D70B 		.ascii	"\360@\327\013\214\276\006\375\250\034`\022>F\211\344"
 329      8CBE06FD 
 329      A81C6012 
ARM GAS  C:\Users\victo\AppData\Local\Temp\cckkraNh.s 			page 26


 329      3E4689E4 
 330 00f5 F0093AB0 		.ascii	"\360\011:\260\032\035@\020`\015&p\372\350\334\3671E"
 330      1A1D4010 
 330      600D2670 
 330      FAE8DCF7 
 330      3145
 331 0107 DA2F847D 		.ascii	"\332/\204}o\233\356J\361\225\224:5p\273\307\256\227"
 331      6F9BEE4A 
 331      F195943A 
 331      3570BBC7 
 331      AE97
 332 0119 EADEA960 		.ascii	"\352\336\251`pw\200\311\370\324THv`\222cmh\2240\357"
 332      707780C9 
 332      F8D45448 
 332      76609263 
 332      6D689430 
 333 012e FD316A57 		.ascii	"\3751jW\275\324w\024>\303x\263g\254E\025i\341H]\264"
 333      BDD47714 
 333      3EC378B3 
 333      67AC4515 
 333      69E1485D 
 334 0143 A107838D 		.ascii	"\241\007\203\215\237\357\025\356\323\266\313\300!\005"
 334      9FEF15EE 
 334      D3B6CBC0 
 334      2105
 335 0151 7969959A 		.ascii	"yi\225\232P4\036\254<\330x\260\363\020\316C\004\017"
 335      50341EAC 
 335      3CD878B0 
 335      F310CE43 
 335      040F
 336 0163 913C00CC 		.ascii	"\221<\000\314\220&\237\233\2171\276J\343\3501\032\313"
 336      90269F9B 
 336      8F31BE4A 
 336      E3E8311A 
 336      CB
 337 0174 77F02A4B 		.ascii	"w\360*KL\246&\356\017\335\251ey+z\241n\0110\325\317"
 337      4CA626EE 
 337      0FDDA965 
 337      792B7AA1 
 337      6E0930D5 
 338 0189 78ED3ACC 		.ascii	"x\355:\314\243l\015F\220\211v\250.\221\341\003z\373"
 338      A36C0D46 
 338      908976A8 
 338      2E91E103 
 338      7AFB
 339 019b 3CD32D7B 		.ascii	"<\323-{\315d\205\222{?-\373\303\370\360\224(\300z4\275"
 339      CD648592 
 339      7B3F2DFB 
 339      C3F8F094 
 339      28C07A34 
 340 01b0 F9683E1D 		.ascii	"\371h>\035\261\322\030v/\336\030\371Z\206&]%zy\247o"
 340      B1D21876 
 340      2FDE18F9 
 340      5A86265D 
 340      257A79A7 
 341 01c5 D8CAE996 		.ascii	"\330\312\351\226z\335\320\305\274'g\006\006-\002\022"
 341      7ADDD0C5 
ARM GAS  C:\Users\victo\AppData\Local\Temp\cckkraNh.s 			page 27


 341      BC276706 
 341      062D0212 
 342 01d5 2319BBF9 		.ascii	"#\031\273\371\272\236U`\271\333\213\001f\305\3474\362"
 342      BA9E5560 
 342      B9DB8B01 
 342      66C5E734 
 342      F2
 343 01e6 062E8B8D 		.ascii	"\006.\213\215X\2010\206\236\345k\2531\246\240fj\372"
 343      58813086 
 343      9EE56BAB 
 343      31A6A066 
 343      6AFA
 344 01f8 FA0B8AC2 		.ascii	"\372\013\212\302E\013\253\301`0\022\260\211\370T\273"
 344      450BABC1 
 344      603012B0 
 344      89F854BB 
 345 0208 A43281F3 		.ascii	"\2442\201\3636i\272\215\244\315\252\315\244JJ\242i\031"
 345      3669BA8D 
 345      A4CDAACD 
 345      A44A4AA2 
 345      6919
 346 021a 86532561 		.ascii	"\206S%a\321\377\253\305\320uQ\342\000_\204,*\320\033"
 346      D1FFABC5 
 346      D07551E2 
 346      005F842C 
 346      2AD01B
 347 022d 6D5A5C0C 		.ascii	"mZ\\\014Y\264ne\240%d`A5\3516\312X\353\326\263\020\262"
 347      59B46E65 
 347      A0256460 
 347      4135E936 
 347      CA58EBD6 
 348 0244 65A703D2 		.ascii	"e\247\003\322\351\251\230m\220EY\004|\371\037\226Z\205"
 348      E9A9986D 
 348      90455904 
 348      7CF91F96 
 348      5A85
 349 0256 25BB6852 		.ascii	"%\273hR\205\242]\246\245\252\216\344\015K\223K\223\335"
 349      85A25DA6 
 349      A5AA8EE4 
 349      0D4B934B 
 349      93DD
 350 0268 9AD03E08 		.ascii	"\232\320>\010\330\026\262\244\301\3446\323\322\304r"
 350      D816B2A4 
 350      C1E436D3 
 350      D2C472
 351 0277 C39AA5F0 		.ascii	"\303\232\245\360\255,\265\207,\015k&=\20226,\215;L4"
 351      AD2CB587 
 351      2C0D6B26 
 351      3D823236 
 351      2C8D3B4C 
 352 028c 920E48A7 		.ascii	"\222\016H\247l\324\267 \211\262\364\024:\326-%\376\305"
 352      6CD4B720 
 352      89B2F414 
 352      3AD62D25 
 352      FEC5
 353 029e D281CD75 		.ascii	"\322\201\315u^\011K\221\242I\013T\333\351\022{\215\346"
 353      5E094B91 
ARM GAS  C:\Users\victo\AppData\Local\Temp\cckkraNh.s 			page 28


 353      A2490B54 
 353      DBE9127B 
 353      8DE6
 354 02b0 89089E09 		.ascii	"\211\010\236\011\277_a\233\237n:`']a:r?j\277%\254\322"
 354      BF5F619B 
 354      9F6E3A60 
 354      275D613A 
 354      723F6ABF 
 355 02c7 40B00B1D 		.ascii	"@\260\013\035\001\026&d\254k\217\301ktM\260\177\351"
 355      01162664 
 355      AC6B8FC1 
 355      6B744DB0 
 355      7FE9
 356 02d9 48946390 		.ascii	"H\224c\220\016\335}\2367\201nc\360\244 \003\177X\310"
 356      0EDD7D9E 
 356      37816E63 
 356      F0A42003 
 356      7F58C8
 357 02ec 35A8567C 		.ascii	"5\250V|J\306q\347\005\247+3\307y\372Tzv\256+\313\231"
 357      4AC671E7 
 357      05A72B33 
 357      C779FA54 
 357      7A76AE2B 
 358 0302 71223D3B 		.ascii	"q\"=;\355PF\332\225c\3473/\237M\311\002\371\214\313"
 358      ED5046DA 
 358      9563E733 
 358      2F9F4DC9 
 358      02F98CCB 
 359 0316 7929E2DC 		.ascii	"y)\342\334\205\034\247\313\225{1'=\207\310?\001=W\256"
 359      851CA7CB 
 359      957B3127 
 359      3D87C83F 
 359      013D57AE 
 360 032a B0       		.ascii	"\260"
 361              		.text
 362              		.section	.gnu.lto_.symbol_nodes.92f685f1,"",%progbits
 363 0000 789C55C8 		.ascii	"x\234U\310=\016\001Q\024\305\361\363\356\275\357c\022"
 363      3D0E0151 
 363      14C5F1F3 
 363      EEBDEF63 
 363      12
 364 0011 7B50AAB4 		.ascii	"{P\252\264\266w&S\211\002\033\300\024o)S\211(DKD\255"
 364      B6772653 
 364      89021BC0 
 364      146F2953 
 364      8928444B 
 365 0027 D58A1124 		.ascii	"\325\212\021$oNs\362\373+\200\013~\023%\260>\002$6\355"
 365      6F4E73F2 
 365      FB2B800B 
 365      7E1325B0 
 365      3E022436 
 366 003c 7C040FB4 		.ascii	"|\004\017\264B\025\243\033t\361\224ap\324\177\330\266"
 366      4215A31B 
 366      74F19461 
 366      70D47FD8 
 366      B6
 367 004d 0922B4D2 		.ascii	"\011\"\264\322.\321\177\215\272\356\031\031J\006\306"
ARM GAS  C:\Users\victo\AppData\Local\Temp\cckkraNh.s 			page 29


 367      2ED17F8D 
 367      BAEE1919 
 367      4A06C6
 368 005c 92155341 		.ascii	"\222\025SA\265\204\374\234\252Et\313\203\250\001\315"
 368      B584FC9C 
 368      AA4574CB 
 368      83A801CD 
 369 006c EAF382E6 		.ascii	"\352\363\202\3464QS\334\2573\265\200\274\353\253\217"
 369      345153DC 
 369      AF33B580 
 369      BCEBAB8F 
 370 007c C8B79753 		.ascii	"\310\267\227S_!\357\317\275\003\272\305c\2147\262\274"
 370      5F21EFCF 
 370      BD03BAC5 
 370      638C37B2 
 370      BC
 371 008d 3918     		.ascii	"9\030"
 372              		.text
 373              		.section	.gnu.lto_.refs.92f685f1,"",%progbits
 374 0000 789C6366 		.ascii	"x\234cf``\340f\200\000F\006&FfFf \301\000\000\001\215"
 374      6060E066 
 374      80004606 
 374      26466646 
 374      6620C100 
 375 0017 0020     		.ascii	"\000 "
 376              		.text
 377              		.section	.gnu.lto_.decls.92f685f1,"",%progbits
 378 0000 789CB556 		.ascii	"x\234\265V\177L\024w\026\2377\303\262\354\262\200\305"
 378      7F4C1477 
 378      169F37C3 
 378      B2ECB280 
 378      C5
 379 0011 1C36DEE5 		.ascii	"\0346\336\345\272\326\304\350EIZ\315\245\355?\247\335"
 379      BAD6C4E8 
 379      45495ACD 
 379      A5ED3FA7 
 379      DD
 380 0022 D4725773 		.ascii	"\324rWs5R\3234\267\011Y\227\0217]w\271\335%-\227\\n"
 380      3552D334 
 380      B7095997 
 380      11375D77 
 380      B9DD252D 
 381 0039 5810282A 		.ascii	"X\020(*\256\036VA9\327\223\012\" P\261\362K\227\332"
 381      AE1E5641 
 381      39D7930A 
 381      222050B1 
 381      F24B97DA 
 382 004d A2228858 		.ascii	"\242\"\210X\253\242X\241\026\304\037\010*\"J\201{\337"
 382      ABA258A1 
 382      16C41F08 
 382      2A224A81 
 382      7BDF
 383 005f EFCCECCE 		.ascii	"\357\314\354\316R\270\366\217\273I\336\316|\337\276"
 383      52B8F68F 
 383      BB49DECE 
 383      7CDFBE
 384 006e F73E9FF7 		.ascii	"\367>\237\367c\276\363\345\030\206If\031f\022\257Q\035"
ARM GAS  C:\Users\victo\AppData\Local\Temp\cckkraNh.s 			page 30


 384      63BEF3E5 
 384      18864966 
 384      196612AF 
 384      511D
 385 0080 C3F4E073 		.ascii	"\303\364\340s(\352V\243\250P\342PbP*PjP\3461\342\245"
 385      28EA56A3 
 385      A850E250 
 385      62502A50 
 385      6A50E631 
 386 0096 41694439 		.ascii	"AiD9\211\322\204\322\214\322\202r\036\245\003\245\017"
 386      89D284D2 
 386      8CD28272 
 386      1EA503A5 
 386      0F
 387 00a7 A51F0550 		.ascii	"\245\037\005P\2362\301\027\361\233\205\022\211\202\220"
 387      9E32C117 
 387      F19B8512 
 387      898290
 388 00b6 CC719471 		.ascii	"\314q\224qF4\236'a\216\222%\256\207\361>(\341\263\270"
 388      46349E27 
 388      618E9225 
 388      AE87F13E 
 388      28E1B3B8 
 389 00ca E650D428 		.ascii	"\346P\324(\241 \306~$a4\316\200E\370\251\247`\3118r"
 389      A120C67E 
 389      246134CE 
 389      8045F8A9 
 389      A760C938 
 390 00df 1C49456D 		.ascii	"\034IEm\247^M\377\007\256M3pm\226j-c\3115'\361#\320"
 390      A75E4DFF 
 390      07AE4D33 
 390      706D966A 
 390      2D63C935 
 391 00f7 A15A811B 		.ascii	"\241Z\201\033\011\"6\301\350V\344\022\205\322N8\343"
 391      092236C1 
 391      E856E412 
 391      85D24E38 
 391      E3
 392 0108 BD1EEF7F 		.ascii	"\275\036\357\177By\001\237[%\014\265\204C\372\323\301"
 392      4279019F 
 392      5B250CB5 
 392      8443FAD3 
 392      C1
 393 0119 04F7F0FC 		.ascii	"\004\367\360\3744\371\223\236F0\342<(y\021.\204\207"
 393      34F9939E 
 393      4630E23C 
 393      2879112E 
 393      8487
 394 012b 8C27E313 		.ascii	"\214'\343\023,\222\203\214\027\"\305 X\3753`<d\241\266"
 394      2C92838C 
 394      1722C520 
 394      58FD3360 
 394      3C64A1B6 
 395 013f 62B82DBC 		.ascii	"b\270-\274\237\205H\255\236,\353v\234\331\035\212K\235"
 395      9F8548AD 
 395      9E2CEB76 
 395      9CD91D8A 
ARM GAS  C:\Users\victo\AppData\Local\Temp\cckkraNh.s 			page 31


 395      4B9D
 396 0151 36842C7B 		.ascii	"6\204,{\256^iPsXR|>\260\273\347\222vq\251 \010\331\202"
 396      AE5E6950 
 396      7358527C 
 396      3EB0BBE7 
 396      927671A9 
 397 0169 EF0C0442 		.ascii	"\357\014\004B\244\035\254\337\242F\237yZ\272\274\271"
 397      A41DACDF 
 397      A2469F79 
 397      5ABABCB9 
 398 0179 E7599186 		.ascii	"\347Y\221\206.\311hG\241\212\035\310sO\206\303\002m"
 398      2EC96847 
 398      A18A1DC8 
 398      734F86C3 
 398      026D
 399 018b 113A0F95 		.ascii	"\021:\017\225\014_\373\215 \204@\005h\341\020pP\012"
 399      0C5FFB8D 
 399      20844005 
 399      68E11070 
 399      500A
 400 019d 8B497589 		.ascii	"\213Iu\2117\271\262\005\301-x\322\005M\034\003\3050"
 400      37B9B205 
 400      C12D78D2 
 400      054D1C03 
 400      C530
 401 01af 174A602E 		.ascii	"\027J`.\003\345\260\000\015\250)\034Fe\031Qb\000\005"
 401      03E5B000 
 401      0DA8291C 
 401      46651951 
 401      620005
 402 01c2 7A8C889E 		.ascii	"z\214\210\236{\256\240\211\243\313I\312\372\362\311"
 402      7BAEA089 
 402      A3CB49CA 
 402      FAF2C9
 403 01d1 ACAC306E 		.ascii	"\254\2540n\031yf;;\363\236q\240]@!\206v\010\334\213"
 403      1979663B 
 403      3BF39E71 
 403      A05D4021 
 403      867608DC 
 404 01e6 0C2C9E0B 		.ascii	"\014,\236\013\2130\326\347\010\020#\001\034A\200J\004"
 404      8B30D6E7 
 404      08102301 
 404      1C41804A 
 404      04
 405 01f7 206CBDC7 		.ascii	" l\275\307#\000\252\221iU\200i\214\326\237\372\371\202"
 405      2300AA91 
 405      69558069 
 405      8CD69FFA 
 405      F982
 406 0209 EC61AD56 		.ascii	"\354a\255V\212\227\3753\361\320\376\273g\317\3634\272"
 406      8A97FD33 
 406      F1D0FEBB 
 406      67CFF334 
 406      BA
 407 021a 1C7F8A70 		.ascii	"\034\177\212p\024C\313Y2P\003::ixG\343\235{\322oDqo"
 407      1443CB59 
 407      3250033A 
ARM GAS  C:\Users\victo\AppData\Local\Temp\cckkraNh.s 			page 32


 407      3A697847 
 407      E39D7BD2 
 408 0232 50EA85E3 		.ascii	"P\352\205\343{\217\253\245\012v?\257\272\017\244\202"
 408      7B8FABA5 
 408      0A763FAF 
 408      BA0FA482 
 409 0242 C7D1F9D8 		.ascii	"\307\321\371\330/\254\340\027\323T\0201\316}?\372XG"
 409      2FACE017 
 409      D3541031 
 409      CE7D3FFA 
 409      5847
 410 0254 DB3F8B2C 		.ascii	"\333?\213,\013\256\364\016s\264\375,Y6\214T\334\322"
 410      0BAEF40E 
 410      73B4FD2C 
 410      59368C54 
 410      DCD2
 411 0266 CCD92990 		.ascii	"\314\331)\220+]\230\305R\304Z\364\256\243t\353a\016"
 411      2B5D98C5 
 411      52C45AF4 
 411      AEA374EB 
 411      610E
 412 0278 FEFE2544 		.ascii	"\376\376%D\254EGe\256\000\234\201V}\340RO\016\247\377"
 412      AC454765 
 412      AE009C81 
 412      567DE052 
 412      4F0EA7FF 
 413 028c 97E0AB1C 		.ascii	"\227\340\253\034\252=pBw\250Z\360\271\205\037''\001"
 413      AA3D7042 
 413      77A85AF0 
 413      B9851F27 
 413      2701
 414 029e 881334F8 		.ascii	"\210\0234\370I3\344\231\262\206F\320\243g\371\235\222"
 414      4933E499 
 414      B28646D0 
 414      A367F99D 
 414      92
 415 02af FA10EEEF 		.ascii	"\372\020\356\3574\312\371\376\222\034\240Q\274\2055"
 415      34CAF9FE 
 415      921CA051 
 415      BC8535
 416 02be 8962048E 		.ascii	"\211b\004\216\302\302\011E\204\023r\204\2234BA]_\227"
 416      C2C20945 
 416      84137284 
 416      93344241 
 416      5D5F97
 417 02d1 86FB27D0 		.ascii	"\206\373'\320\020\317\256^k\321\211!\216|\021\034\302"
 417      10CFAE5E 
 417      6BD18921 
 417      8E7C111C 
 417      C2
 418 02e2 A708E193 		.ascii	"\247\010\341\223C4\321\020\035\005ww\251CX\261\023$"
 418      4334D110 
 418      1D057777 
 418      A94358B1 
 418      1324
 419 02f4 41D43595 		.ascii	"A\3245\225\355\275\035Fudp\277\004\252L;y\363\\\244"
 419      EDBD1D46 
ARM GAS  C:\Users\victo\AppData\Local\Temp\cckkraNh.s 			page 33


 419      756470BF 
 419      04AA4C3B 
 419      79F35CA4 
 420 0308 B2401541 		.ascii	"\262@\025A\005\372\212\026\350\024H\025\232\230\330"
 420      05FA8A16 
 420      E8144815 
 420      9A98D8
 421 0317 F247AE54 		.ascii	"\362G\256T$&\\n\337\252Bb\336\312\356\222\364f\235P"
 421      24265C6E 
 421      DFAA4262 
 421      DECAEE92 
 421      F4669D50 
 422 032b 22F82627 		.ascii	"\"\370&'\377@]\340k\005\263\257ef\315\224YNQF\205\326"
 422      FF405DE0 
 422      6B05B3AF 
 422      6566CD94 
 422      594E5146 
 423 0341 CF4264B6 		.ascii	"\317Bd\266+c\327aNIbu\214\202\303\031\312\341\264\314"
 423      2B63D761 
 423      4E496275 
 423      8C82C319 
 423      CAE1B4CC 
 424 0355 A1F3826F 		.ascii	"\241\363\202oH\3055\212$\334}\003\375Z\221D[\033\357"
 424      48C5358A 
 424      24DC7D03 
 424      FD5A9144 
 424      5B1BEF
 425 0368 AF0EBAC0 		.ascii	"\257\016\272\300Y\005\207\2632\207\026\312\301\263\251"
 425      590587B3 
 425      328716CA 
 425      C1B3A9
 426 0377 C9134239 		.ascii	"\311\023B9T\3739\264\356\332\373e\370\214\034Z)\207"
 426      54FB39B4 
 426      EEDAFB65 
 426      F88C1C5A 
 426      2987
 427 0389 733287FB 		.ascii	"s2\207\373\345U\225\341\334\267\"\007Og\347\231(\344"
 427      E55595E1 
 427      DCB72207 
 427      4F67E799 
 427      28E4
 428 039b D02D0C5D 		.ascii	"\320-\014]\317z\374z\276\260?M\230\300I\241^\320\246"
 428      CF7AFC7A 
 428      BEB03F4D 
 428      98C049A1 
 428      5ED0A6
 429 03ae A0D126D3 		.ascii	"\240\321&\3238Oi\264\035>\233\011J\310\352\240\332\267"
 429      384F69B4 
 429      1D3E9B09 
 429      4AC8EAA0 
 429      DAB7
 430 03c0 070D67FB 		.ascii	"\007\015g\373\335\221|-\267U\334\311\016\336\366>\326"
 430      DD917C2D 
 430      B755DCC9 
 430      0EDEF63E 
 430      D6
 431 03d1 5148EFB9 		.ascii	"QH\357\271\342L\275Xz\342\000\027\024p\027d\270\016"
ARM GAS  C:\Users\victo\AppData\Local\Temp\cckkraNh.s 			page 34


 431      E24CBD58 
 431      7AE20017 
 431      14701764 
 431      B80E
 432 03e3 0AD75874 		.ascii	"\012\327XtjH\303\025\211\021\352\036t=\215\344\312\304"
 432      6A48C315 
 432      8911EA1E 
 432      743D8DE4 
 432      CAC4
 433 03f5 C5C0BF6B 		.ascii	"\305\300\277k\007t/\035e\013\2050\2125\266\377\263\003"
 433      07742F1D 
 433      650B8530 
 433      8A35B6FF 
 433      B303
 434 0407 1CADCF25 		.ascii	"\034\255\317%x\211j\362\212\267UG\240\006\276\301\370"
 434      78896AF2 
 434      8AB75547 
 434      A006BEC1 
 434      F8
 435 0418 DF9232A0 		.ascii	"\337\2222\240\362\302\223Cn\322J\270\210@pY\034\250"
 435      F2C29343 
 435      6ED24AB8 
 435      88407059 
 435      1CA8
 436 042a 8683552A 		.ascii	"\206\203U*\356\230\030W\336\331\342\202\367\325\270"
 436      EE981857 
 436      DED9E282 
 436      F7D5B8
 437 0439 C0BEDA35 		.ascii	"\300\276\3325\224Y\027\"ohS\337\370.|\343\343\2447\276"
 437      94591722 
 437      6F6853DF 
 437      F82E7CE3 
 437      E3A437BE 
 438 044d 1395D7A4 		.ascii	"\023\225\327\244-mh\374\223{\251na9\\\307z]\015l\037"
 438      2D6D68FC 
 438      937BA96E 
 438      61395CC7 
 438      7A5D0D6C 
 439 0462 71816DED 		.ascii	"q\201m\355\341\346\202<\240\031\\\367w\270\243\262\353"
 439      E1E6823C 
 439      A0195CF7 
 439      77B8A3B2 
 439      EB
 440 0473 91F84EAC 		.ascii	"\221\370N\254\324\301\015\221\355xs]\026Ku\357\352\340"
 440      D4C10D91 
 440      ED78735D 
 440      164B75EF 
 440      EAE0
 441 0485 3B51579C 		.ascii	";QW\234\237S\250V\266\005\377\222\272\002W\320\004\272"
 441      9F53A856 
 441      B605FF92 
 441      BA0257D0 
 441      04BA
 442 0497 69636ECA 		.ascii	"icn\312\303\320\345\315\255g\271FN\034\206\322\256\232"
 442      C3D0E5CD 
 442      AD67B946 
 442      4E1C86D2 
ARM GAS  C:\Users\victo\AppData\Local\Temp\cckkraNh.s 			page 35


 442      AE9A
 443 04a9 50EE2B71 		.ascii	"P\356+q\321\354>\332\245\345Z\305\305\336\214\356+\264"
 443      D1EC3EDA 
 443      A5E55AC5 
 443      C5DE8CEE 
 443      2BB4
 444 04bb 5AB7685B 		.ascii	"Z\267h[Psi\2606GC4\337\223\372\375 \242\227W\3359\033"
 444      507369B0 
 444      36474334 
 444      DF93FAFD 
 444      20A29757 
 445 04d2 4A5AEB19 		.ascii	"JZ\353\031:4\270Y'O\323+\202p\215%\310\320#'\014\275"
 445      3A34B859 
 445      274FD32B 
 445      82708D25 
 445      C8D02327 
 446 04e8 844C8FDC 		.ascii	"\204L\217\334\344>\332\344\007'\312#\271S!\024\261\264"
 446      E43EDAE4 
 446      0727CA23 
 446      B9532114 
 446      B1B4
 447 04fa E542A63C 		.ascii	"\345B\246<\230\305?\031\314\333\212I\271-\007\351\247"
 447      98C53F19 
 447      CCDB8A49 
 447      B92D07E9 
 447      A7
 448 050b 415A37EF 		.ascii	"AZ7\357\313g\351\236\352\243\201\362\237\2666G\321M"
 448      CB67E99E 
 448      EAA381F2 
 448      9FB63647 
 448      D14D
 449 051d F545FA4D 		.ascii	"\365E\372M\365\014\367\352\270\026\021\344Fmk\022wO"
 449      F50CF7EA 
 449      B81611E4 
 449      466D6B12 
 449      774F
 450 052f 7CBEFFCD 		.ascii	"|\276\377\315\236:\035\265S\221\345\360\365\302#,\371"
 450      9E3A1DB5 
 450      5391E5F0 
 450      F5C2232C 
 450      F9
 451 0540 B608D2B7 		.ascii	"\266\010\322\267B\247\374T<\000l\027,\234\013\003\342"
 451      42A7FC54 
 451      3C006C17 
 451      2C9C0B03 
 451      E2
 452 0551 46DE5EF3 		.ascii	"F\336^\363i\2736\332C\255\005A/~^\357\240\371]j>\010"
 452      69BB36DA 
 452      43AD0541 
 452      2F7E5EEF 
 452      A0F95D6A 
 453 0567 D1B213B1 		.ascii	"\321\262\023\261\356\335z\351Z\030\227\245\"\270\334"
 453      EEDD7AE9 
 453      5A1897A5 
 453      22B8DC
 454 0576 E5BAC1FE 		.ascii	"\345\272\301\3760\230\375\362\202\355\222\367r,\214"
 454      3098FDF2 
ARM GAS  C:\Users\victo\AppData\Local\Temp\cckkraNh.s 			page 36


 454      82ED92F7 
 454      722C8C
 455 0585 EC0AF731 		.ascii	"\354\012\3671\321\2070\233$\013\217q\244\036\301\313"
 455      D187309B 
 455      240B8F71 
 455      A41EC1CB 
 456 0595 34592F19 		.ascii	"4Y/\031\245\362\232\206\337\226\271\005_\006G\020`H"
 456      A5F29A86 
 456      DF96B905 
 456      5F064710 
 456      6048
 457 05a7 B2F53B2F 		.ascii	"\262\365;/$\330\277\303\037:y\335G\262\264\002\020\013"
 457      24D8BFC3 
 457      1F3A79DD 
 457      47B2B402 
 457      100B
 458 05b9 46AE9D3C 		.ascii	"F\256\235<r\354\255cu\315*\230==\207'\210;\035\007\032"
 458      72ECAD63 
 458      75CD2A98 
 458      3D3D8727 
 458      883B1D07 
 459 05ce F4465218 		.ascii	"\364FR\030\014\343\237\367\002\243L\020\344Y.\3339\336"
 459      0CE39FF7 
 459      02A34C10 
 459      E4592EDB 
 459      39DE
 460 05e0 045CAD4A 		.ascii	"\004\\\255J\234\242\035W\213\265\363\367\013>/~\227"
 460      9CA21D57 
 460      8BB5F3F7 
 460      0B3E2F7E 
 460      97
 461 05f1 2EC6A609 		.ascii	".\306\246\011^\267 \220\227\237F\030\021#(\3126\"v\026"
 461      5EB72090 
 461      979F4618 
 461      112328CA 
 461      36227616 
 462 0605 9EC27C72 		.ascii	"\236\302|rV\332\331q\232~\355\323\177\321\001\005=\252"
 462      56DAD971 
 462      9A7EEDD3 
 462      7FD10105 
 462      3DAA
 463 0617 0F7C764C 		.ascii	"\017|vLCGa9Y\026\355\374\264LE;\034F\226O\366\334]2"
 463      43476139 
 463      5916EDFC 
 463      B44C453B 
 463      1C46964F 
 464 062f 6383C7E4 		.ascii	"c\203\307\344\006/\242\221\262\263G'4R\177\275r\177"
 464      062FA291 
 464      B2B34727 
 464      34527FBD 
 464      727F
 465 0641 9FA1F573 		.ascii	"\237\241\365sj\375#\355\357\230\334\337\261\334G;\""
 465      6AFD23ED 
 465      EF98DCDF 
 465      B1DC473B 
 465      22
 466 0652 94D6A333 		.ascii	"\224\326\2433Z\3038D\243\307\276\352\355\271\341\\\213"
ARM GAS  C:\Users\victo\AppData\Local\Temp\cckkraNh.s 			page 37


 466      5AC33844 
 466      A3C7BEEA 
 466      EDB9E15C 
 466      8B
 467 0663 58A6B2B2 		.ascii	"X\246\262\262Q\257zA\021=\352-'yMH\023\356\257j_\246"
 467      51AF7A41 
 467      113DEA2D 
 467      27794D48 
 467      13EEAF6A 
 468 0679 E77AF8F4 		.ascii	"\347z\370\364\245\230\234\356\254&\260\344\254V\332"
 468      A5989CEE 
 468      AC26B0E4 
 468      AC56DA
 469 0688 93D7A252 		.ascii	"\223\327\242R\036\177H\325\003)\247\261\342\361\007"
 469      1E7F48D5 
 469      0329A7B1 
 469      E2F107
 470 0697 EF687C2B 		.ascii	"\357h|+\263u$Ri\\\021tVrK\306nj\234?1\266\213U\032\217"
 470      B3752452 
 470      695C1174 
 470      56724BC6 
 470      6E6A9C3F 
 471 06b1 0619A74B 		.ascii	"\006\031\247K\306\351\3248{\307\261{*\256\213\346\312"
 471      C6E9D438 
 471      7BC7B17B 
 471      2AAE8BE6 
 471      CA
 472 06c2 FA3EF78C 		.ascii	"\372>\367\214\351\374g\323\335}q\031\230r&\253\205\014"
 472      E9FC67D3 
 472      DD7D7119 
 472      987226AB 
 472      850C
 473 06d4 D63F4FA3 		.ascii	"\326?O\243\0208Z\3754\341M\354\264\275\357\375a\337"
 473      10385AFD 
 473      34E14DEC 
 473      B4BDEFFD 
 473      61DF
 474 06e6 58A89212 		.ascii	"X\250\222\022\011\032\240\224%Q\312\242\224\232+\372"
 474      091AA094 
 474      2551CAA2 
 474      949A2BFA 
 475 06f6 1BD4E29E 		.ascii	"\033\324\342\236A\017b#\223\335{\302\350\244d\323\223"
 475      410F6223 
 475      93DD7BC2 
 475      E8A464D3 
 475      93
 476 0707 58D1E3A2 		.ascii	"X\321\343\2422\015]\257 \313[\305mU\252\031Gg3+\215"
 476      320D5DAF 
 476      20CB5BC5 
 476      6D55AA19 
 476      4767332B 
 477 071c 4E0E4B99 		.ascii	"N\016K\2314\024y6qS\367\206lv.|\302\022\363-l\264\354"
 477      34147936 
 477      7153F786 
 477      6C762E7C 
 477      C212F32D 
 478 0733 44A732FB 		.ascii	"D\2472\373\311\023\225\322ztFk\330\312\222\331\251\332"
ARM GAS  C:\Users\victo\AppData\Local\Temp\cckkraNh.s 			page 38


 478      C91395D2 
 478      7A74466B 
 478      D8CA92D9 
 478      A9DA
 479 0745 9C3F18A5 		.ascii	"\234?\030\245\314\224l\264\001:\271R\246\2714\323\311"
 479      CC946CB4 
 479      013AB952 
 479      A6B934D3 
 479      C9
 480 0756 DEED2741 		.ascii	"\336\355'Ai\334\036d\274M2\336F\215\033sJN\007E\256"
 480      69DC1E64 
 480      BC4D32DE 
 480      468D1B73 
 480      4A4E0745 
 481 076b 0F32F648 		.ascii	"\0172\366H\306\036j|3\363\306\305\240\202\267\006\031"
 481      C61E6A7C 
 481      33F3C6C5 
 481      A082B706 
 481      19
 482 077c 6F978CC9 		.ascii	"o\227\214\311=4\305bs-}5\364\355?\257\325\033\230\371"
 482      3D34C562 
 482      732D7D35 
 482      F4ED3FAF 
 482      D51B98F9 
 483 0790 B1C6B779 		.ascii	"\261\306\267y\033\3570\271\370\304\204x{\212\303\314"
 483      1BEF30B9 
 483      F8C48478 
 483      7B8AC3CC 
 484 07a0 1B57C7DB 		.ascii	"\033W\307\333\015\313\214\346TWj2\357\214\335\300\250"
 484      0DCB8CE6 
 484      54576A32 
 484      EF8CDDC0 
 484      A8
 485 07b1 88C76B61 		.ascii	"\210\307ka\346T\247\313\344Jq\376\312\220\032\237\352"
 485      E654A7CB 
 485      E44A71FE 
 485      CA901A9F 
 485      EA
 486 07c2 5C693539 		.ascii	"\\i597\030\254v\363\207o\232\314\037"
 486      3718AC76 
 486      F3876F9A 
 486      CC1F
 487 07d0 A624CF1C 		.ascii	"\246$\317\034\310\220Jmc\315\314TO\203\335\266\336\222"
 487      C8904A6D 
 487      63CDCC54 
 487      4F83DDB6 
 487      DE92
 488 07e2 143345BB 		.ascii	"\0243E\273\206w\272\354\016>:\240~\337aq\361k\354\037"
 488      8677BAEC 
 488      0E3E3AA0 
 488      7EDF6171 
 488      F16BEC1F 
 489 07f6 CD09A8E2 		.ascii	"\315\011\250\342y\327\373&\213\313\220j\266\362\204"
 489      79D7FB26 
 489      8BCB906A 
 489      B6F284
 490 0805 D15B1FE3 		.ascii	"\321[\037\343\002\315,f\2235\2367\273,v\333\274\377"
ARM GAS  C:\Users\victo\AppData\Local\Temp\cckkraNh.s 			page 39


 490      02CD2C66 
 490      93359E37 
 490      BB2C76DB 
 490      BCFF
 491 0817 C2689565 		.ascii	"\302h\225e\035&\206\310o\331\\\274c\212\243\332f\267"
 491      1D2686C8 
 491      6FD95CBC 
 491      638AA3DA 
 491      66B7
 492 0829 D952AC56 		.ascii	"\331R\254V\365z\233\336\231\314\233\341\225P\247\345"
 492      F57A9BDE 
 492      99CC9BE1 
 492      9550A7E5 
 493 0839 6F7C82EB 		.ascii	"o|\202\353\037\3467\214\311\016{\222\303\264Q\277\336"
 493      1FE6378C 
 493      C90E7B92 
 493      C3B451BF 
 493      DE
 494 084a 82C0FA85 		.ascii	"\202\300\372\205\037\277\366\373EX\252d\007\357t\032"
 494      1FBFF6FB 
 494      4558AA64 
 494      07EF741A 
 495 085a 939D76B3 		.ascii	"\223\235v\263\336\354\340M\310\337\2704vi\260\302\262"
 495      DEECE04D 
 495      C8DFB834 
 495      7669B0C2 
 495      B2
 496 086b 31D9EE70 		.ascii	"1\331\356p\031\223l)F\223c\243qY\354\353ha\265\2543"
 496      19936C29 
 496      469363A3 
 496      7159ECEB 
 496      6861B5AC 
 497 0880 2699CD44 		.ascii	"&\231\315D\263\004a\371%\274i\235E\372\317b3[S\022y"
 497      B30461F9 
 497      25BC699D 
 497      45FACF62 
 497      335B5312 
 498 0895 A3D39598 		.ascii	"\243\323\225\230\310\257G\276\241\033\371\215\346\344"
 498      C8AF47BE 
 498      A11BF98D 
 498      E6E4
 499 08a3 54E4E7DA 		.ascii	"T\344\347\332\340\260\177\024b\345M\353\377\372\277"
 499      E0B07F14 
 499      62E54DEB 
 499      FFFABF
 500 08b2 E714CC25 		.ascii	"\347\024\314%\300\302a\261%\021\026\206\3248\223\325"
 500      C0C261B1 
 500      25111686 
 500      D43893D5 
 501 08c2 A5377C90 		.ascii	"\2457|\220\020\377A|\302\312U+\342\343\022\014\253\336"
 501      10FF417C 
 501      C2CA552B 
 501      E2E3120C 
 501      ABDE
 502 08d4 35BC93F0 		.ascii	"5\274\223\360\346\012\303;kW'\304\277\267f\255\341\275"
 502      E60AC33B 
 502      6B5727C4 
ARM GAS  C:\Users\victo\AppData\Local\Temp\cckkraNh.s 			page 40


 502      BFB766AD 
 502      E1BD
 503 08e6 5F9BA79B 		.ascii	"_\233\247\233\223x\227#\305\354\2120\023\0156\321\205"
 503      93789723 
 503      C5EC8A30 
 503      130D36D1 
 503      85
 504 08f7 319D3F3F 		.ascii	"1\235??;\033\230Y\201hb\240\027\254v[\222>\305\346\264"
 504      3B1B9859 
 504      816862A0 
 504      17AC765B 
 504      923EC5E6 
 505 090c 24D9F844 		.ascii	"$\331\370D=\216\250\312\301'-}\365?.w\032\351"
 505      3D8EA8CA 
 505      C1272D7D 
 505      F53F2E77 
 505      1AE9
 506              		.text
 507              		.section	.gnu.lto_.symtab.92f685f1,"",%progbits
 508 0000 43795379 		.ascii	"CySysFlashWriteRow\000\000\000\000\000\000\000\000\000"
 508      73466C61 
 508      73685772 
 508      69746552 
 508      6F770000 
 509 001b 000000C6 		.ascii	"\000\000\000\306\000\000\000CySysFlashSetWaitCycles"
 509      00000043 
 509      79537973 
 509      466C6173 
 509      68536574 
 510 0039 00000000 		.ascii	"\000\000\000\000\000\000\000\000\000\000\000\000\312"
 510      00000000 
 510      00000000 
 510      CA
 511 0046 00000043 		.ascii	"\000\000\000CyExitCriticalSection\000\000\002\000\000"
 511      79457869 
 511      74437269 
 511      74696361 
 511      6C536563 
 512 0063 00000000 		.ascii	"\000\000\000\000\000\000\000\316\000\000\000CyEnter"
 512      000000CE 
 512      00000043 
 512      79456E74 
 512      6572
 513 0075 43726974 		.ascii	"CriticalSection\000\000\002\000\000\000\000\000\000"
 513      6963616C 
 513      53656374 
 513      696F6E00 
 513      00020000 
 514 008d 000000D1 		.ascii	"\000\000\000\321\000\000\000CyHalt\000\000\002\000\000"
 514      00000043 
 514      7948616C 
 514      74000002 
 514      0000
 515 009f 00000000 		.ascii	"\000\000\000\000\000\000\000\350\000\000\000"
 515      000000E8 
 515      000000
 516              		.text
ARM GAS  C:\Users\victo\AppData\Local\Temp\cckkraNh.s 			page 41


 517              		.section	.gnu.lto_.opts,"",%progbits
 518 0000 272D666E 		.ascii	"'-fno-trapv' '-mcpu=cortex-m0' '-mthumb' '-g' '-Os'"
 518      6F2D7472 
 518      61707627 
 518      20272D6D 
 518      6370753D 
 519 0033 20272D57 		.ascii	" '-Werror' '-ffunction-sections' '-finline-function"
 519      6572726F 
 519      72272027 
 519      2D666675 
 519      6E637469 
 520 0066 73272027 		.ascii	"s' '-flto' '-ffat-lto-objects' '-fno-strict-aliasin"
 520      2D666C74 
 520      6F272027 
 520      2D666661 
 520      742D6C74 
 521 0099 672700   		.ascii	"g'\000"
 522              		.text
 523              		.cfi_sections	.debug_frame
 524              		.section	.text.CySysFlashWriteRow,"ax",%progbits
 525              		.align	1
 526              		.global	CySysFlashWriteRow
 527              		.code	16
 528              		.thumb_func
 529              		.type	CySysFlashWriteRow, %function
 530              	CySysFlashWriteRow:
 531              	.LFB0:
 532              		.file 1 ".\\Generated_Source\\PSoC4\\CyFlash.c"
   1:.\Generated_Source\PSoC4/CyFlash.c **** /***************************************************************************//**
   2:.\Generated_Source\PSoC4/CyFlash.c **** * \file CyFlash.c
   3:.\Generated_Source\PSoC4/CyFlash.c **** * \version 5.40
   4:.\Generated_Source\PSoC4/CyFlash.c **** *
   5:.\Generated_Source\PSoC4/CyFlash.c **** * \brief Provides an API for the FLASH.
   6:.\Generated_Source\PSoC4/CyFlash.c **** *
   7:.\Generated_Source\PSoC4/CyFlash.c **** * \note This code is endian agnostic.
   8:.\Generated_Source\PSoC4/CyFlash.c **** *
   9:.\Generated_Source\PSoC4/CyFlash.c **** * \note Documentation of the API's in this file is located in the System
  10:.\Generated_Source\PSoC4/CyFlash.c **** * Reference Guide provided with PSoC Creator.
  11:.\Generated_Source\PSoC4/CyFlash.c **** *
  12:.\Generated_Source\PSoC4/CyFlash.c **** ********************************************************************************
  13:.\Generated_Source\PSoC4/CyFlash.c **** * \copyright
  14:.\Generated_Source\PSoC4/CyFlash.c **** * Copyright 2010-2016, Cypress Semiconductor Corporation.  All rights reserved.
  15:.\Generated_Source\PSoC4/CyFlash.c **** * You may use this file only in accordance with the license, terms, conditions,
  16:.\Generated_Source\PSoC4/CyFlash.c **** * disclaimers, and limitations in the end user license agreement accompanying
  17:.\Generated_Source\PSoC4/CyFlash.c **** * the software package with which this file was provided.
  18:.\Generated_Source\PSoC4/CyFlash.c **** *******************************************************************************/
  19:.\Generated_Source\PSoC4/CyFlash.c **** 
  20:.\Generated_Source\PSoC4/CyFlash.c **** #include "CyFlash.h"
  21:.\Generated_Source\PSoC4/CyFlash.c **** 
  22:.\Generated_Source\PSoC4/CyFlash.c **** 
  23:.\Generated_Source\PSoC4/CyFlash.c **** /*******************************************************************************
  24:.\Generated_Source\PSoC4/CyFlash.c **** * Cypress identified a defect with the Flash write functionality of the
  25:.\Generated_Source\PSoC4/CyFlash.c **** * PSoC 4000, PSoC 4100, and PSoC 4200 devices. The CySysFlashWriteRow() function
  26:.\Generated_Source\PSoC4/CyFlash.c **** * now checks the data to be written and, if necessary, modifies it to have a
  27:.\Generated_Source\PSoC4/CyFlash.c **** * non-zero checksum. After writing to Flash, the modified data is replaced
  28:.\Generated_Source\PSoC4/CyFlash.c **** * (Flash program) with the correct (original) data.
  29:.\Generated_Source\PSoC4/CyFlash.c **** *******************************************************************************/
ARM GAS  C:\Users\victo\AppData\Local\Temp\cckkraNh.s 			page 42


  30:.\Generated_Source\PSoC4/CyFlash.c **** #define CY_FLASH_CHECKSUM_WORKAROUND    (CY_PSOC4_4000 || CY_PSOC4_4100 || CY_PSOC4_4200)
  31:.\Generated_Source\PSoC4/CyFlash.c **** 
  32:.\Generated_Source\PSoC4/CyFlash.c **** #if (CY_IP_FM || ((!CY_PSOC4_4000) && CY_IP_SPCIF_SYNCHRONOUS) || (!CY_IP_FM) && CY_PSOC4_4000)
  33:.\Generated_Source\PSoC4/CyFlash.c ****     static CY_SYS_FLASH_CLOCK_BACKUP_STRUCT cySysFlashBackup;
  34:.\Generated_Source\PSoC4/CyFlash.c **** #endif /* (CY_IP_FM || ((!CY_PSOC4_4000) && CY_IP_SPCIF_SYNCHRONOUS) || (!CY_IP_FM) && CY_PSOC4_400
  35:.\Generated_Source\PSoC4/CyFlash.c **** 
  36:.\Generated_Source\PSoC4/CyFlash.c **** static cystatus CySysFlashClockBackup(void);
  37:.\Generated_Source\PSoC4/CyFlash.c **** static cystatus CySysFlashClockRestore(void);
  38:.\Generated_Source\PSoC4/CyFlash.c **** #if(CY_IP_SPCIF_SYNCHRONOUS)
  39:.\Generated_Source\PSoC4/CyFlash.c ****     static cystatus CySysFlashClockConfig(void);
  40:.\Generated_Source\PSoC4/CyFlash.c **** #endif  /* (CY_IP_SPCIF_SYNCHRONOUS) */
  41:.\Generated_Source\PSoC4/CyFlash.c **** 
  42:.\Generated_Source\PSoC4/CyFlash.c **** 
  43:.\Generated_Source\PSoC4/CyFlash.c **** /*******************************************************************************
  44:.\Generated_Source\PSoC4/CyFlash.c **** * Function Name: CySysFlashWriteRow
  45:.\Generated_Source\PSoC4/CyFlash.c **** ****************************************************************************//**
  46:.\Generated_Source\PSoC4/CyFlash.c **** *
  47:.\Generated_Source\PSoC4/CyFlash.c **** * Erases a row of Flash and programs it with the new data.
  48:.\Generated_Source\PSoC4/CyFlash.c **** *
  49:.\Generated_Source\PSoC4/CyFlash.c **** * The IMO must be enabled before calling this function. The operation of the
  50:.\Generated_Source\PSoC4/CyFlash.c **** * flash writing hardware is dependent on the IMO.
  51:.\Generated_Source\PSoC4/CyFlash.c **** *
  52:.\Generated_Source\PSoC4/CyFlash.c **** * For PSoC 4000, PSoC 4100 BLE and PSoC 4200 BLE devices (PSoC 4100 BLE and
  53:.\Generated_Source\PSoC4/CyFlash.c **** * PSoC 4200 BLE devices with 256K of Flash memory are not affected), this API
  54:.\Generated_Source\PSoC4/CyFlash.c **** * will automatically modify the clock settings for the device. Writing to
  55:.\Generated_Source\PSoC4/CyFlash.c **** * flash requires that changes be made to the IMO and HFCLK settings. The
  56:.\Generated_Source\PSoC4/CyFlash.c **** * configuration is restored before returning. This will impact the operation
  57:.\Generated_Source\PSoC4/CyFlash.c **** * of most of the hardware in the device.
  58:.\Generated_Source\PSoC4/CyFlash.c **** *
  59:.\Generated_Source\PSoC4/CyFlash.c **** * For PSoC 4000 devices this API will automatically modify the clock settings
  60:.\Generated_Source\PSoC4/CyFlash.c **** * for the device. Writing to flash requires that changes be made to the IMO
  61:.\Generated_Source\PSoC4/CyFlash.c **** * and HFCLK settings. The configuration is restored before returning. HFCLK
  62:.\Generated_Source\PSoC4/CyFlash.c **** * will have several frequency changes during the operation of this API between
  63:.\Generated_Source\PSoC4/CyFlash.c **** * a minimum frequency of the current IMO frequency divided by 8 and a maximum
  64:.\Generated_Source\PSoC4/CyFlash.c **** * frequency of 12 MHz. This will impact the operation of most of the hardware
  65:.\Generated_Source\PSoC4/CyFlash.c **** * in the device.
  66:.\Generated_Source\PSoC4/CyFlash.c **** *
  67:.\Generated_Source\PSoC4/CyFlash.c **** * \param rowNum The flash row number. The number of the flash rows is defined by
  68:.\Generated_Source\PSoC4/CyFlash.c **** * the \ref CY_FLASH_NUMBER_ROWS macro for the selected device. Refer to the
  69:.\Generated_Source\PSoC4/CyFlash.c **** * device datasheet for the details.
  70:.\Generated_Source\PSoC4/CyFlash.c **** * \note The target flash array is calculated based on the specified flash row.
  71:.\Generated_Source\PSoC4/CyFlash.c **** *
  72:.\Generated_Source\PSoC4/CyFlash.c **** * \param rowData Array of bytes to write. The size of the array must be equal to
  73:.\Generated_Source\PSoC4/CyFlash.c **** * the flash row size. The flash row size for the selected device is defined by
  74:.\Generated_Source\PSoC4/CyFlash.c **** * the \ref CY_FLASH_SIZEOF_ROW macro. Refer to the device datasheet for the
  75:.\Generated_Source\PSoC4/CyFlash.c **** * details.
  76:.\Generated_Source\PSoC4/CyFlash.c **** *
  77:.\Generated_Source\PSoC4/CyFlash.c **** * \return \ref group_flash_status_codes
  78:.\Generated_Source\PSoC4/CyFlash.c **** *
  79:.\Generated_Source\PSoC4/CyFlash.c **** *******************************************************************************/
  80:.\Generated_Source\PSoC4/CyFlash.c **** uint32 CySysFlashWriteRow(uint32 rowNum, const uint8 rowData[])
  81:.\Generated_Source\PSoC4/CyFlash.c **** {
 533              		.loc 1 81 0
 534              		.cfi_startproc
 535              	.LVL0:
 536 0000 F0B5     		push	{r4, r5, r6, r7, lr}
 537              		.cfi_def_cfa_offset 20
ARM GAS  C:\Users\victo\AppData\Local\Temp\cckkraNh.s 			page 43


 538              		.cfi_offset 4, -20
 539              		.cfi_offset 5, -16
 540              		.cfi_offset 6, -12
 541              		.cfi_offset 7, -8
 542              		.cfi_offset 14, -4
  82:.\Generated_Source\PSoC4/CyFlash.c ****     volatile uint32 retValue = CY_SYS_FLASH_SUCCESS;
 543              		.loc 1 82 0
 544 0002 0025     		mov	r5, #0
  83:.\Generated_Source\PSoC4/CyFlash.c ****     volatile uint32 clkCnfRetValue = CY_SYS_FLASH_SUCCESS;
  84:.\Generated_Source\PSoC4/CyFlash.c ****     volatile uint32 parameters[(CY_FLASH_SIZEOF_ROW + CY_FLASH_SRAM_ROM_DATA) / sizeof(uint32)];
  85:.\Generated_Source\PSoC4/CyFlash.c ****     uint8  interruptState;
  86:.\Generated_Source\PSoC4/CyFlash.c **** 
  87:.\Generated_Source\PSoC4/CyFlash.c ****     #if (CY_FLASH_CHECKSUM_WORKAROUND)
  88:.\Generated_Source\PSoC4/CyFlash.c ****         uint32 needChecksumWorkaround = 0u;
  89:.\Generated_Source\PSoC4/CyFlash.c ****         uint32 savedIndex = 0u;
  90:.\Generated_Source\PSoC4/CyFlash.c ****         uint32 savedValue = 0u;
  91:.\Generated_Source\PSoC4/CyFlash.c ****         uint32 checksum = 0u;
  92:.\Generated_Source\PSoC4/CyFlash.c ****         uint32 bits = 0u;
  93:.\Generated_Source\PSoC4/CyFlash.c ****         uint32 i;
  94:.\Generated_Source\PSoC4/CyFlash.c ****     #endif  /* (CY_FLASH_CHECKSUM_WORKAROUND) */
  95:.\Generated_Source\PSoC4/CyFlash.c **** 
  96:.\Generated_Source\PSoC4/CyFlash.c ****     if ((rowNum < CY_FLASH_NUMBER_ROWS) && (rowData != 0u))
 545              		.loc 1 96 0
 546 0004 4B4B     		ldr	r3, .L26
  81:.\Generated_Source\PSoC4/CyFlash.c ****     volatile uint32 retValue = CY_SYS_FLASH_SUCCESS;
 547              		.loc 1 81 0
 548 0006 CBB0     		sub	sp, sp, #300
 549              		.cfi_def_cfa_offset 320
  82:.\Generated_Source\PSoC4/CyFlash.c ****     volatile uint32 retValue = CY_SYS_FLASH_SUCCESS;
 550              		.loc 1 82 0
 551 0008 0295     		str	r5, [sp, #8]
  83:.\Generated_Source\PSoC4/CyFlash.c ****     volatile uint32 clkCnfRetValue = CY_SYS_FLASH_SUCCESS;
 552              		.loc 1 83 0
 553 000a 0395     		str	r5, [sp, #12]
 554              		.loc 1 96 0
 555 000c 9842     		cmp	r0, r3
 556 000e 00D9     		bls	.LCB20
 557 0010 8BE0     		b	.L2	@long jump
 558              	.LCB20:
 559              		.loc 1 96 0 is_stmt 0 discriminator 1
 560 0012 A942     		cmp	r1, r5
 561 0014 00D1     		bne	.LCB22
 562 0016 88E0     		b	.L2	@long jump
 563              	.LCB22:
  97:.\Generated_Source\PSoC4/CyFlash.c ****     {
  98:.\Generated_Source\PSoC4/CyFlash.c ****         /* Copy data to be written into internal variable */
  99:.\Generated_Source\PSoC4/CyFlash.c ****         (void)memcpy((void *)&parameters[2u], rowData, CY_FLASH_SIZEOF_ROW);
 564              		.loc 1 99 0 is_stmt 1
 565 0018 8022     		mov	r2, #128
 566 001a 0190     		str	r0, [sp, #4]
 567 001c 5200     		lsl	r2, r2, #1
 568 001e 0AA8     		add	r0, sp, #40
 569              	.LVL1:
 570 0020 FFF7FEFF 		bl	memcpy
 571              	.LVL2:
 100:.\Generated_Source\PSoC4/CyFlash.c **** 
 101:.\Generated_Source\PSoC4/CyFlash.c ****         #if (CY_FLASH_CHECKSUM_WORKAROUND)
ARM GAS  C:\Users\victo\AppData\Local\Temp\cckkraNh.s 			page 44


 102:.\Generated_Source\PSoC4/CyFlash.c **** 
 103:.\Generated_Source\PSoC4/CyFlash.c ****             for (i = 2u; i < ((CY_FLASH_SIZEOF_ROW / sizeof(uint32)) + 2u); i++)
 104:.\Generated_Source\PSoC4/CyFlash.c ****             {
 105:.\Generated_Source\PSoC4/CyFlash.c ****                 uint32 tmp = parameters[i];
 106:.\Generated_Source\PSoC4/CyFlash.c ****                 if (tmp != 0u)
 107:.\Generated_Source\PSoC4/CyFlash.c ****                 {
 108:.\Generated_Source\PSoC4/CyFlash.c ****                     checksum += tmp;
 109:.\Generated_Source\PSoC4/CyFlash.c ****                     bits |= tmp;
 110:.\Generated_Source\PSoC4/CyFlash.c ****                     savedIndex = i;
 111:.\Generated_Source\PSoC4/CyFlash.c ****                 }
 112:.\Generated_Source\PSoC4/CyFlash.c ****             }
 113:.\Generated_Source\PSoC4/CyFlash.c **** 
 114:.\Generated_Source\PSoC4/CyFlash.c ****             needChecksumWorkaround = ((checksum == 0u) && (bits != 0u)) ? 1u : 0u;
 115:.\Generated_Source\PSoC4/CyFlash.c ****             if (needChecksumWorkaround != 0u)
 116:.\Generated_Source\PSoC4/CyFlash.c ****             {
 117:.\Generated_Source\PSoC4/CyFlash.c ****                 savedValue = parameters[savedIndex];
 118:.\Generated_Source\PSoC4/CyFlash.c ****                 parameters[savedIndex] = 0u;
 119:.\Generated_Source\PSoC4/CyFlash.c ****             }
 120:.\Generated_Source\PSoC4/CyFlash.c ****         #endif  /* (CY_FLASH_CHECKSUM_WORKAROUND) */
 121:.\Generated_Source\PSoC4/CyFlash.c **** 
 122:.\Generated_Source\PSoC4/CyFlash.c ****         /* Load Flash Bytes */
 123:.\Generated_Source\PSoC4/CyFlash.c ****         parameters[0u] = (uint32) (CY_FLASH_GET_MACRO_FROM_ROW(rowNum)        << CY_FLASH_PARAM_MAC
 124:.\Generated_Source\PSoC4/CyFlash.c ****                          (uint32) (CY_FLASH_PAGE_LATCH_START_ADDR             << CY_FLASH_PARAM_ADD
 125:.\Generated_Source\PSoC4/CyFlash.c ****                          (uint32) (CY_FLASH_KEY_TWO(CY_FLASH_API_OPCODE_LOAD) << CY_FLASH_PARAM_KEY
 126:.\Generated_Source\PSoC4/CyFlash.c ****                          CY_FLASH_KEY_ONE;
 127:.\Generated_Source\PSoC4/CyFlash.c ****         parameters[1u] = CY_FLASH_SIZEOF_ROW - 1u;
 572              		.loc 1 127 0
 573 0024 FF22     		mov	r2, #255
 123:.\Generated_Source\PSoC4/CyFlash.c ****                          (uint32) (CY_FLASH_PAGE_LATCH_START_ADDR             << CY_FLASH_PARAM_ADD
 574              		.loc 1 123 0
 575 0026 444B     		ldr	r3, .L26+4
 128:.\Generated_Source\PSoC4/CyFlash.c **** 
 129:.\Generated_Source\PSoC4/CyFlash.c ****         CY_FLASH_CPUSS_SYSARG_REG = (uint32) &parameters[0u];
 576              		.loc 1 129 0
 577 0028 444C     		ldr	r4, .L26+8
 123:.\Generated_Source\PSoC4/CyFlash.c ****                          (uint32) (CY_FLASH_PAGE_LATCH_START_ADDR             << CY_FLASH_PARAM_ADD
 578              		.loc 1 123 0
 579 002a 0893     		str	r3, [sp, #32]
 130:.\Generated_Source\PSoC4/CyFlash.c ****         CY_FLASH_CPUSS_SYSREQ_REG = CY_FLASH_CPUSS_REQ_START | CY_FLASH_API_OPCODE_LOAD;
 580              		.loc 1 130 0
 581 002c 444E     		ldr	r6, .L26+12
 582 002e 454B     		ldr	r3, .L26+16
  99:.\Generated_Source\PSoC4/CyFlash.c **** 
 583              		.loc 1 99 0
 584 0030 08AF     		add	r7, sp, #32
 127:.\Generated_Source\PSoC4/CyFlash.c **** 
 585              		.loc 1 127 0
 586 0032 7A60     		str	r2, [r7, #4]
 129:.\Generated_Source\PSoC4/CyFlash.c ****         CY_FLASH_CPUSS_SYSREQ_REG = CY_FLASH_CPUSS_REQ_START | CY_FLASH_API_OPCODE_LOAD;
 587              		.loc 1 129 0
 588 0034 2760     		str	r7, [r4]
 589              	.LVL3:
 590              		.loc 1 130 0
 591 0036 3360     		str	r3, [r6]
 131:.\Generated_Source\PSoC4/CyFlash.c ****         CY_NOP;
 592              		.loc 1 131 0
 593              	@ 131 ".\Generated_Source\PSoC4\CyFlash.c" 1
ARM GAS  C:\Users\victo\AppData\Local\Temp\cckkraNh.s 			page 45


 594 0038 C046     		NOP
 595              	
 596              	@ 0 "" 2
 132:.\Generated_Source\PSoC4/CyFlash.c ****         retValue = CY_FLASH_API_RETURN;
 597              		.loc 1 132 0
 598              		.code	16
 599 003a 2368     		ldr	r3, [r4]
 600 003c 1B0F     		lsr	r3, r3, #28
 601 003e 0F2B     		cmp	r3, #15
 602 0040 03D1     		bne	.L3
 603              		.loc 1 132 0 is_stmt 0 discriminator 1
 604 0042 2368     		ldr	r3, [r4]
 605 0044 1340     		and	r3, r2
 606 0046 1D1C     		mov	r5, r3
 607 0048 04E0     		b	.L4
 608              	.L3:
 609              		.loc 1 132 0 discriminator 2
 610 004a 2368     		ldr	r3, [r4]
 611 004c 1B0F     		lsr	r3, r3, #28
 612 004e 0A2B     		cmp	r3, #10
 613 0050 00D0     		beq	.L4
 614              		.loc 1 132 0 discriminator 4
 615 0052 2568     		ldr	r5, [r4]
 616              	.L4:
 617              		.loc 1 132 0 discriminator 8
 618 0054 0295     		str	r5, [sp, #8]
 133:.\Generated_Source\PSoC4/CyFlash.c **** 
 134:.\Generated_Source\PSoC4/CyFlash.c ****         if(retValue == CY_SYS_FLASH_SUCCESS)
 619              		.loc 1 134 0 is_stmt 1 discriminator 8
 620 0056 029D     		ldr	r5, [sp, #8]
 621 0058 002D     		cmp	r5, #0
 622 005a 68D1     		bne	.L5
 135:.\Generated_Source\PSoC4/CyFlash.c ****         {
 136:.\Generated_Source\PSoC4/CyFlash.c ****             /***************************************************************
 137:.\Generated_Source\PSoC4/CyFlash.c ****             * Mask all the exceptions to guarantee that Flash write will
 138:.\Generated_Source\PSoC4/CyFlash.c ****             * occur in the atomic way. It will not affect system call
 139:.\Generated_Source\PSoC4/CyFlash.c ****             * execution (flash row write) since it is executed in the NMI
 140:.\Generated_Source\PSoC4/CyFlash.c ****             * context.
 141:.\Generated_Source\PSoC4/CyFlash.c ****             ***************************************************************/
 142:.\Generated_Source\PSoC4/CyFlash.c ****             interruptState = CyEnterCriticalSection();
 623              		.loc 1 142 0
 624 005c FFF7FEFF 		bl	CyEnterCriticalSection
 625              	.LVL4:
 626              	.LBB8:
 627              	.LBB9:
 143:.\Generated_Source\PSoC4/CyFlash.c **** 
 144:.\Generated_Source\PSoC4/CyFlash.c ****             clkCnfRetValue = CySysFlashClockBackup();
 145:.\Generated_Source\PSoC4/CyFlash.c **** 
 146:.\Generated_Source\PSoC4/CyFlash.c ****         #if(CY_IP_SPCIF_SYNCHRONOUS)
 147:.\Generated_Source\PSoC4/CyFlash.c ****             if(clkCnfRetValue == CY_SYS_FLASH_SUCCESS)
 148:.\Generated_Source\PSoC4/CyFlash.c ****             {
 149:.\Generated_Source\PSoC4/CyFlash.c ****                 retValue = CySysFlashClockConfig();
 150:.\Generated_Source\PSoC4/CyFlash.c ****             }
 151:.\Generated_Source\PSoC4/CyFlash.c ****         #endif  /* (CY_IP_SPCIF_SYNCHRONOUS) */
 152:.\Generated_Source\PSoC4/CyFlash.c **** 
 153:.\Generated_Source\PSoC4/CyFlash.c ****             if(retValue == CY_SYS_FLASH_SUCCESS)
 154:.\Generated_Source\PSoC4/CyFlash.c ****             {
ARM GAS  C:\Users\victo\AppData\Local\Temp\cckkraNh.s 			page 46


 155:.\Generated_Source\PSoC4/CyFlash.c ****                 /* Write Row */
 156:.\Generated_Source\PSoC4/CyFlash.c ****                 parameters[0u]  = (uint32) (((uint32) CY_FLASH_KEY_TWO(CY_FLASH_API_OPCODE_WRITE_RO
 157:.\Generated_Source\PSoC4/CyFlash.c ****                 parameters[0u] |= (uint32)(rowNum << 16u);
 158:.\Generated_Source\PSoC4/CyFlash.c **** 
 159:.\Generated_Source\PSoC4/CyFlash.c ****                 CY_FLASH_CPUSS_SYSARG_REG = (uint32) &parameters[0u];
 160:.\Generated_Source\PSoC4/CyFlash.c ****                 CY_FLASH_CPUSS_SYSREQ_REG = CY_FLASH_CPUSS_REQ_START | CY_FLASH_API_OPCODE_WRITE_RO
 161:.\Generated_Source\PSoC4/CyFlash.c ****                 CY_NOP;
 162:.\Generated_Source\PSoC4/CyFlash.c ****                 retValue = CY_FLASH_API_RETURN;
 163:.\Generated_Source\PSoC4/CyFlash.c ****             }
 164:.\Generated_Source\PSoC4/CyFlash.c **** 
 165:.\Generated_Source\PSoC4/CyFlash.c ****             #if (CY_FLASH_CHECKSUM_WORKAROUND)
 166:.\Generated_Source\PSoC4/CyFlash.c **** 
 167:.\Generated_Source\PSoC4/CyFlash.c ****                 if ((retValue == CYRET_SUCCESS) && (needChecksumWorkaround != 0u))
 168:.\Generated_Source\PSoC4/CyFlash.c ****                 {
 169:.\Generated_Source\PSoC4/CyFlash.c ****                     (void)memset((void *)&parameters[2u], 0, CY_FLASH_SIZEOF_ROW);
 170:.\Generated_Source\PSoC4/CyFlash.c ****                     parameters[savedIndex] = savedValue;
 171:.\Generated_Source\PSoC4/CyFlash.c **** 
 172:.\Generated_Source\PSoC4/CyFlash.c ****                     /* Load Flash Bytes */
 173:.\Generated_Source\PSoC4/CyFlash.c ****                     parameters[0u] = (uint32) (CY_FLASH_GET_MACRO_FROM_ROW(rowNum)        << CY_FLA
 174:.\Generated_Source\PSoC4/CyFlash.c ****                                      (uint32) (CY_FLASH_PAGE_LATCH_START_ADDR             << CY_FLA
 175:.\Generated_Source\PSoC4/CyFlash.c ****                                      (uint32) (CY_FLASH_KEY_TWO(CY_FLASH_API_OPCODE_LOAD) << CY_FLA
 176:.\Generated_Source\PSoC4/CyFlash.c ****                                      CY_FLASH_KEY_ONE;
 177:.\Generated_Source\PSoC4/CyFlash.c ****                     parameters[1u] = CY_FLASH_SIZEOF_ROW - 1u;
 178:.\Generated_Source\PSoC4/CyFlash.c **** 
 179:.\Generated_Source\PSoC4/CyFlash.c ****                     CY_FLASH_CPUSS_SYSARG_REG = (uint32) &parameters[0u];
 180:.\Generated_Source\PSoC4/CyFlash.c ****                     CY_FLASH_CPUSS_SYSREQ_REG = CY_FLASH_CPUSS_REQ_START | CY_FLASH_API_OPCODE_LOAD
 181:.\Generated_Source\PSoC4/CyFlash.c ****                     CY_NOP;
 182:.\Generated_Source\PSoC4/CyFlash.c ****                     retValue = CY_FLASH_API_RETURN;
 183:.\Generated_Source\PSoC4/CyFlash.c **** 
 184:.\Generated_Source\PSoC4/CyFlash.c **** 
 185:.\Generated_Source\PSoC4/CyFlash.c ****                     if(retValue == CY_SYS_FLASH_SUCCESS)
 186:.\Generated_Source\PSoC4/CyFlash.c ****                     {
 187:.\Generated_Source\PSoC4/CyFlash.c ****                         /* Program Row */
 188:.\Generated_Source\PSoC4/CyFlash.c ****                         parameters[0u]  =
 189:.\Generated_Source\PSoC4/CyFlash.c ****                             (uint32) (((uint32) CY_FLASH_KEY_TWO(CY_FLASH_API_OPCODE_PROGRAM_ROW) <
 190:.\Generated_Source\PSoC4/CyFlash.c ****                                                     CY_FLASH_PARAM_KEY_TWO_OFFSET) | CY_FLASH_KEY_O
 191:.\Generated_Source\PSoC4/CyFlash.c ****                         parameters[0u] |= (uint32)(rowNum << 16u);
 192:.\Generated_Source\PSoC4/CyFlash.c **** 
 193:.\Generated_Source\PSoC4/CyFlash.c ****                         CY_FLASH_CPUSS_SYSARG_REG = (uint32) &parameters[0u];
 194:.\Generated_Source\PSoC4/CyFlash.c ****                         CY_FLASH_CPUSS_SYSREQ_REG = CY_FLASH_CPUSS_REQ_START | CY_FLASH_API_OPCODE_
 195:.\Generated_Source\PSoC4/CyFlash.c ****                         CY_NOP;
 196:.\Generated_Source\PSoC4/CyFlash.c ****                         retValue = CY_FLASH_API_RETURN;
 197:.\Generated_Source\PSoC4/CyFlash.c ****                     }
 198:.\Generated_Source\PSoC4/CyFlash.c ****                 }
 199:.\Generated_Source\PSoC4/CyFlash.c ****             #endif  /* (CY_FLASH_CHECKSUM_WORKAROUND) */
 200:.\Generated_Source\PSoC4/CyFlash.c **** 
 201:.\Generated_Source\PSoC4/CyFlash.c ****             if(clkCnfRetValue == CY_SYS_FLASH_SUCCESS)
 202:.\Generated_Source\PSoC4/CyFlash.c ****             {
 203:.\Generated_Source\PSoC4/CyFlash.c ****                 clkCnfRetValue = CySysFlashClockRestore();
 204:.\Generated_Source\PSoC4/CyFlash.c ****             }
 205:.\Generated_Source\PSoC4/CyFlash.c **** 
 206:.\Generated_Source\PSoC4/CyFlash.c ****             CyExitCriticalSection(interruptState);
 207:.\Generated_Source\PSoC4/CyFlash.c ****         }
 208:.\Generated_Source\PSoC4/CyFlash.c ****     }
 209:.\Generated_Source\PSoC4/CyFlash.c ****     else
 210:.\Generated_Source\PSoC4/CyFlash.c ****     {
 211:.\Generated_Source\PSoC4/CyFlash.c ****         retValue = CY_SYS_FLASH_INVALID_ADDR;
ARM GAS  C:\Users\victo\AppData\Local\Temp\cckkraNh.s 			page 47


 212:.\Generated_Source\PSoC4/CyFlash.c ****     }
 213:.\Generated_Source\PSoC4/CyFlash.c **** 
 214:.\Generated_Source\PSoC4/CyFlash.c ****     return (retValue);
 215:.\Generated_Source\PSoC4/CyFlash.c **** }
 216:.\Generated_Source\PSoC4/CyFlash.c **** 
 217:.\Generated_Source\PSoC4/CyFlash.c **** 
 218:.\Generated_Source\PSoC4/CyFlash.c **** 
 219:.\Generated_Source\PSoC4/CyFlash.c **** #if (CY_IP_FLASH_PARALLEL_PGM_EN && (CY_IP_FLASH_MACROS > 1u))
 220:.\Generated_Source\PSoC4/CyFlash.c **** /*******************************************************************************
 221:.\Generated_Source\PSoC4/CyFlash.c **** * Function Name: CySysFlashStartWriteRow
 222:.\Generated_Source\PSoC4/CyFlash.c **** ****************************************************************************//**
 223:.\Generated_Source\PSoC4/CyFlash.c **** *
 224:.\Generated_Source\PSoC4/CyFlash.c **** * Initiates a write to a row of Flash. A call to this API is non-blocking. 
 225:.\Generated_Source\PSoC4/CyFlash.c **** * Use CySysFlashResumeWriteRow() to resume flash writes and 
 226:.\Generated_Source\PSoC4/CyFlash.c **** * CySysFlashGetWriteRowStatus() to ascertain status of the write operation.
 227:.\Generated_Source\PSoC4/CyFlash.c **** *
 228:.\Generated_Source\PSoC4/CyFlash.c **** * This API is applicable only for CCG3 device families.
 229:.\Generated_Source\PSoC4/CyFlash.c **** *
 230:.\Generated_Source\PSoC4/CyFlash.c **** * For CCG3 devices, parallel code execution and programming of flash is
 231:.\Generated_Source\PSoC4/CyFlash.c **** * supported since 128k flash is available as two banks of 64k. Please refer to
 232:.\Generated_Source\PSoC4/CyFlash.c **** * the device TRM for more details.
 233:.\Generated_Source\PSoC4/CyFlash.c **** *
 234:.\Generated_Source\PSoC4/CyFlash.c **** * CCG3 devices require HFCLK to be sourced by 48 MHz IMO during flash write.
 235:.\Generated_Source\PSoC4/CyFlash.c **** * This API will modify IMO configuration; it can be later restored to original
 236:.\Generated_Source\PSoC4/CyFlash.c **** * configuration by calling \ref CySysFlashGetWriteRowStatus().
 237:.\Generated_Source\PSoC4/CyFlash.c **** *
 238:.\Generated_Source\PSoC4/CyFlash.c **** * \param rowNum The flash row number. The number of the flash rows is defined by
 239:.\Generated_Source\PSoC4/CyFlash.c **** * the \ref CY_FLASH_NUMBER_ROWS macro for the selected device. Refer to the
 240:.\Generated_Source\PSoC4/CyFlash.c **** * device datasheet for the details.
 241:.\Generated_Source\PSoC4/CyFlash.c **** * \note The target flash array is calculated based on the specified flash row.
 242:.\Generated_Source\PSoC4/CyFlash.c **** *
 243:.\Generated_Source\PSoC4/CyFlash.c **** * \param rowData Array of bytes to write. The size of the array must be equal to
 244:.\Generated_Source\PSoC4/CyFlash.c **** * the flash row size. The flash row size for the selected device is defined by
 245:.\Generated_Source\PSoC4/CyFlash.c **** * the \ref CY_FLASH_SIZEOF_ROW macro. Refer to the device datasheet for the
 246:.\Generated_Source\PSoC4/CyFlash.c **** * details.
 247:.\Generated_Source\PSoC4/CyFlash.c **** *
 248:.\Generated_Source\PSoC4/CyFlash.c **** * \return \ref group_flash_status_codes
 249:.\Generated_Source\PSoC4/CyFlash.c **** *
 250:.\Generated_Source\PSoC4/CyFlash.c **** *******************************************************************************/
 251:.\Generated_Source\PSoC4/CyFlash.c **** uint32 CySysFlashStartWriteRow(uint32 rowNum, const uint8 rowData[])
 252:.\Generated_Source\PSoC4/CyFlash.c **** {
 253:.\Generated_Source\PSoC4/CyFlash.c ****     volatile uint32 retValue = CY_SYS_FLASH_SUCCESS;
 254:.\Generated_Source\PSoC4/CyFlash.c ****     volatile uint32 parameters[(CY_FLASH_SIZEOF_ROW + CY_FLASH_SRAM_ROM_DATA) / sizeof(uint32)];
 255:.\Generated_Source\PSoC4/CyFlash.c ****     uint8  interruptState;
 256:.\Generated_Source\PSoC4/CyFlash.c **** 
 257:.\Generated_Source\PSoC4/CyFlash.c **** #if(CY_IP_SPCIF_SYNCHRONOUS)
 258:.\Generated_Source\PSoC4/CyFlash.c ****     volatile uint32 clkCnfRetValue = CY_SYS_FLASH_SUCCESS;
 259:.\Generated_Source\PSoC4/CyFlash.c **** #endif  /* (CY_IP_SPCIF_SYNCHRONOUS) */    
 260:.\Generated_Source\PSoC4/CyFlash.c **** 
 261:.\Generated_Source\PSoC4/CyFlash.c ****     if ((rowNum < CY_FLASH_NUMBER_ROWS) && (rowData != 0u))
 262:.\Generated_Source\PSoC4/CyFlash.c ****     {
 263:.\Generated_Source\PSoC4/CyFlash.c ****         /* Copy data to be written into internal variable */
 264:.\Generated_Source\PSoC4/CyFlash.c ****         (void)memcpy((void *)&parameters[2u], rowData, CY_FLASH_SIZEOF_ROW);
 265:.\Generated_Source\PSoC4/CyFlash.c **** 
 266:.\Generated_Source\PSoC4/CyFlash.c ****         /* Load Flash Bytes */
 267:.\Generated_Source\PSoC4/CyFlash.c ****         parameters[0u] = (uint32) (CY_FLASH_GET_MACRO_FROM_ROW(rowNum)        << CY_FLASH_PARAM_MAC
 268:.\Generated_Source\PSoC4/CyFlash.c ****                          (uint32) (CY_FLASH_PAGE_LATCH_START_ADDR             << CY_FLASH_PARAM_ADD
ARM GAS  C:\Users\victo\AppData\Local\Temp\cckkraNh.s 			page 48


 269:.\Generated_Source\PSoC4/CyFlash.c ****                          (uint32) (CY_FLASH_KEY_TWO(CY_FLASH_API_OPCODE_LOAD) << CY_FLASH_PARAM_KEY
 270:.\Generated_Source\PSoC4/CyFlash.c ****                          CY_FLASH_KEY_ONE;
 271:.\Generated_Source\PSoC4/CyFlash.c ****         parameters[1u] = CY_FLASH_SIZEOF_ROW - 1u;
 272:.\Generated_Source\PSoC4/CyFlash.c **** 
 273:.\Generated_Source\PSoC4/CyFlash.c ****         CY_FLASH_CPUSS_SYSARG_REG = (uint32) &parameters[0u];
 274:.\Generated_Source\PSoC4/CyFlash.c ****         CY_FLASH_CPUSS_SYSREQ_REG = CY_FLASH_CPUSS_REQ_START | CY_FLASH_API_OPCODE_LOAD;
 275:.\Generated_Source\PSoC4/CyFlash.c ****         CY_NOP;
 276:.\Generated_Source\PSoC4/CyFlash.c ****         retValue = CY_FLASH_API_RETURN;
 277:.\Generated_Source\PSoC4/CyFlash.c **** 
 278:.\Generated_Source\PSoC4/CyFlash.c ****         if(retValue == CY_SYS_FLASH_SUCCESS)
 279:.\Generated_Source\PSoC4/CyFlash.c ****         {
 280:.\Generated_Source\PSoC4/CyFlash.c ****             /***************************************************************
 281:.\Generated_Source\PSoC4/CyFlash.c ****             * Mask all the exceptions to guarantee that Flash write will
 282:.\Generated_Source\PSoC4/CyFlash.c ****             * occur in the atomic way. It will not affect system call
 283:.\Generated_Source\PSoC4/CyFlash.c ****             * execution (flash row write) since it is executed in the NMI
 284:.\Generated_Source\PSoC4/CyFlash.c ****             * context.
 285:.\Generated_Source\PSoC4/CyFlash.c ****             ***************************************************************/
 286:.\Generated_Source\PSoC4/CyFlash.c ****             interruptState = CyEnterCriticalSection();
 287:.\Generated_Source\PSoC4/CyFlash.c **** 
 288:.\Generated_Source\PSoC4/CyFlash.c ****         #if(CY_IP_SPCIF_SYNCHRONOUS)
 289:.\Generated_Source\PSoC4/CyFlash.c ****             clkCnfRetValue = CySysFlashClockBackup();
 290:.\Generated_Source\PSoC4/CyFlash.c ****             
 291:.\Generated_Source\PSoC4/CyFlash.c ****             if(clkCnfRetValue == CY_SYS_FLASH_SUCCESS)
 292:.\Generated_Source\PSoC4/CyFlash.c ****             {
 293:.\Generated_Source\PSoC4/CyFlash.c ****                 retValue = CySysFlashClockConfig();
 294:.\Generated_Source\PSoC4/CyFlash.c ****             }
 295:.\Generated_Source\PSoC4/CyFlash.c ****         #else
 296:.\Generated_Source\PSoC4/CyFlash.c ****             CySysFlashClockBackup();
 297:.\Generated_Source\PSoC4/CyFlash.c ****         #endif  /* (CY_IP_SPCIF_SYNCHRONOUS) */
 298:.\Generated_Source\PSoC4/CyFlash.c **** 
 299:.\Generated_Source\PSoC4/CyFlash.c ****             if(retValue == CY_SYS_FLASH_SUCCESS)
 300:.\Generated_Source\PSoC4/CyFlash.c ****             {
 301:.\Generated_Source\PSoC4/CyFlash.c ****                 /* Non-blocking Write Row */
 302:.\Generated_Source\PSoC4/CyFlash.c ****                 parameters[0u]  = (uint32) (((uint32) CY_FLASH_KEY_TWO(CY_FLASH_API_OPCODE_NON_BLOC
 303:.\Generated_Source\PSoC4/CyFlash.c ****                                                         CY_FLASH_PARAM_KEY_TWO_OFFSET) | CY_FLASH_K
 304:.\Generated_Source\PSoC4/CyFlash.c ****                 parameters[0u] |= (uint32)(rowNum << 16u);
 305:.\Generated_Source\PSoC4/CyFlash.c **** 
 306:.\Generated_Source\PSoC4/CyFlash.c ****                 CY_FLASH_CPUSS_SYSARG_REG = (uint32) &parameters[0u];
 307:.\Generated_Source\PSoC4/CyFlash.c ****                 CY_FLASH_CPUSS_SYSREQ_REG = CY_FLASH_CPUSS_REQ_START | CY_FLASH_API_OPCODE_NON_BLOC
 308:.\Generated_Source\PSoC4/CyFlash.c ****                 CY_NOP;
 309:.\Generated_Source\PSoC4/CyFlash.c ****                 retValue = CY_FLASH_API_RETURN;
 310:.\Generated_Source\PSoC4/CyFlash.c ****             }
 311:.\Generated_Source\PSoC4/CyFlash.c **** 
 312:.\Generated_Source\PSoC4/CyFlash.c ****             CyExitCriticalSection(interruptState);
 313:.\Generated_Source\PSoC4/CyFlash.c ****         }
 314:.\Generated_Source\PSoC4/CyFlash.c ****     }
 315:.\Generated_Source\PSoC4/CyFlash.c ****     else
 316:.\Generated_Source\PSoC4/CyFlash.c ****     {
 317:.\Generated_Source\PSoC4/CyFlash.c ****         retValue = CY_SYS_FLASH_INVALID_ADDR;
 318:.\Generated_Source\PSoC4/CyFlash.c ****     }
 319:.\Generated_Source\PSoC4/CyFlash.c **** 
 320:.\Generated_Source\PSoC4/CyFlash.c ****     return (retValue);
 321:.\Generated_Source\PSoC4/CyFlash.c **** }
 322:.\Generated_Source\PSoC4/CyFlash.c **** 
 323:.\Generated_Source\PSoC4/CyFlash.c **** 
 324:.\Generated_Source\PSoC4/CyFlash.c **** /*******************************************************************************
 325:.\Generated_Source\PSoC4/CyFlash.c **** * Function Name: CySysFlashGetWriteRowStatus
ARM GAS  C:\Users\victo\AppData\Local\Temp\cckkraNh.s 			page 49


 326:.\Generated_Source\PSoC4/CyFlash.c **** ****************************************************************************//**
 327:.\Generated_Source\PSoC4/CyFlash.c **** *
 328:.\Generated_Source\PSoC4/CyFlash.c **** * Returns the current status of the flash write operation.
 329:.\Generated_Source\PSoC4/CyFlash.c **** *
 330:.\Generated_Source\PSoC4/CyFlash.c **** * This API is applicable only for CCG3 device families.
 331:.\Generated_Source\PSoC4/CyFlash.c **** *
 332:.\Generated_Source\PSoC4/CyFlash.c **** * For CCG3 devices, parallel code execution and programming of flash is
 333:.\Generated_Source\PSoC4/CyFlash.c **** * supported since 128k flash is available as two banks of 64k. Please refer to
 334:.\Generated_Source\PSoC4/CyFlash.c **** * the device TRM for more details.
 335:.\Generated_Source\PSoC4/CyFlash.c **** *
 336:.\Generated_Source\PSoC4/CyFlash.c **** * CCG3 devices require HFCLK to be sourced by 48 MHz IMO during flash write.
 337:.\Generated_Source\PSoC4/CyFlash.c **** * This API will restore original IMO configuration; that has been earlier
 338:.\Generated_Source\PSoC4/CyFlash.c **** * modified by \ref CySysFlashStartWriteRow().
 339:.\Generated_Source\PSoC4/CyFlash.c **** *
 340:.\Generated_Source\PSoC4/CyFlash.c **** * \return \ref group_flash_status_codes
 341:.\Generated_Source\PSoC4/CyFlash.c **** *
 342:.\Generated_Source\PSoC4/CyFlash.c **** *******************************************************************************/
 343:.\Generated_Source\PSoC4/CyFlash.c **** uint32 CySysFlashGetWriteRowStatus(void)
 344:.\Generated_Source\PSoC4/CyFlash.c **** {
 345:.\Generated_Source\PSoC4/CyFlash.c ****     volatile uint32 retValue = CY_SYS_FLASH_SUCCESS;
 346:.\Generated_Source\PSoC4/CyFlash.c **** 
 347:.\Generated_Source\PSoC4/CyFlash.c ****     CY_NOP;
 348:.\Generated_Source\PSoC4/CyFlash.c ****     retValue = CY_FLASH_API_RETURN;
 349:.\Generated_Source\PSoC4/CyFlash.c **** 
 350:.\Generated_Source\PSoC4/CyFlash.c ****     (void) CySysFlashClockRestore();
 351:.\Generated_Source\PSoC4/CyFlash.c **** 
 352:.\Generated_Source\PSoC4/CyFlash.c ****     return (retValue);
 353:.\Generated_Source\PSoC4/CyFlash.c **** }
 354:.\Generated_Source\PSoC4/CyFlash.c **** 
 355:.\Generated_Source\PSoC4/CyFlash.c **** 
 356:.\Generated_Source\PSoC4/CyFlash.c **** 
 357:.\Generated_Source\PSoC4/CyFlash.c **** /*******************************************************************************
 358:.\Generated_Source\PSoC4/CyFlash.c **** * Function Name: CySysFlashResumeWriteRow
 359:.\Generated_Source\PSoC4/CyFlash.c **** ****************************************************************************//**
 360:.\Generated_Source\PSoC4/CyFlash.c **** *
 361:.\Generated_Source\PSoC4/CyFlash.c **** * This API must be called, once the SPC interrupt is triggered to complete the
 362:.\Generated_Source\PSoC4/CyFlash.c **** * non-blocking operation. It is advised not to prolong calling this API for
 363:.\Generated_Source\PSoC4/CyFlash.c **** * more than 25 ms.
 364:.\Generated_Source\PSoC4/CyFlash.c **** *
 365:.\Generated_Source\PSoC4/CyFlash.c **** * The non-blocking write row API \ref CySysFlashStartWriteRow() requires that
 366:.\Generated_Source\PSoC4/CyFlash.c **** * this API be called 3 times to complete the write. This can be done by
 367:.\Generated_Source\PSoC4/CyFlash.c **** * configuring SPCIF interrupt and placing a call to this API.
 368:.\Generated_Source\PSoC4/CyFlash.c **** *
 369:.\Generated_Source\PSoC4/CyFlash.c **** * For CM0 based device, a non-blocking call to program a row of macro 0
 370:.\Generated_Source\PSoC4/CyFlash.c **** * requires the user to set the CPUSS_CONFIG.VECS_IN_RAM bit so that the
 371:.\Generated_Source\PSoC4/CyFlash.c **** * interrupt vector for the SPC is fetched from the SRAM rather than the FLASH.
 372:.\Generated_Source\PSoC4/CyFlash.c **** *
 373:.\Generated_Source\PSoC4/CyFlash.c **** * For CM0+ based device, if the user wants to keep the vector table in flash
 374:.\Generated_Source\PSoC4/CyFlash.c **** * when performing non-blocking flash write then they need to make sure the
 375:.\Generated_Source\PSoC4/CyFlash.c **** * vector table is placed in the flash macro which is not getting programmed by
 376:.\Generated_Source\PSoC4/CyFlash.c **** * configuring the VTOR register.
 377:.\Generated_Source\PSoC4/CyFlash.c **** *
 378:.\Generated_Source\PSoC4/CyFlash.c **** * This API is applicable only for CCG3 device families.
 379:.\Generated_Source\PSoC4/CyFlash.c **** *
 380:.\Generated_Source\PSoC4/CyFlash.c **** * \return \ref group_flash_status_codes
 381:.\Generated_Source\PSoC4/CyFlash.c **** *
 382:.\Generated_Source\PSoC4/CyFlash.c **** * \note Please consult the example project NonBlockingFlashWrite_Example for an
ARM GAS  C:\Users\victo\AppData\Local\Temp\cckkraNh.s 			page 50


 383:.\Generated_Source\PSoC4/CyFlash.c **** * implementation.
 384:.\Generated_Source\PSoC4/CyFlash.c **** *
 385:.\Generated_Source\PSoC4/CyFlash.c **** *******************************************************************************/
 386:.\Generated_Source\PSoC4/CyFlash.c **** uint32 CySysFlashResumeWriteRow(void)
 387:.\Generated_Source\PSoC4/CyFlash.c **** {
 388:.\Generated_Source\PSoC4/CyFlash.c ****     volatile uint32 retValue = CY_SYS_FLASH_SUCCESS;
 389:.\Generated_Source\PSoC4/CyFlash.c ****     static volatile uint32 parameters[1u];
 390:.\Generated_Source\PSoC4/CyFlash.c **** 
 391:.\Generated_Source\PSoC4/CyFlash.c ****     /* Resume */
 392:.\Generated_Source\PSoC4/CyFlash.c ****     parameters[0u] = (uint32) (((uint32) CY_FLASH_KEY_TWO(CY_FLASH_API_OPCODE_RESUME_NON_BLOCKING) 
 393:.\Generated_Source\PSoC4/CyFlash.c ****                                          CY_FLASH_PARAM_KEY_TWO_OFFSET) | CY_FLASH_KEY_ONE);
 394:.\Generated_Source\PSoC4/CyFlash.c ****     CY_FLASH_CPUSS_SYSARG_REG = (uint32) &parameters[0u];
 395:.\Generated_Source\PSoC4/CyFlash.c ****     CY_FLASH_CPUSS_SYSREQ_REG = CY_FLASH_CPUSS_REQ_START | CY_FLASH_API_OPCODE_RESUME_NON_BLOCKING;
 396:.\Generated_Source\PSoC4/CyFlash.c ****     
 397:.\Generated_Source\PSoC4/CyFlash.c ****     CY_NOP;
 398:.\Generated_Source\PSoC4/CyFlash.c ****     retValue = CY_FLASH_API_RETURN;
 399:.\Generated_Source\PSoC4/CyFlash.c ****     
 400:.\Generated_Source\PSoC4/CyFlash.c ****     return (retValue);
 401:.\Generated_Source\PSoC4/CyFlash.c **** }
 402:.\Generated_Source\PSoC4/CyFlash.c **** 
 403:.\Generated_Source\PSoC4/CyFlash.c **** #endif /* (CY_IP_FLASH_PARALLEL_PGM_EN && (CY_IP_FLASH_MACROS > 1u)) */
 404:.\Generated_Source\PSoC4/CyFlash.c **** 
 405:.\Generated_Source\PSoC4/CyFlash.c **** 
 406:.\Generated_Source\PSoC4/CyFlash.c **** /*******************************************************************************
 407:.\Generated_Source\PSoC4/CyFlash.c **** * Function Name: CySysFlashSetWaitCycles
 408:.\Generated_Source\PSoC4/CyFlash.c **** ****************************************************************************//**
 409:.\Generated_Source\PSoC4/CyFlash.c **** *
 410:.\Generated_Source\PSoC4/CyFlash.c **** * Sets the number of clock cycles the cache will wait before it samples data
 411:.\Generated_Source\PSoC4/CyFlash.c **** * coming back from Flash. This function must be called before increasing the
 412:.\Generated_Source\PSoC4/CyFlash.c **** * SYSCLK clock frequency. It can optionally be called after lowering SYSCLK
 413:.\Generated_Source\PSoC4/CyFlash.c **** * clock frequency in order to improve the CPU performance.
 414:.\Generated_Source\PSoC4/CyFlash.c **** *
 415:.\Generated_Source\PSoC4/CyFlash.c **** * \param freq The System clock frequency in MHz.
 416:.\Generated_Source\PSoC4/CyFlash.c **** *
 417:.\Generated_Source\PSoC4/CyFlash.c **** * \note Invalid frequency will be ignored in Release mode and the CPU will be
 418:.\Generated_Source\PSoC4/CyFlash.c **** * halted if project is compiled in Debug mode.
 419:.\Generated_Source\PSoC4/CyFlash.c **** *
 420:.\Generated_Source\PSoC4/CyFlash.c **** *******************************************************************************/
 421:.\Generated_Source\PSoC4/CyFlash.c **** void CySysFlashSetWaitCycles(uint32 freq)
 422:.\Generated_Source\PSoC4/CyFlash.c **** {
 423:.\Generated_Source\PSoC4/CyFlash.c ****     uint8  interruptState;
 424:.\Generated_Source\PSoC4/CyFlash.c **** 
 425:.\Generated_Source\PSoC4/CyFlash.c ****     interruptState = CyEnterCriticalSection();
 426:.\Generated_Source\PSoC4/CyFlash.c **** 
 427:.\Generated_Source\PSoC4/CyFlash.c ****     #if (CY_IP_CPUSS)
 428:.\Generated_Source\PSoC4/CyFlash.c **** 
 429:.\Generated_Source\PSoC4/CyFlash.c ****         if ( freq <= CY_FLASH_SYSCLK_BOUNDARY_MHZ )
 430:.\Generated_Source\PSoC4/CyFlash.c ****         {
 431:.\Generated_Source\PSoC4/CyFlash.c ****             CY_SYS_CLK_SELECT_REG &= (uint32)(~CY_FLASH_WAIT_STATE_EN);
 432:.\Generated_Source\PSoC4/CyFlash.c ****         }
 433:.\Generated_Source\PSoC4/CyFlash.c ****         else
 434:.\Generated_Source\PSoC4/CyFlash.c ****         {
 435:.\Generated_Source\PSoC4/CyFlash.c ****             CY_SYS_CLK_SELECT_REG |= CY_FLASH_WAIT_STATE_EN;
 436:.\Generated_Source\PSoC4/CyFlash.c ****         }
 437:.\Generated_Source\PSoC4/CyFlash.c ****     #else
 438:.\Generated_Source\PSoC4/CyFlash.c ****         #if (CY_IP_CPUSS_FLASHC_PRESENT)
 439:.\Generated_Source\PSoC4/CyFlash.c ****             /* CY_IP_FM and CY_IP_FS */
ARM GAS  C:\Users\victo\AppData\Local\Temp\cckkraNh.s 			page 51


 440:.\Generated_Source\PSoC4/CyFlash.c ****             if (freq <= CY_FLASH_CTL_WS_0_FREQ_MAX)
 441:.\Generated_Source\PSoC4/CyFlash.c ****             {
 442:.\Generated_Source\PSoC4/CyFlash.c ****                 CY_FLASH_CTL_REG = (CY_FLASH_CTL_REG & ~CY_FLASH_CTL_WS_MASK) | CY_FLASH_CTL_WS_0_V
 443:.\Generated_Source\PSoC4/CyFlash.c ****             } else
 444:.\Generated_Source\PSoC4/CyFlash.c ****             if (freq <= CY_FLASH_CTL_WS_1_FREQ_MAX)
 445:.\Generated_Source\PSoC4/CyFlash.c ****             {
 446:.\Generated_Source\PSoC4/CyFlash.c ****                 CY_FLASH_CTL_REG = (CY_FLASH_CTL_REG & ~CY_FLASH_CTL_WS_MASK) | CY_FLASH_CTL_WS_1_V
 447:.\Generated_Source\PSoC4/CyFlash.c ****             } else
 448:.\Generated_Source\PSoC4/CyFlash.c ****             #if (CY_IP_FMLT || CY_IP_FSLT)
 449:.\Generated_Source\PSoC4/CyFlash.c ****                 if (freq <= CY_FLASH_CTL_WS_2_FREQ_MAX)
 450:.\Generated_Source\PSoC4/CyFlash.c ****                 {
 451:.\Generated_Source\PSoC4/CyFlash.c ****                     CY_FLASH_CTL_REG = (CY_FLASH_CTL_REG & ~CY_FLASH_CTL_WS_MASK) | CY_FLASH_CTL_WS
 452:.\Generated_Source\PSoC4/CyFlash.c ****                 }
 453:.\Generated_Source\PSoC4/CyFlash.c ****                 else
 454:.\Generated_Source\PSoC4/CyFlash.c ****             #endif  /* (CY_IP_FMLT || CY_IP_FSLT) */
 455:.\Generated_Source\PSoC4/CyFlash.c ****         #endif /* (CY_IP_CPUSS_FLASHC_PRESENT) */
 456:.\Generated_Source\PSoC4/CyFlash.c ****         {
 457:.\Generated_Source\PSoC4/CyFlash.c ****             /* Halt CPU in debug mode if frequency is invalid */
 458:.\Generated_Source\PSoC4/CyFlash.c ****             CYASSERT(0u != 0u);
 459:.\Generated_Source\PSoC4/CyFlash.c ****         }
 460:.\Generated_Source\PSoC4/CyFlash.c **** 
 461:.\Generated_Source\PSoC4/CyFlash.c ****     #endif  /* (CY_IP_CPUSS) */
 462:.\Generated_Source\PSoC4/CyFlash.c **** 
 463:.\Generated_Source\PSoC4/CyFlash.c ****     CyExitCriticalSection(interruptState);
 464:.\Generated_Source\PSoC4/CyFlash.c **** }
 465:.\Generated_Source\PSoC4/CyFlash.c **** 
 466:.\Generated_Source\PSoC4/CyFlash.c **** 
 467:.\Generated_Source\PSoC4/CyFlash.c **** #if (CY_SFLASH_XTRA_ROWS)
 468:.\Generated_Source\PSoC4/CyFlash.c **** /*******************************************************************************
 469:.\Generated_Source\PSoC4/CyFlash.c **** * Function Name: CySysSFlashWriteUserRow
 470:.\Generated_Source\PSoC4/CyFlash.c **** ****************************************************************************//**
 471:.\Generated_Source\PSoC4/CyFlash.c **** *
 472:.\Generated_Source\PSoC4/CyFlash.c **** * Writes data to a row of SFlash user configurable area.
 473:.\Generated_Source\PSoC4/CyFlash.c **** *
 474:.\Generated_Source\PSoC4/CyFlash.c **** * This API is applicable for PSoC 4100 BLE, PSoC 4200 BLE, PSoC 4100M,
 475:.\Generated_Source\PSoC4/CyFlash.c **** * PSoC 4200M, and PSoC 4200L family of devices.
 476:.\Generated_Source\PSoC4/CyFlash.c **** *
 477:.\Generated_Source\PSoC4/CyFlash.c **** * \param rowNum The flash row number. The flash row number. The number of the
 478:.\Generated_Source\PSoC4/CyFlash.c **** * flash rows is defined by the CY_SFLASH_NUMBER_USERROWS macro for the selected
 479:.\Generated_Source\PSoC4/CyFlash.c **** * device. Valid range is 0-3. Refer to the device TRM for details.
 480:.\Generated_Source\PSoC4/CyFlash.c **** *
 481:.\Generated_Source\PSoC4/CyFlash.c **** * \param rowData Array of bytes to write. The size of the array must be equal to
 482:.\Generated_Source\PSoC4/CyFlash.c **** * the flash row size. The flash row size for the selected device is defined by
 483:.\Generated_Source\PSoC4/CyFlash.c **** * the \ref CY_SFLASH_SIZEOF_USERROW macro. Refer to the device TRM for the
 484:.\Generated_Source\PSoC4/CyFlash.c **** * details.
 485:.\Generated_Source\PSoC4/CyFlash.c **** *
 486:.\Generated_Source\PSoC4/CyFlash.c **** * \return \ref group_flash_status_codes
 487:.\Generated_Source\PSoC4/CyFlash.c **** *
 488:.\Generated_Source\PSoC4/CyFlash.c **** *******************************************************************************/
 489:.\Generated_Source\PSoC4/CyFlash.c **** uint32 CySysSFlashWriteUserRow(uint32 rowNum, const uint8 rowData[])
 490:.\Generated_Source\PSoC4/CyFlash.c **** {
 491:.\Generated_Source\PSoC4/CyFlash.c ****     volatile uint32 retValue = CY_SYS_FLASH_SUCCESS;
 492:.\Generated_Source\PSoC4/CyFlash.c ****     volatile uint32 clkCnfRetValue = CY_SYS_FLASH_SUCCESS;
 493:.\Generated_Source\PSoC4/CyFlash.c ****     volatile uint32 parameters[(CY_FLASH_SIZEOF_ROW + CY_FLASH_SRAM_ROM_DATA)/4u];
 494:.\Generated_Source\PSoC4/CyFlash.c ****     uint8  interruptState;
 495:.\Generated_Source\PSoC4/CyFlash.c **** 
 496:.\Generated_Source\PSoC4/CyFlash.c **** 
ARM GAS  C:\Users\victo\AppData\Local\Temp\cckkraNh.s 			page 52


 497:.\Generated_Source\PSoC4/CyFlash.c ****     if ((rowNum < CY_SFLASH_NUMBER_USERROWS) && (rowData != 0u))
 498:.\Generated_Source\PSoC4/CyFlash.c ****     {
 499:.\Generated_Source\PSoC4/CyFlash.c ****         /* Load Flash Bytes */
 500:.\Generated_Source\PSoC4/CyFlash.c ****         parameters[0u] = (uint32) (CY_FLASH_GET_MACRO_FROM_ROW(rowNum)        << CY_FLASH_PARAM_MAC
 501:.\Generated_Source\PSoC4/CyFlash.c ****                          (uint32) (CY_FLASH_PAGE_LATCH_START_ADDR             << CY_FLASH_PARAM_ADD
 502:.\Generated_Source\PSoC4/CyFlash.c ****                          (uint32) (CY_FLASH_KEY_TWO(CY_FLASH_API_OPCODE_LOAD) << CY_FLASH_PARAM_KEY
 503:.\Generated_Source\PSoC4/CyFlash.c ****                          CY_FLASH_KEY_ONE;
 504:.\Generated_Source\PSoC4/CyFlash.c ****         parameters[1u] = CY_FLASH_SIZEOF_ROW - 1u;
 505:.\Generated_Source\PSoC4/CyFlash.c **** 
 506:.\Generated_Source\PSoC4/CyFlash.c ****         (void)memcpy((void *)&parameters[2u], rowData, CY_FLASH_SIZEOF_ROW);
 507:.\Generated_Source\PSoC4/CyFlash.c ****         CY_FLASH_CPUSS_SYSARG_REG = (uint32) &parameters[0u];
 508:.\Generated_Source\PSoC4/CyFlash.c ****         CY_FLASH_CPUSS_SYSREQ_REG = CY_FLASH_CPUSS_REQ_START | CY_FLASH_API_OPCODE_LOAD;
 509:.\Generated_Source\PSoC4/CyFlash.c ****         CY_NOP;
 510:.\Generated_Source\PSoC4/CyFlash.c ****         retValue = CY_FLASH_API_RETURN;
 511:.\Generated_Source\PSoC4/CyFlash.c **** 
 512:.\Generated_Source\PSoC4/CyFlash.c ****         if(retValue == CY_SYS_FLASH_SUCCESS)
 513:.\Generated_Source\PSoC4/CyFlash.c ****         {
 514:.\Generated_Source\PSoC4/CyFlash.c ****             /***************************************************************
 515:.\Generated_Source\PSoC4/CyFlash.c ****             * Mask all the exceptions to guarantee that Flash write will
 516:.\Generated_Source\PSoC4/CyFlash.c ****             * occur in the atomic way. It will not affect system call
 517:.\Generated_Source\PSoC4/CyFlash.c ****             * execution (flash row write) since it is executed in the NMI
 518:.\Generated_Source\PSoC4/CyFlash.c ****             * context.
 519:.\Generated_Source\PSoC4/CyFlash.c ****             ***************************************************************/
 520:.\Generated_Source\PSoC4/CyFlash.c ****             interruptState = CyEnterCriticalSection();
 521:.\Generated_Source\PSoC4/CyFlash.c **** 
 522:.\Generated_Source\PSoC4/CyFlash.c ****             clkCnfRetValue = CySysFlashClockBackup();
 523:.\Generated_Source\PSoC4/CyFlash.c **** 
 524:.\Generated_Source\PSoC4/CyFlash.c ****         #if(CY_IP_SPCIF_SYNCHRONOUS)
 525:.\Generated_Source\PSoC4/CyFlash.c ****             if(clkCnfRetValue == CY_SYS_FLASH_SUCCESS)
 526:.\Generated_Source\PSoC4/CyFlash.c ****             {
 527:.\Generated_Source\PSoC4/CyFlash.c ****                 retValue = CySysFlashClockConfig();
 528:.\Generated_Source\PSoC4/CyFlash.c ****             }
 529:.\Generated_Source\PSoC4/CyFlash.c ****         #endif  /* (CY_IP_SPCIF_SYNCHRONOUS) */
 530:.\Generated_Source\PSoC4/CyFlash.c **** 
 531:.\Generated_Source\PSoC4/CyFlash.c ****             if(retValue == CY_SYS_FLASH_SUCCESS)
 532:.\Generated_Source\PSoC4/CyFlash.c ****             {
 533:.\Generated_Source\PSoC4/CyFlash.c ****                 /* Write User Sflash Row */
 534:.\Generated_Source\PSoC4/CyFlash.c ****                 parameters[0u]  = (uint32) (((uint32) CY_FLASH_KEY_TWO(CY_FLASH_API_OPCODE_WRITE_SF
 535:.\Generated_Source\PSoC4/CyFlash.c ****                 parameters[1u] = (uint32) rowNum;
 536:.\Generated_Source\PSoC4/CyFlash.c **** 
 537:.\Generated_Source\PSoC4/CyFlash.c ****                 CY_FLASH_CPUSS_SYSARG_REG = (uint32) &parameters[0u];
 538:.\Generated_Source\PSoC4/CyFlash.c ****                 CY_FLASH_CPUSS_SYSREQ_REG = CY_FLASH_CPUSS_REQ_START | CY_FLASH_API_OPCODE_WRITE_SF
 539:.\Generated_Source\PSoC4/CyFlash.c ****                 CY_NOP;
 540:.\Generated_Source\PSoC4/CyFlash.c ****                 retValue = CY_FLASH_API_RETURN;
 541:.\Generated_Source\PSoC4/CyFlash.c ****             }
 542:.\Generated_Source\PSoC4/CyFlash.c **** 
 543:.\Generated_Source\PSoC4/CyFlash.c ****             if(clkCnfRetValue == CY_SYS_FLASH_SUCCESS)
 544:.\Generated_Source\PSoC4/CyFlash.c ****             {
 545:.\Generated_Source\PSoC4/CyFlash.c ****                 clkCnfRetValue = CySysFlashClockRestore();
 546:.\Generated_Source\PSoC4/CyFlash.c ****             }
 547:.\Generated_Source\PSoC4/CyFlash.c ****             CyExitCriticalSection(interruptState);
 548:.\Generated_Source\PSoC4/CyFlash.c ****         }
 549:.\Generated_Source\PSoC4/CyFlash.c ****     }
 550:.\Generated_Source\PSoC4/CyFlash.c ****     else
 551:.\Generated_Source\PSoC4/CyFlash.c ****     {
 552:.\Generated_Source\PSoC4/CyFlash.c ****         retValue = CY_SYS_FLASH_INVALID_ADDR;
 553:.\Generated_Source\PSoC4/CyFlash.c ****     }
ARM GAS  C:\Users\victo\AppData\Local\Temp\cckkraNh.s 			page 53


 554:.\Generated_Source\PSoC4/CyFlash.c **** 
 555:.\Generated_Source\PSoC4/CyFlash.c ****     return (retValue);
 556:.\Generated_Source\PSoC4/CyFlash.c **** }
 557:.\Generated_Source\PSoC4/CyFlash.c **** #endif /* (CY_SFLASH_XTRA_ROWS) */
 558:.\Generated_Source\PSoC4/CyFlash.c **** 
 559:.\Generated_Source\PSoC4/CyFlash.c **** 
 560:.\Generated_Source\PSoC4/CyFlash.c **** /*******************************************************************************
 561:.\Generated_Source\PSoC4/CyFlash.c **** * Function Name: CySysFlashClockBackup
 562:.\Generated_Source\PSoC4/CyFlash.c **** ****************************************************************************//**
 563:.\Generated_Source\PSoC4/CyFlash.c **** *
 564:.\Generated_Source\PSoC4/CyFlash.c **** * Backups the device clock configuration.
 565:.\Generated_Source\PSoC4/CyFlash.c **** *
 566:.\Generated_Source\PSoC4/CyFlash.c **** * \return The same as \ref CySysFlashWriteRow().
 567:.\Generated_Source\PSoC4/CyFlash.c **** *
 568:.\Generated_Source\PSoC4/CyFlash.c **** *******************************************************************************/
 569:.\Generated_Source\PSoC4/CyFlash.c **** static cystatus CySysFlashClockBackup(void)
 570:.\Generated_Source\PSoC4/CyFlash.c **** {
 571:.\Generated_Source\PSoC4/CyFlash.c ****     cystatus retValue = CY_SYS_FLASH_SUCCESS;
 572:.\Generated_Source\PSoC4/CyFlash.c **** #if(!CY_IP_FM)
 573:.\Generated_Source\PSoC4/CyFlash.c ****     #if !(CY_PSOC4_4000)
 574:.\Generated_Source\PSoC4/CyFlash.c ****         #if (CY_IP_SPCIF_SYNCHRONOUS)
 575:.\Generated_Source\PSoC4/CyFlash.c ****             volatile uint32   parameters[2u];
 576:.\Generated_Source\PSoC4/CyFlash.c ****         #endif /* (CY_IP_SPCIF_SYNCHRONOUS) */
 577:.\Generated_Source\PSoC4/CyFlash.c ****     #endif  /* !(CY_PSOC4_4000) */
 578:.\Generated_Source\PSoC4/CyFlash.c **** #endif  /* (!CY_IP_FM) */
 579:.\Generated_Source\PSoC4/CyFlash.c **** 
 580:.\Generated_Source\PSoC4/CyFlash.c **** #if(CY_IP_FM)
 581:.\Generated_Source\PSoC4/CyFlash.c **** 
 582:.\Generated_Source\PSoC4/CyFlash.c ****     /***************************************************************
 583:.\Generated_Source\PSoC4/CyFlash.c ****     * Preserve IMO configuration that could be changed during
 584:.\Generated_Source\PSoC4/CyFlash.c ****     * system call execution (Cypress ID #150448).
 585:.\Generated_Source\PSoC4/CyFlash.c ****     ***************************************************************/
 586:.\Generated_Source\PSoC4/CyFlash.c ****     cySysFlashBackup.imoConfigReg = CY_SYS_CLK_IMO_CONFIG_REG;
 587:.\Generated_Source\PSoC4/CyFlash.c **** 
 588:.\Generated_Source\PSoC4/CyFlash.c **** #else   /* (CY_IP_FMLT) */
 589:.\Generated_Source\PSoC4/CyFlash.c **** 
 590:.\Generated_Source\PSoC4/CyFlash.c ****     #if (CY_PSOC4_4000)
 591:.\Generated_Source\PSoC4/CyFlash.c **** 
 592:.\Generated_Source\PSoC4/CyFlash.c ****         /***************************************************************************
 593:.\Generated_Source\PSoC4/CyFlash.c ****         * Perform firmware clock settings backup for the PSOC4 4000 devices (the
 594:.\Generated_Source\PSoC4/CyFlash.c ****         * corresponding system call is not available).
 595:.\Generated_Source\PSoC4/CyFlash.c ****         ***************************************************************************/
 596:.\Generated_Source\PSoC4/CyFlash.c **** 
 597:.\Generated_Source\PSoC4/CyFlash.c ****         /***************************************************************************
 598:.\Generated_Source\PSoC4/CyFlash.c ****         * The registers listed below are modified by CySysFlashClockConfig().
 599:.\Generated_Source\PSoC4/CyFlash.c ****         *
 600:.\Generated_Source\PSoC4/CyFlash.c ****         * The registers to be saved:
 601:.\Generated_Source\PSoC4/CyFlash.c ****         * - CY_SYS_CLK_IMO_CONFIG_REG - IMO enable state.
 602:.\Generated_Source\PSoC4/CyFlash.c ****         * - CY_SYS_CLK_SELECT_REG     - HFCLK source, divider, pump source. Save
 603:.\Generated_Source\PSoC4/CyFlash.c ****         *                               entire register as it can be directly
 604:.\Generated_Source\PSoC4/CyFlash.c ****         *                               written on restore (no special
 605:.\Generated_Source\PSoC4/CyFlash.c ****         *                               requirements).
 606:.\Generated_Source\PSoC4/CyFlash.c ****         * - CY_SYS_CLK_IMO_SELECT_REG - Save IMO frequency.
 607:.\Generated_Source\PSoC4/CyFlash.c ****         *
 608:.\Generated_Source\PSoC4/CyFlash.c ****         * The registers not to be saved:
 609:.\Generated_Source\PSoC4/CyFlash.c ****         * - CY_SYS_CLK_IMO_TRIM1_REG  - No need to save. Function of frequency.
 610:.\Generated_Source\PSoC4/CyFlash.c ****         *                               Restored by CySysClkWriteImoFreq().
ARM GAS  C:\Users\victo\AppData\Local\Temp\cckkraNh.s 			page 54


 611:.\Generated_Source\PSoC4/CyFlash.c ****         * - CY_SYS_CLK_IMO_TRIM3_REG  - No need to save. Function of frequency.
 612:.\Generated_Source\PSoC4/CyFlash.c ****         *                               Restored by CySysClkWriteImoFreq().
 613:.\Generated_Source\PSoC4/CyFlash.c ****         * - REG_CPUSS_FLASH_CTL       - Flash wait cycles. Unmodified due to system
 614:.\Generated_Source\PSoC4/CyFlash.c ****         *                               clock 16 MHz limit.
 615:.\Generated_Source\PSoC4/CyFlash.c ****         ***************************************************************************/
 616:.\Generated_Source\PSoC4/CyFlash.c **** 
 617:.\Generated_Source\PSoC4/CyFlash.c ****         cySysFlashBackup.clkSelectReg = CY_SYS_CLK_SELECT_REG;
 618:.\Generated_Source\PSoC4/CyFlash.c ****         cySysFlashBackup.clkImoEna    = CY_SYS_CLK_IMO_CONFIG_REG & CY_SYS_CLK_IMO_CONFIG_ENABLE;
 619:.\Generated_Source\PSoC4/CyFlash.c ****         cySysFlashBackup.clkImoFreq   = CY_SYS_CLK_IMO_MIN_FREQ_MHZ + (CY_SYS_CLK_IMO_SELECT_REG <<
 620:.\Generated_Source\PSoC4/CyFlash.c **** 
 621:.\Generated_Source\PSoC4/CyFlash.c ****     #else
 622:.\Generated_Source\PSoC4/CyFlash.c **** 
 623:.\Generated_Source\PSoC4/CyFlash.c ****         #if (CY_IP_SPCIF_SYNCHRONOUS)
 624:.\Generated_Source\PSoC4/CyFlash.c ****             /* FM-Lite Clock Backup System Call */
 625:.\Generated_Source\PSoC4/CyFlash.c ****             parameters[0u] =
 628              		.loc 1 625 0
 629 0060 394B     		ldr	r3, .L26+20
 626:.\Generated_Source\PSoC4/CyFlash.c ****                 (uint32) ((CY_FLASH_KEY_TWO(CY_FLASH_API_OPCODE_CLK_BACKUP) <<  CY_FLASH_PARAM_KEY_
 627:.\Generated_Source\PSoC4/CyFlash.c ****                             CY_FLASH_KEY_ONE);
 628:.\Generated_Source\PSoC4/CyFlash.c ****             parameters[1u] = (uint32) &cySysFlashBackup.clockSettings[0u];
 630              		.loc 1 628 0
 631 0062 3A4A     		ldr	r2, .L26+24
 625:.\Generated_Source\PSoC4/CyFlash.c ****                 (uint32) ((CY_FLASH_KEY_TWO(CY_FLASH_API_OPCODE_CLK_BACKUP) <<  CY_FLASH_PARAM_KEY_
 632              		.loc 1 625 0
 633 0064 04A9     		add	r1, sp, #16
 634 0066 0493     		str	r3, [sp, #16]
 635              		.loc 1 628 0
 636 0068 0592     		str	r2, [sp, #20]
 629:.\Generated_Source\PSoC4/CyFlash.c ****             CY_FLASH_CPUSS_SYSARG_REG = (uint32) &parameters[0u];
 637              		.loc 1 629 0
 638 006a 2160     		str	r1, [r4]
 630:.\Generated_Source\PSoC4/CyFlash.c ****             CY_FLASH_CPUSS_SYSREQ_REG = CY_FLASH_CPUSS_REQ_START | CY_FLASH_API_OPCODE_CLK_BACKUP;
 639              		.loc 1 630 0
 640 006c 3849     		ldr	r1, .L26+28
 629:.\Generated_Source\PSoC4/CyFlash.c ****             CY_FLASH_CPUSS_SYSARG_REG = (uint32) &parameters[0u];
 641              		.loc 1 629 0
 642 006e 334B     		ldr	r3, .L26+8
 643              		.loc 1 630 0
 644 0070 3160     		str	r1, [r6]
 631:.\Generated_Source\PSoC4/CyFlash.c ****             CY_NOP;
 645              		.loc 1 631 0
 646              	@ 631 ".\Generated_Source\PSoC4\CyFlash.c" 1
 647 0072 C046     		NOP
 648              	
 649              	@ 0 "" 2
 632:.\Generated_Source\PSoC4/CyFlash.c ****             retValue = CY_FLASH_API_RETURN;
 650              		.loc 1 632 0
 651              		.code	16
 652 0074 2168     		ldr	r1, [r4]
 653 0076 090F     		lsr	r1, r1, #28
 654 0078 0F29     		cmp	r1, #15
 655 007a 02D1     		bne	.L6
 656 007c 1D68     		ldr	r5, [r3]
 657 007e EDB2     		uxtb	r5, r5
 658 0080 04E0     		b	.L7
 659              	.L6:
 660 0082 1968     		ldr	r1, [r3]
ARM GAS  C:\Users\victo\AppData\Local\Temp\cckkraNh.s 			page 55


 661 0084 090F     		lsr	r1, r1, #28
 662 0086 0A29     		cmp	r1, #10
 663 0088 00D0     		beq	.L7
 664 008a 1D68     		ldr	r5, [r3]
 665              	.LVL5:
 666              	.L7:
 667              	.LBE9:
 668              	.LBE8:
 144:.\Generated_Source\PSoC4/CyFlash.c **** 
 669              		.loc 1 144 0
 670 008c 0395     		str	r5, [sp, #12]
 147:.\Generated_Source\PSoC4/CyFlash.c ****             {
 671              		.loc 1 147 0
 672 008e 039B     		ldr	r3, [sp, #12]
 673 0090 002B     		cmp	r3, #0
 674 0092 12D1     		bne	.L8
 675              	.LVL6:
 676              	.LBB10:
 677              	.LBB11:
 633:.\Generated_Source\PSoC4/CyFlash.c ****         #endif /* (CY_IP_SPCIF_SYNCHRONOUS) */
 634:.\Generated_Source\PSoC4/CyFlash.c **** 
 635:.\Generated_Source\PSoC4/CyFlash.c ****     #endif  /* (CY_PSOC4_4000) */
 636:.\Generated_Source\PSoC4/CyFlash.c **** 
 637:.\Generated_Source\PSoC4/CyFlash.c **** #endif  /* (CY_IP_FM) */
 638:.\Generated_Source\PSoC4/CyFlash.c **** 
 639:.\Generated_Source\PSoC4/CyFlash.c ****     return (retValue);
 640:.\Generated_Source\PSoC4/CyFlash.c **** }
 641:.\Generated_Source\PSoC4/CyFlash.c **** 
 642:.\Generated_Source\PSoC4/CyFlash.c **** 
 643:.\Generated_Source\PSoC4/CyFlash.c **** #if(CY_IP_SPCIF_SYNCHRONOUS)
 644:.\Generated_Source\PSoC4/CyFlash.c **** /*******************************************************************************
 645:.\Generated_Source\PSoC4/CyFlash.c **** * Function Name: CySysFlashClockConfig
 646:.\Generated_Source\PSoC4/CyFlash.c **** ****************************************************************************//**
 647:.\Generated_Source\PSoC4/CyFlash.c **** *
 648:.\Generated_Source\PSoC4/CyFlash.c **** * Configures the device clocks for the flash writing.
 649:.\Generated_Source\PSoC4/CyFlash.c **** *
 650:.\Generated_Source\PSoC4/CyFlash.c **** * \return The same as \ref CySysFlashWriteRow().
 651:.\Generated_Source\PSoC4/CyFlash.c **** *
 652:.\Generated_Source\PSoC4/CyFlash.c **** *******************************************************************************/
 653:.\Generated_Source\PSoC4/CyFlash.c **** static cystatus CySysFlashClockConfig(void)
 654:.\Generated_Source\PSoC4/CyFlash.c **** {
 655:.\Generated_Source\PSoC4/CyFlash.c ****     cystatus retValue = CY_SYS_FLASH_SUCCESS;
 656:.\Generated_Source\PSoC4/CyFlash.c **** 
 657:.\Generated_Source\PSoC4/CyFlash.c ****     /***************************************************************************
 658:.\Generated_Source\PSoC4/CyFlash.c ****     * The FM-Lite IP uses the IMO at 48MHz for the pump clock and SPC timer
 659:.\Generated_Source\PSoC4/CyFlash.c ****     * clock. The PUMP_SEL and HF clock must be set to IMO before calling Flash
 660:.\Generated_Source\PSoC4/CyFlash.c ****     * write or erase operation.
 661:.\Generated_Source\PSoC4/CyFlash.c ****     ***************************************************************************/
 662:.\Generated_Source\PSoC4/CyFlash.c **** #if (CY_PSOC4_4000)
 663:.\Generated_Source\PSoC4/CyFlash.c **** 
 664:.\Generated_Source\PSoC4/CyFlash.c ****     /***************************************************************************
 665:.\Generated_Source\PSoC4/CyFlash.c ****     * Perform firmware clock settings setup for the PSOC4 4000 devices (the
 666:.\Generated_Source\PSoC4/CyFlash.c ****     * corresponding system call is not reliable):
 667:.\Generated_Source\PSoC4/CyFlash.c ****     * - The IMO frequency should be 48 MHz
 668:.\Generated_Source\PSoC4/CyFlash.c ****     * - The IMO should be source for the HFCLK
 669:.\Generated_Source\PSoC4/CyFlash.c ****     * - The IMO should be the source for the charge pump clock
 670:.\Generated_Source\PSoC4/CyFlash.c ****     *
ARM GAS  C:\Users\victo\AppData\Local\Temp\cckkraNh.s 			page 56


 671:.\Generated_Source\PSoC4/CyFlash.c ****     * Note The structure members used below are initialized by
 672:.\Generated_Source\PSoC4/CyFlash.c ****     * the CySysFlashClockBackup() function.
 673:.\Generated_Source\PSoC4/CyFlash.c ****     ***************************************************************************/
 674:.\Generated_Source\PSoC4/CyFlash.c ****     if ((cySysFlashBackup.clkImoFreq != 48u) ||
 675:.\Generated_Source\PSoC4/CyFlash.c ****         ((cySysFlashBackup.clkSelectReg & CY_SYS_CLK_SELECT_DIRECT_SEL_MASK) != CY_SYS_CLK_HFCLK_IM
 676:.\Generated_Source\PSoC4/CyFlash.c ****         (((cySysFlashBackup.clkSelectReg >> CY_SYS_CLK_SELECT_PUMP_SEL_SHIFT) & CY_SYS_CLK_SELECT_P
 677:.\Generated_Source\PSoC4/CyFlash.c ****             CY_SYS_CLK_SELECT_PUMP_SEL_IMO))
 678:.\Generated_Source\PSoC4/CyFlash.c ****     {
 679:.\Generated_Source\PSoC4/CyFlash.c ****         /***********************************************************************
 680:.\Generated_Source\PSoC4/CyFlash.c ****          Set HFCLK divider to divide-by-4 to ensure that System clock frequency
 681:.\Generated_Source\PSoC4/CyFlash.c ****         * is within the valid limit (16 MHz for the PSoC4 4000).
 682:.\Generated_Source\PSoC4/CyFlash.c ****         ***********************************************************************/
 683:.\Generated_Source\PSoC4/CyFlash.c ****         CySysClkWriteHfclkDiv(CY_SYS_CLK_HFCLK_DIV_4);
 684:.\Generated_Source\PSoC4/CyFlash.c **** 
 685:.\Generated_Source\PSoC4/CyFlash.c ****         /* The IMO frequency should be 48 MHz */
 686:.\Generated_Source\PSoC4/CyFlash.c ****         if (cySysFlashBackup.clkImoFreq != 48u)
 687:.\Generated_Source\PSoC4/CyFlash.c ****         {
 688:.\Generated_Source\PSoC4/CyFlash.c ****             CySysClkWriteImoFreq(48u);
 689:.\Generated_Source\PSoC4/CyFlash.c ****         }
 690:.\Generated_Source\PSoC4/CyFlash.c ****         CySysClkImoStart();
 691:.\Generated_Source\PSoC4/CyFlash.c **** 
 692:.\Generated_Source\PSoC4/CyFlash.c ****         /* The IMO should be source for the HFCLK */
 693:.\Generated_Source\PSoC4/CyFlash.c ****         CySysClkWriteHfclkDirect(CY_SYS_CLK_HFCLK_IMO);
 694:.\Generated_Source\PSoC4/CyFlash.c **** 
 695:.\Generated_Source\PSoC4/CyFlash.c ****         /* The IMO should be the source for the charge pump clock */
 696:.\Generated_Source\PSoC4/CyFlash.c ****         CY_SYS_CLK_SELECT_REG =  (CY_SYS_CLK_SELECT_REG &
 697:.\Generated_Source\PSoC4/CyFlash.c ****             ((uint32)~(uint32)(CY_SYS_CLK_SELECT_PUMP_SEL_MASK << CY_SYS_CLK_SELECT_PUMP_SEL_SHIFT)
 698:.\Generated_Source\PSoC4/CyFlash.c ****             ((uint32)((uint32)1u << CY_SYS_CLK_SELECT_PUMP_SEL_SHIFT));
 699:.\Generated_Source\PSoC4/CyFlash.c ****     }
 700:.\Generated_Source\PSoC4/CyFlash.c **** 
 701:.\Generated_Source\PSoC4/CyFlash.c **** #else
 702:.\Generated_Source\PSoC4/CyFlash.c **** 
 703:.\Generated_Source\PSoC4/CyFlash.c ****     /* FM-Lite Clock Configuration */
 704:.\Generated_Source\PSoC4/CyFlash.c ****     CY_FLASH_CPUSS_SYSARG_REG =
 678              		.loc 1 704 0
 679 0094 2F4D     		ldr	r5, .L26+32
 680              	.LVL7:
 681 0096 2949     		ldr	r1, .L26+8
 682 0098 2560     		str	r5, [r4]
 683              	.LVL8:
 705:.\Generated_Source\PSoC4/CyFlash.c ****         (uint32) ((CY_FLASH_KEY_TWO(CY_FLASH_API_OPCODE_CLK_CONFIG) <<  CY_FLASH_PARAM_KEY_TWO_OFFS
 706:.\Generated_Source\PSoC4/CyFlash.c ****                     CY_FLASH_KEY_ONE);
 707:.\Generated_Source\PSoC4/CyFlash.c ****     CY_FLASH_CPUSS_SYSREQ_REG = CY_FLASH_CPUSS_REQ_START | CY_FLASH_API_OPCODE_CLK_CONFIG;
 684              		.loc 1 707 0
 685 009a 2F4D     		ldr	r5, .L26+36
 686 009c 3560     		str	r5, [r6]
 708:.\Generated_Source\PSoC4/CyFlash.c ****     CY_NOP;
 687              		.loc 1 708 0
 688              	@ 708 ".\Generated_Source\PSoC4\CyFlash.c" 1
 689 009e C046     		NOP
 690              	
 691              	@ 0 "" 2
 709:.\Generated_Source\PSoC4/CyFlash.c ****     retValue = CY_FLASH_API_RETURN;
 692              		.loc 1 709 0
 693              		.code	16
 694 00a0 2568     		ldr	r5, [r4]
 695 00a2 2D0F     		lsr	r5, r5, #28
ARM GAS  C:\Users\victo\AppData\Local\Temp\cckkraNh.s 			page 57


 696 00a4 0F2D     		cmp	r5, #15
 697 00a6 02D1     		bne	.L9
 698 00a8 0B68     		ldr	r3, [r1]
 699 00aa DBB2     		uxtb	r3, r3
 700 00ac 04E0     		b	.L10
 701              	.L9:
 702 00ae 0D68     		ldr	r5, [r1]
 703 00b0 2D0F     		lsr	r5, r5, #28
 704 00b2 0A2D     		cmp	r5, #10
 705 00b4 00D0     		beq	.L10
 706 00b6 0B68     		ldr	r3, [r1]
 707              	.LVL9:
 708              	.L10:
 709              	.LBE11:
 710              	.LBE10:
 149:.\Generated_Source\PSoC4/CyFlash.c ****             }
 711              		.loc 1 149 0
 712 00b8 0293     		str	r3, [sp, #8]
 713              	.LVL10:
 714              	.L8:
 153:.\Generated_Source\PSoC4/CyFlash.c ****             {
 715              		.loc 1 153 0
 716 00ba 029B     		ldr	r3, [sp, #8]
 717 00bc 002B     		cmp	r3, #0
 718 00be 18D1     		bne	.L11
 156:.\Generated_Source\PSoC4/CyFlash.c ****                 parameters[0u] |= (uint32)(rowNum << 16u);
 719              		.loc 1 156 0
 720 00c0 2649     		ldr	r1, .L26+40
 157:.\Generated_Source\PSoC4/CyFlash.c **** 
 721              		.loc 1 157 0
 722 00c2 019D     		ldr	r5, [sp, #4]
 156:.\Generated_Source\PSoC4/CyFlash.c ****                 parameters[0u] |= (uint32)(rowNum << 16u);
 723              		.loc 1 156 0
 724 00c4 0891     		str	r1, [sp, #32]
 157:.\Generated_Source\PSoC4/CyFlash.c **** 
 725              		.loc 1 157 0
 726 00c6 0899     		ldr	r1, [sp, #32]
 727 00c8 2D04     		lsl	r5, r5, #16
 728 00ca 2943     		orr	r1, r5
 160:.\Generated_Source\PSoC4/CyFlash.c ****                 CY_NOP;
 729              		.loc 1 160 0
 730 00cc 244D     		ldr	r5, .L26+44
 157:.\Generated_Source\PSoC4/CyFlash.c **** 
 731              		.loc 1 157 0
 732 00ce 0891     		str	r1, [sp, #32]
 159:.\Generated_Source\PSoC4/CyFlash.c ****                 CY_FLASH_CPUSS_SYSREQ_REG = CY_FLASH_CPUSS_REQ_START | CY_FLASH_API_OPCODE_WRITE_RO
 733              		.loc 1 159 0
 734 00d0 2760     		str	r7, [r4]
 735 00d2 1A49     		ldr	r1, .L26+8
 160:.\Generated_Source\PSoC4/CyFlash.c ****                 CY_NOP;
 736              		.loc 1 160 0
 737 00d4 3560     		str	r5, [r6]
 161:.\Generated_Source\PSoC4/CyFlash.c ****                 retValue = CY_FLASH_API_RETURN;
 738              		.loc 1 161 0
 739              	@ 161 ".\Generated_Source\PSoC4\CyFlash.c" 1
 740 00d6 C046     		NOP
 741              	
ARM GAS  C:\Users\victo\AppData\Local\Temp\cckkraNh.s 			page 58


 742              	@ 0 "" 2
 162:.\Generated_Source\PSoC4/CyFlash.c ****             }
 743              		.loc 1 162 0
 744              		.code	16
 745 00d8 2568     		ldr	r5, [r4]
 746 00da 2D0F     		lsr	r5, r5, #28
 747 00dc 0F2D     		cmp	r5, #15
 748 00de 02D1     		bne	.L12
 162:.\Generated_Source\PSoC4/CyFlash.c ****             }
 749              		.loc 1 162 0 is_stmt 0 discriminator 1
 750 00e0 0B68     		ldr	r3, [r1]
 751 00e2 DBB2     		uxtb	r3, r3
 752 00e4 04E0     		b	.L13
 753              	.L12:
 162:.\Generated_Source\PSoC4/CyFlash.c ****             }
 754              		.loc 1 162 0 discriminator 2
 755 00e6 0D68     		ldr	r5, [r1]
 756 00e8 2D0F     		lsr	r5, r5, #28
 757 00ea 0A2D     		cmp	r5, #10
 758 00ec 00D0     		beq	.L13
 162:.\Generated_Source\PSoC4/CyFlash.c ****             }
 759              		.loc 1 162 0 discriminator 4
 760 00ee 0B68     		ldr	r3, [r1]
 761              	.L13:
 162:.\Generated_Source\PSoC4/CyFlash.c ****             }
 762              		.loc 1 162 0 discriminator 8
 763 00f0 0293     		str	r3, [sp, #8]
 764              	.L11:
 201:.\Generated_Source\PSoC4/CyFlash.c ****             {
 765              		.loc 1 201 0 is_stmt 1
 766 00f2 039B     		ldr	r3, [sp, #12]
 767 00f4 002B     		cmp	r3, #0
 768 00f6 15D1     		bne	.L14
 769              	.LVL11:
 770              	.LBB12:
 771              	.LBB13:
 710:.\Generated_Source\PSoC4/CyFlash.c **** 
 711:.\Generated_Source\PSoC4/CyFlash.c **** #endif  /* (CY_PSOC4_4000) */
 712:.\Generated_Source\PSoC4/CyFlash.c **** 
 713:.\Generated_Source\PSoC4/CyFlash.c ****     return (retValue);
 714:.\Generated_Source\PSoC4/CyFlash.c **** }
 715:.\Generated_Source\PSoC4/CyFlash.c **** #endif  /* (CY_IP_SPCIF_SYNCHRONOUS) */
 716:.\Generated_Source\PSoC4/CyFlash.c **** 
 717:.\Generated_Source\PSoC4/CyFlash.c **** 
 718:.\Generated_Source\PSoC4/CyFlash.c **** /*******************************************************************************
 719:.\Generated_Source\PSoC4/CyFlash.c **** * Function Name: CySysFlashClockRestore
 720:.\Generated_Source\PSoC4/CyFlash.c **** ****************************************************************************//**
 721:.\Generated_Source\PSoC4/CyFlash.c **** *
 722:.\Generated_Source\PSoC4/CyFlash.c **** * Restores the device clock configuration.
 723:.\Generated_Source\PSoC4/CyFlash.c **** *
 724:.\Generated_Source\PSoC4/CyFlash.c **** * \return The same as \ref CySysFlashWriteRow().
 725:.\Generated_Source\PSoC4/CyFlash.c **** *
 726:.\Generated_Source\PSoC4/CyFlash.c **** *******************************************************************************/
 727:.\Generated_Source\PSoC4/CyFlash.c **** static cystatus CySysFlashClockRestore(void)
 728:.\Generated_Source\PSoC4/CyFlash.c **** {
 729:.\Generated_Source\PSoC4/CyFlash.c ****     cystatus retValue = CY_SYS_FLASH_SUCCESS;
 730:.\Generated_Source\PSoC4/CyFlash.c **** #if(!CY_IP_FM)
ARM GAS  C:\Users\victo\AppData\Local\Temp\cckkraNh.s 			page 59


 731:.\Generated_Source\PSoC4/CyFlash.c ****     #if !(CY_PSOC4_4000)
 732:.\Generated_Source\PSoC4/CyFlash.c ****         #if (CY_IP_SPCIF_SYNCHRONOUS)
 733:.\Generated_Source\PSoC4/CyFlash.c ****             volatile uint32   parameters[2u];
 734:.\Generated_Source\PSoC4/CyFlash.c ****         #endif /* (CY_IP_SPCIF_SYNCHRONOUS) */
 735:.\Generated_Source\PSoC4/CyFlash.c ****     #endif  /* !(CY_PSOC4_4000) */
 736:.\Generated_Source\PSoC4/CyFlash.c **** #endif  /* (!CY_IP_FM) */
 737:.\Generated_Source\PSoC4/CyFlash.c **** 
 738:.\Generated_Source\PSoC4/CyFlash.c **** #if(CY_IP_FM)
 739:.\Generated_Source\PSoC4/CyFlash.c **** 
 740:.\Generated_Source\PSoC4/CyFlash.c ****     /***************************************************************
 741:.\Generated_Source\PSoC4/CyFlash.c ****     * Restore IMO configuration that could be changed during
 742:.\Generated_Source\PSoC4/CyFlash.c ****     * system call execution (Cypress ID #150448).
 743:.\Generated_Source\PSoC4/CyFlash.c ****     ***************************************************************/
 744:.\Generated_Source\PSoC4/CyFlash.c ****     CY_SYS_CLK_IMO_CONFIG_REG = cySysFlashBackup.imoConfigReg;
 745:.\Generated_Source\PSoC4/CyFlash.c **** 
 746:.\Generated_Source\PSoC4/CyFlash.c **** #else
 747:.\Generated_Source\PSoC4/CyFlash.c **** 
 748:.\Generated_Source\PSoC4/CyFlash.c ****     #if (CY_PSOC4_4000)
 749:.\Generated_Source\PSoC4/CyFlash.c **** 
 750:.\Generated_Source\PSoC4/CyFlash.c ****         /***************************************************************************
 751:.\Generated_Source\PSoC4/CyFlash.c ****         * Perform firmware clock settings restore for the PSOC4 4000 devices (the
 752:.\Generated_Source\PSoC4/CyFlash.c ****         * corresponding system call is not available).
 753:.\Generated_Source\PSoC4/CyFlash.c ****         ***************************************************************************/
 754:.\Generated_Source\PSoC4/CyFlash.c **** 
 755:.\Generated_Source\PSoC4/CyFlash.c ****         /* Restore clock settings */
 756:.\Generated_Source\PSoC4/CyFlash.c ****         if ((cySysFlashBackup.clkImoFreq != 48u) ||
 757:.\Generated_Source\PSoC4/CyFlash.c ****             ((cySysFlashBackup.clkSelectReg & CY_SYS_CLK_SELECT_DIRECT_SEL_MASK) != CY_SYS_CLK_HFCL
 758:.\Generated_Source\PSoC4/CyFlash.c ****             (((cySysFlashBackup.clkSelectReg >> CY_SYS_CLK_SELECT_PUMP_SEL_SHIFT) & CY_SYS_CLK_SELE
 759:.\Generated_Source\PSoC4/CyFlash.c ****                 CY_SYS_CLK_SELECT_PUMP_SEL_IMO))
 760:.\Generated_Source\PSoC4/CyFlash.c ****         {
 761:.\Generated_Source\PSoC4/CyFlash.c ****             /* Restore IMO frequency if needed */
 762:.\Generated_Source\PSoC4/CyFlash.c ****             if (cySysFlashBackup.clkImoFreq != 48u)
 763:.\Generated_Source\PSoC4/CyFlash.c ****             {
 764:.\Generated_Source\PSoC4/CyFlash.c ****                 CySysClkWriteImoFreq(cySysFlashBackup.clkImoFreq);
 765:.\Generated_Source\PSoC4/CyFlash.c ****             }
 766:.\Generated_Source\PSoC4/CyFlash.c **** 
 767:.\Generated_Source\PSoC4/CyFlash.c ****             /* Restore HFCLK clock source */
 768:.\Generated_Source\PSoC4/CyFlash.c ****             CySysClkWriteHfclkDirect(cySysFlashBackup.clkSelectReg & CY_SYS_CLK_SELECT_DIRECT_SEL_M
 769:.\Generated_Source\PSoC4/CyFlash.c **** 
 770:.\Generated_Source\PSoC4/CyFlash.c ****             /* Restore HFCLK divider and source for pump  */
 771:.\Generated_Source\PSoC4/CyFlash.c ****             CY_SYS_CLK_SELECT_REG = cySysFlashBackup.clkSelectReg;
 772:.\Generated_Source\PSoC4/CyFlash.c **** 
 773:.\Generated_Source\PSoC4/CyFlash.c ****             /* Stop IMO if needed */
 774:.\Generated_Source\PSoC4/CyFlash.c ****             if (0u == cySysFlashBackup.clkImoEna)
 775:.\Generated_Source\PSoC4/CyFlash.c ****             {
 776:.\Generated_Source\PSoC4/CyFlash.c ****                 CySysClkImoStop();
 777:.\Generated_Source\PSoC4/CyFlash.c ****             }
 778:.\Generated_Source\PSoC4/CyFlash.c ****         }
 779:.\Generated_Source\PSoC4/CyFlash.c **** 
 780:.\Generated_Source\PSoC4/CyFlash.c ****     #else
 781:.\Generated_Source\PSoC4/CyFlash.c **** 
 782:.\Generated_Source\PSoC4/CyFlash.c ****         #if (CY_IP_SPCIF_SYNCHRONOUS)
 783:.\Generated_Source\PSoC4/CyFlash.c ****             /* FM-Lite Clock Restore */
 784:.\Generated_Source\PSoC4/CyFlash.c ****             parameters[0u] =
 772              		.loc 1 784 0
 773 00f8 1A4D     		ldr	r5, .L26+48
 774 00fa 06A9     		add	r1, sp, #24
ARM GAS  C:\Users\victo\AppData\Local\Temp\cckkraNh.s 			page 60


 775 00fc 0695     		str	r5, [sp, #24]
 785:.\Generated_Source\PSoC4/CyFlash.c ****                 (uint32) ((CY_FLASH_KEY_TWO(CY_FLASH_API_OPCODE_CLK_RESTORE) <<  CY_FLASH_PARAM_KEY
 786:.\Generated_Source\PSoC4/CyFlash.c ****                             CY_FLASH_KEY_ONE);
 787:.\Generated_Source\PSoC4/CyFlash.c ****             parameters[1u] = (uint32) &cySysFlashBackup.clockSettings[0u];
 776              		.loc 1 787 0
 777 00fe 0792     		str	r2, [sp, #28]
 788:.\Generated_Source\PSoC4/CyFlash.c ****             CY_FLASH_CPUSS_SYSARG_REG = (uint32) &parameters[0u];
 778              		.loc 1 788 0
 779 0100 2160     		str	r1, [r4]
 789:.\Generated_Source\PSoC4/CyFlash.c ****             CY_FLASH_CPUSS_SYSREQ_REG = CY_FLASH_CPUSS_REQ_START | CY_FLASH_API_OPCODE_CLK_RESTORE;
 780              		.loc 1 789 0
 781 0102 1949     		ldr	r1, .L26+52
 788:.\Generated_Source\PSoC4/CyFlash.c ****             CY_FLASH_CPUSS_SYSARG_REG = (uint32) &parameters[0u];
 782              		.loc 1 788 0
 783 0104 0D4A     		ldr	r2, .L26+8
 784              		.loc 1 789 0
 785 0106 3160     		str	r1, [r6]
 790:.\Generated_Source\PSoC4/CyFlash.c ****             CY_NOP;
 786              		.loc 1 790 0
 787              	@ 790 ".\Generated_Source\PSoC4\CyFlash.c" 1
 788 0108 C046     		NOP
 789              	
 790              	@ 0 "" 2
 791:.\Generated_Source\PSoC4/CyFlash.c ****             retValue = CY_FLASH_API_RETURN;
 791              		.loc 1 791 0
 792              		.code	16
 793 010a 2168     		ldr	r1, [r4]
 794 010c 090F     		lsr	r1, r1, #28
 795 010e 0F29     		cmp	r1, #15
 796 0110 02D1     		bne	.L15
 797 0112 1368     		ldr	r3, [r2]
 798 0114 DBB2     		uxtb	r3, r3
 799 0116 04E0     		b	.L16
 800              	.L15:
 801 0118 1168     		ldr	r1, [r2]
 802 011a 090F     		lsr	r1, r1, #28
 803 011c 0A29     		cmp	r1, #10
 804 011e 00D0     		beq	.L16
 805 0120 1368     		ldr	r3, [r2]
 806              	.LVL12:
 807              	.L16:
 808              	.LBE13:
 809              	.LBE12:
 203:.\Generated_Source\PSoC4/CyFlash.c ****             }
 810              		.loc 1 203 0
 811 0122 0393     		str	r3, [sp, #12]
 812              	.LVL13:
 813              	.L14:
 206:.\Generated_Source\PSoC4/CyFlash.c ****         }
 814              		.loc 1 206 0
 815 0124 FFF7FEFF 		bl	CyExitCriticalSection
 816              	.LVL14:
 817 0128 01E0     		b	.L5
 818              	.LVL15:
 819              	.L2:
 211:.\Generated_Source\PSoC4/CyFlash.c ****     }
 820              		.loc 1 211 0
ARM GAS  C:\Users\victo\AppData\Local\Temp\cckkraNh.s 			page 61


 821 012a 0423     		mov	r3, #4
 822 012c 0293     		str	r3, [sp, #8]
 823              	.LVL16:
 824              	.L5:
 214:.\Generated_Source\PSoC4/CyFlash.c **** }
 825              		.loc 1 214 0
 826 012e 0298     		ldr	r0, [sp, #8]
 215:.\Generated_Source\PSoC4/CyFlash.c **** 
 827              		.loc 1 215 0
 828 0130 4BB0     		add	sp, sp, #300
 829              		@ sp needed
 830 0132 F0BD     		pop	{r4, r5, r6, r7, pc}
 831              	.L27:
 832              		.align	2
 833              	.L26:
 834 0134 FF010000 		.word	511
 835 0138 B6D70000 		.word	55222
 836 013c 08001040 		.word	1074790408
 837 0140 04001040 		.word	1074790404
 838 0144 04000080 		.word	-2147483644
 839 0148 B6E90000 		.word	59830
 840 014c 00000000 		.word	.LANCHOR0
 841 0150 16000080 		.word	-2147483626
 842 0154 B6E80000 		.word	59574
 843 0158 15000080 		.word	-2147483627
 844 015c B6D80000 		.word	55478
 845 0160 05000080 		.word	-2147483643
 846 0164 B6EA0000 		.word	60086
 847 0168 17000080 		.word	-2147483625
 848              		.cfi_endproc
 849              	.LFE0:
 850              		.size	CySysFlashWriteRow, .-CySysFlashWriteRow
 851              		.section	.text.CySysFlashSetWaitCycles,"ax",%progbits
 852              		.align	1
 853              		.global	CySysFlashSetWaitCycles
 854              		.code	16
 855              		.thumb_func
 856              		.type	CySysFlashSetWaitCycles, %function
 857              	CySysFlashSetWaitCycles:
 858              	.LFB1:
 422:.\Generated_Source\PSoC4/CyFlash.c ****     uint8  interruptState;
 859              		.loc 1 422 0
 860              		.cfi_startproc
 861              	.LVL17:
 862 0000 38B5     		push	{r3, r4, r5, lr}
 863              		.cfi_def_cfa_offset 16
 864              		.cfi_offset 3, -16
 865              		.cfi_offset 4, -12
 866              		.cfi_offset 5, -8
 867              		.cfi_offset 14, -4
 422:.\Generated_Source\PSoC4/CyFlash.c ****     uint8  interruptState;
 868              		.loc 1 422 0
 869 0002 051C     		mov	r5, r0
 425:.\Generated_Source\PSoC4/CyFlash.c **** 
 870              		.loc 1 425 0
 871 0004 FFF7FEFF 		bl	CyEnterCriticalSection
 872              	.LVL18:
ARM GAS  C:\Users\victo\AppData\Local\Temp\cckkraNh.s 			page 62


 873 0008 041C     		mov	r4, r0
 874              	.LVL19:
 440:.\Generated_Source\PSoC4/CyFlash.c ****             {
 875              		.loc 1 440 0
 876 000a 102D     		cmp	r5, #16
 877 000c 04D8     		bhi	.L29
 442:.\Generated_Source\PSoC4/CyFlash.c ****             } else
 878              		.loc 1 442 0
 879 000e 0321     		mov	r1, #3
 880 0010 0E4A     		ldr	r2, .L35
 881 0012 1368     		ldr	r3, [r2]
 882 0014 8B43     		bic	r3, r1
 883 0016 07E0     		b	.L33
 884              	.L29:
 444:.\Generated_Source\PSoC4/CyFlash.c ****             {
 885              		.loc 1 444 0
 886 0018 202D     		cmp	r5, #32
 887 001a 07D8     		bhi	.L31
 446:.\Generated_Source\PSoC4/CyFlash.c ****             } else
 888              		.loc 1 446 0
 889 001c 0321     		mov	r1, #3
 890 001e 0B4A     		ldr	r2, .L35
 891 0020 1368     		ldr	r3, [r2]
 892 0022 8B43     		bic	r3, r1
 893 0024 0239     		sub	r1, r1, #2
 894              	.L34:
 895 0026 0B43     		orr	r3, r1
 896              	.L33:
 897 0028 1360     		str	r3, [r2]
 898 002a 0AE0     		b	.L30
 899              	.L31:
 449:.\Generated_Source\PSoC4/CyFlash.c ****                 {
 900              		.loc 1 449 0
 901 002c 302D     		cmp	r5, #48
 902 002e 05D8     		bhi	.L32
 451:.\Generated_Source\PSoC4/CyFlash.c ****                 }
 903              		.loc 1 451 0
 904 0030 0321     		mov	r1, #3
 905 0032 064A     		ldr	r2, .L35
 906 0034 1368     		ldr	r3, [r2]
 907 0036 8B43     		bic	r3, r1
 908 0038 0139     		sub	r1, r1, #1
 909 003a F4E7     		b	.L34
 910              	.L32:
 458:.\Generated_Source\PSoC4/CyFlash.c ****         }
 911              		.loc 1 458 0 discriminator 1
 912 003c 0020     		mov	r0, #0
 913 003e FFF7FEFF 		bl	CyHalt
 914              	.LVL20:
 915              	.L30:
 463:.\Generated_Source\PSoC4/CyFlash.c **** }
 916              		.loc 1 463 0
 917 0042 201C     		mov	r0, r4
 918 0044 FFF7FEFF 		bl	CyExitCriticalSection
 919              	.LVL21:
 464:.\Generated_Source\PSoC4/CyFlash.c **** 
 920              		.loc 1 464 0
ARM GAS  C:\Users\victo\AppData\Local\Temp\cckkraNh.s 			page 63


 921              		@ sp needed
 922              	.LVL22:
 923              	.LVL23:
 924 0048 38BD     		pop	{r3, r4, r5, pc}
 925              	.L36:
 926 004a C046     		.align	2
 927              	.L35:
 928 004c 30001040 		.word	1074790448
 929              		.cfi_endproc
 930              	.LFE1:
 931              		.size	CySysFlashSetWaitCycles, .-CySysFlashSetWaitCycles
 932              		.bss
 933              		.align	2
 934              		.set	.LANCHOR0,. + 0
 935              		.type	cySysFlashBackup, %object
 936              		.size	cySysFlashBackup, 24
 937              	cySysFlashBackup:
 938 0000 00000000 		.space	24
 938      00000000 
 938      00000000 
 938      00000000 
 938      00000000 
 939              		.text
 940              	.Letext0:
 941              		.file 2 ".\\Generated_Source\\PSoC4\\cytypes.h"
 942              		.file 3 ".\\Generated_Source\\PSoC4\\CyFlash.h"
 943              		.file 4 ".\\Generated_Source\\PSoC4\\CyLib.h"