ARM GAS  C:\Users\victo\AppData\Local\Temp\ccYrPGMm.s 			page 1


   1              		.cpu cortex-m0
   2              		.fpu softvfp
   3              		.eabi_attribute 20, 1
   4              		.eabi_attribute 21, 1
   5              		.eabi_attribute 23, 3
   6              		.eabi_attribute 24, 1
   7              		.eabi_attribute 25, 1
   8              		.eabi_attribute 26, 1
   9              		.eabi_attribute 30, 4
  10              		.eabi_attribute 34, 0
  11              		.eabi_attribute 18, 4
  12              		.code	16
  13              		.file	"HPI_IF_I2C_SLAVE.c"
  14              		.text
  15              	.Ltext0:
  16              		.section	.gnu.lto_.profile.92f67c21,"",%progbits
  17 0000 789C6366 		.ascii	"x\234cf```e\200\000F\206\311\214\016\000\002\205\000"
  17      60606065 
  17      80004686 
  17      C98C0E00 
  17      028500
  18 0013 DE       		.ascii	"\336"
  19              		.text
  20              		.section	.gnu.lto_.jmpfuncs.92f67c21,"",%progbits
  21 0000 789C6366 		.ascii	"x\234cf\300\016J\24147\02031002}db\274qb\272\351\013"
  21      C00E4AA1 
  21      34371033 
  21      31303032 
  21      7D6462BC 
  22 0019 A69F4C0C 		.ascii	"\246\237L\014\234\014\214\313\031\245\200\202`\212\231"
  22      9C0C8CCB 
  22      19A58082 
  22      608A99
  23 0028 01C68252 		.ascii	"\001\306\202R,\214\214\214\365\254 \202\215\211\221"
  23      2C8C8C8C 
  23      F5AC2082 
  23      8D8991
  24 0037 91B9BE1E 		.ascii	"\221\271\276\036U\232\033\233 ?\003\203\000\003\203"
  24      559A1B9B 
  24      203F0383 
  24      000383
  25 0046 20038310 		.ascii	" \003\203\020\320B\000Qi\017q"
  25      D0420051 
  25      690F71
  26              		.text
  27              		.section	.gnu.lto_.inline.92f67c21,"",%progbits
  28 0000 789C6366 		.ascii	"x\234cf\300\016\342\030!47\003\003\0133#\003\023\323"
  28      C00EE218 
  28      21343703 
  28      030B3323 
  28      0313D3
  29 0013 057E06B6 		.ascii	"\005~\006\266\005\362L 1&\006\036Y\240\020\327\004?"
  29      05F24C20 
  29      3126061E 
  29      59A010D7 
  29      043F
  30 0025 8410501D 		.ascii	"\204\020P\035#\224d\306/\315\302\300\311\301\310\010"
ARM GAS  C:\Users\victo\AppData\Local\Temp\ccYrPGMm.s 			page 2


  30      239464C6 
  30      2FCDC2C0 
  30      C9C1C808 
  31 0035 64303073 		.ascii	"d00s\034\260\203(aY \317\002R\307\312\300\301\216.\007"
  31      1CB08328 
  31      615920CF 
  31      0252C7CA 
  31      C0C18E2E 
  32 004a B4192CC7 		.ascii	"\264\031,\307\306\300+\301\310\314\220\371\221\211\361"
  32      C6C02BC1 
  32      C8CC90F9 
  32      9189F1
  33 0059 FE93F317 		.ascii	"\376\223\363\0279^0\375d\002*d\\\316(\305\300\220\001"
  33      395E30FD 
  33      64022A64 
  33      5CCE28C5 
  33      C09001
  34 006c A1807C90 		.ascii	"\241\200|\220Z\230\231\002\014\034?\014X\240\016`\201"
  34      5A989902 
  34      0C1C3F0C 
  34      58A00E60 
  34      81
  35 007d B8004471 		.ascii	"\270\000Dq3\360\200\215\302\257\227\355\226\012\026"
  35      33F0808D 
  35      C2AF97ED 
  35      960A16
  36 008c BDFC98E1 		.ascii	"\275\374\230\341!\200)$\210)$\204)\304\000\000\254\237"
  36      21802924 
  36      88292484 
  36      29C40000 
  36      AC9F
  37 009e 23AF     		.ascii	"#\257"
  38              		.text
  39              		.section	.gnu.lto_.pureconst.92f67c21,"",%progbits
  40 0000 789C6366 		.ascii	"x\234cf``\020g\200\000n\006)&)f)\026)V)6)n)~)\001)A"
  40      60601067 
  40      80006E06 
  40      29262966 
  40      29162956 
  41 001e 29212900 		.ascii	")!)\000\023v\001\245"
  41      137601A5 
  42              		.text
  43              		.section	.gnu.lto_HPI_IF_I2CSlaveStatus.92f67c21,"",%progbits
  44 0000 789C658E 		.ascii	"x\234e\216\277KBQ\024\307\317\367\274\227\031BD\243"
  44      BF4B4251 
  44      14C7CFF7 
  44      BC971942 
  44      44A3
  45 0012 539B8B18 		.ascii	"S\233\213\030D\377@H?\204\006Ahz\360\012{k\202\324("
  45      44FF4048 
  45      3F840641 
  45      687AF00A 
  45      7B6B82D4 
  46 0027 5E45A829 		.ascii	"^E\250)J\032\2140Z\372]FS\324TN-\025\021$8(\204\201"
  46      4A1A8C30 
  46      5AFA5D46 
  46      53D4544E 
ARM GAS  C:\Users\victo\AppData\Local\Temp\ccYrPGMm.s 			page 3


  46      2D151124 
  47 003f 6D89413C 		.ascii	"m\211A<B\354\236j\353\302\341\334\317=\337\373=_\203"
  47      42EC9E6A 
  47      EBC2E1DC 
  47      CF3DDFFB 
  47      3D5F83
  48 0052 FE1FBFAE 		.ascii	"\376\037\277\256~\020\205t\207A\340\265{\242\214\227"
  48      7E108574 
  48      8741E0B5 
  48      7BA28C97 
  49 0062 01B91028 		.ascii	"\001\271\020(\315H\343\215[\214\313\322\307\235\257"
  49      CD48E38D 
  49      5B8CCBD2 
  49      C79DAF
  50 0071 C92ED310 		.ascii	"\311.\323\020i\274\312\337\026<\2020\005+\317\205J_"
  50      69BCCADF 
  50      163C8230 
  50      052BCF85 
  50      4A5F
  51 0083 6057A9EC 		.ascii	"`W\251\354{\371bvscGO\230\332L\330\207\037\007\220E"
  51      7BF96276 
  51      7363474F 
  51      98DA4CD8 
  51      871F0790 
  52 0098 384440B4 		.ascii	"8D@\264\255\\\247\342\363\344\224R\003\242\320\203#"
  52      AD5CA7E2 
  52      F3E49452 
  52      03A2D083 
  52      23
  53 00a9 7874083A 		.ascii	"xt\010:\033\274V\335n\273\266\336\034\206\311\344\262"
  53      1BBC56DD 
  53      6EBBB6DE 
  53      1C86C9E4 
  53      B2
  54 00ba 6190D850 		.ascii	"a\220\330PC\227\004z\325\240\273QE9\177^\2771\344\343"
  54      4397047A 
  54      D5A0BB51 
  54      45397F5E 
  54      BF31E4E3 
  55 00ce 274BBAED 		.ascii	"'K\272\355\247\325\022\247\276\324\212\362\272lv\304"
  55      A7D512A7 
  55      BED48AF2 
  55      BA6C76C4 
  56 00de 55BFD61B 		.ascii	"U\277\326\033\017\217^\011i\376\340\213\332s{\213\330"
  56      0F8F5E09 
  56      69FEE08B 
  56      DA737B8B 
  56      D8
  57 00ef CAA88C56 		.ascii	"\312\250\214V\365\340\030)\234H4\234\242\010\252\"["
  57      F5E01829 
  57      9C48349C 
  57      A208AA22 
  57      5B
  58 0100 5B0EFE7A 		.ascii	"[\016\376z\032\332\226j\300\037\221d\200\354\326\316"
  58      1ADA966A 
  58      C01F9164 
  58      80ECD6CE 
ARM GAS  C:\Users\victo\AppData\Local\Temp\ccYrPGMm.s 			page 4


  59 0110 C19035E9 		.ascii	"\301\2205\351,8\311\271Eg\336\216%\226\222q\307\212"
  59      2C38C9B9 
  59      4567DE8E 
  59      25969271 
  59      C78A
  60 0122 C612E151 		.ascii	"\306\022\341Qk*\032\261#\023vd$l\307\246\307f\306Cq"
  60      6B2A1AB1 
  60      23137664 
  60      246CC7A6 
  60      C766C643 
  61 0137 FA0610B2 		.ascii	"\372\006\020\262o\354"
  61      6FEC
  62              		.text
  63              		.section	.gnu.lto_HPI_IF_I2CSlaveClearReadStatus.92f67c21,"",%progbits
  64 0000 789C8D51 		.ascii	"x\234\215QKkSA\024>\337Lr\363\022\024\227\331(v\321"
  64      4B6B5341 
  64      143EDF4C 
  64      72F31214 
  64      97D92876 
  65 0015 8D5410FB 		.ascii	"\215T\020\373\003\244\370\010\270(\004\\\005b\251\331"
  65      03A4F808 
  65      B828045C 
  65      0562A9D9 
  66 0025 5A68D365 		.ascii	"Zh\323e\350$\215\342Jb\020\254HE\005\265\276R\253\266"
  66      E8248DE2 
  66      4A6210AC 
  66      484505B5 
  66      BE52ABB6 
  67 0039 3E4008D9 		.ascii	">@\010\3314\370\244\024\232R$\006\211P7b\032i\275H\214"
  67      34F8A414 
  67      9A522406 
  67      89503762 
  67      1A69BD48 
  68 004e E7DCDB16 		.ascii	"\347\334\333\026\254\024\034\270s\346\314|\337w\276"
  68      AC141CB8 
  68      73E6CC7C 
  68      DF77BE
  69 005d 738FA67F 		.ascii	"s\217\246\177W\230\277\031E\324\315\021\232\240r\357"
  69      5798BF19 
  69      45D4CD11 
  69      9AA072EF 
  70 006d 89D27E05 		.ascii	"\211\322~\005\310\201@#\012#\370\252\032\012/\012?\336"
  70      C8814023 
  70      0A23F8AA 
  70      1A0A2F0A 
  70      3FDE
  71 007f 859695AD 		.ascii	"\205\226\225\255h/q\3722_\036\263$\205G\322\312\302"
  71      682F71FA 
  71      325F1EB3 
  71      248547D2 
  71      CAC2
  72 0091 5825D079 		.ascii	"X%\320y\313\230\314\367\322\253SW.]\347\027EME\270\203"
  72      CB98CCF7 
  72      D2AB5357 
  72      2E5DE717 
  72      454D45B8 
  73 00a6 30262085 		.ascii	"0& \205p\027\235\202\315\235\235^\266\364\0018\274\371"
ARM GAS  C:\Users\victo\AppData\Local\Temp\ccYrPGMm.s 			page 5


  73      70179D82 
  73      CD9D9D5E 
  73      B6F40138 
  73      BCF9
  74 00b8 EA9AEEB8 		.ascii	"\352\232\356\270\301\274\332\267\321\331\035\246l\262"
  74      C1BCDAB7 
  74      D1D91DA6 
  74      6CB2
  75 00c6 B5767B0F 		.ascii	"\265v{\017\223q\017\372o\276,\2464\262\255J\310\312"
  75      93710FFA 
  75      6FBE2CA6 
  75      34B2AD4A 
  75      C8CA
  76 00d8 1A6376E1 		.ascii	"\032cv\341>:\244\010k?\200\005\016r3\271\273h\332\355"
  76      3E3AA408 
  76      6B3F8005 
  76      0E7233B9 
  76      BB68DAED 
  77 00ec E6EAC589 		.ascii	"\346\352\305\211}*\250\311V\332Cr\357\225\243%[@6\242"
  77      7D2AA8C9 
  77      56DA4372 
  77      EF95A325 
  77      5B4036A2 
  78 0100 3A33A5CF 		.ascii	":3\245\317/l\225\243\376\210l\2611\253DK\012]\233\277"
  78      2F6C95A3 
  78      FE886CB1 
  78      31AB444B 
  78      0A5D9BBF 
  79 0114 5050A95F 		.ascii	"PP\251_\346\274\361\333\312\323T\242\377\020)yZ,_\356"
  79      E6BCF1DB 
  79      CAD354A2 
  79      FF102979 
  79      5A2C5FEE 
  80 0128 96E65909 		.ascii	"\226\346Y\011\005\204m\345\245%\224\362\215V:$\3545"
  80      05846DE5 
  80      A52594F2 
  80      8D563A24 
  80      EC35
  81 013a A5B7F2AD 		.ascii	"\245\267\362\255\226r\355\177\252\177\230\363\013\327"
  81      9672ED7F 
  81      AA7F98F3 
  81      0BD7
  82 0148 72D2CFE6 		.ascii	"r\322\317\346\266\355\033\307\325\264I3\312\207I\244"
  82      B6ED1BC7 
  82      D5B44933 
  82      CA8749A4 
  83 0158 F048DAC5 		.ascii	"\360H\332\305\024\306\301\252\243?\317\325\341\212\006"
  83      14C6C1AA 
  83      A33FCFD5 
  83      E18A06
  84 0167 5CDDC55A 		.ascii	"\\\335\305Z\346\2653\011\275\223\360\230\261K\310T}"
  84      E6B53309 
  84      BD93F098 
  84      B14BC854 
  84      7D
  85 0178 2EC4C328 		.ascii	".\304\303(Z\200\323\203\364\3147\216\263\251\337s^\027"
  85      5A80D383 
ARM GAS  C:\Users\victo\AppData\Local\Temp\ccYrPGMm.s 			page 6


  85      F4CC378E 
  85      B3A9DF73 
  85      5E17
  86 018a E1DDD6D9 		.ascii	"\341\335\326\331V+O6\255<\335\260b\271\032\35327W\337"
  86      562B4F36 
  86      AD3CDDB0 
  86      62B91AEB 
  86      323757DF 
  87 019e BE098A11 		.ascii	"\276\011\212\021\337\012\010\323\216\223R\3361\373\337"
  87      DF0A08D3 
  87      8E9352DE 
  87      31FBDF
  88 01ad 4566368B 		.ascii	"Ef6\213<\343\",M2\205\326\366S`\035<\347)l\374\367*"
  88      3CE3222C 
  88      4D3285D6 
  88      F653601D 
  88      3CE7296C 
  89 01c4 D2C55C70 		.ascii	"\322\305\\p\275{\222\241B\206\311\260\375]\261c\211"
  89      BD7B92A1 
  89      4286C9B0 
  89      FD5DB163 
  89      89
  90 01d5 3389C1BE 		.ascii	"3\211\301\276d\342t<:0<\330\237\210\365F\007z\016\305"
  90      64E2743C 
  90      3A303CD8 
  90      9F88F546 
  90      077A0EC5 
  91 01e9 8EF746E2 		.ascii	"\216\367F\342\221\243\361\310\301\236x\364\304\341\223"
  91      91A3F1C8 
  91      C19E78F4 
  91      C4E193
  92 01f8 47BAFAC9 		.ascii	"G\272\372\311\032J\366%\207\207\376\000\015\370\005"
  92      1A4AF625 
  92      8787FE00 
  92      0DF805
  93 0207 56       		.ascii	"V"
  94              		.text
  95              		.section	.gnu.lto_HPI_IF_I2CSlaveClearWriteStatus.92f67c21,"",%progbits
  96 0000 789C8D51 		.ascii	"x\234\215Q\337K\223Q\030~\237\363}\373\2665\211\350"
  96      DF4B9351 
  96      187E9FF3 
  96      7DFBB635 
  96      89E8
  97 0012 7237055E 		.ascii	"r7\005^x#\012\222\177@H?\006]\010\203\256\006Kl\267"
  97      78230A92 
  97      7F40483F 
  97      065D0883 
  97      AE064B6C 
  98 0027 093A2F87 		.ascii	"\011:/\207gkFWaCH\011\243.\372e5\263t\256\256\2067\215"
  98      676B4657 
  98      61434809 
  98      A32EFA65 
  98      35B374AE 
  99 003f 42A5462E 		.ascii	"B\245F.$\346\220\005\353\316\261\302>B\326\373~\237"
  99      24E69005 
  99      EBCEB1C2 
  99      3E42D6FB 
ARM GAS  C:\Users\victo\AppData\Local\Temp\ccYrPGMm.s 			page 7


  99      7E9F
 100 0051 0A194207 		.ascii	"\012\031B\007\316\217\367\234\347y\336\347=\257A\377"
 100      CE8FF79C 
 100      E779DEE7 
 100      3DAF41FF 
 101 0061 8E20CF9C 		.ascii	"\216 \317\234\"\352\345\035\006AM\254\022%}\012\220"
 101      22EAE51D 
 101      06414DAC 
 101      12257D0A 
 101      90
 102 0072 0381C614 		.ascii	"\003\201\306\024\306\360]5\024\336d\177\254\004\352"
 102      C6F05D35 
 102      14DE647F 
 102      AC04EA
 103 0081 CA56749A 		.ascii	"\312Vt\2328|\233)NY\022\302\224\260\274>U\366w<\324"
 103      387C9B29 
 103      4E5912C2 
 103      94B0BC3E 
 103      55F6773C 
 104 0096 3AB5BDF5 		.ascii	":\265\275\365\371\312\364\344}~Q\324T\204\307\010\342"
 104      F9CAF4E4 
 104      7D7E51D4 
 104      5484C708 
 104      E2
 105 00a7 0924119E 		.ascii	"\011$\021\236\242C\260\023\343\213u\313\350\206\303"
 105      A243B013 
 105      E38B75CB 
 105      E886C3
 106 00b6 2B55768C 		.ascii	"+Uv\214\366\007\314\253\346\307\337\265\351\242NW[\255"
 106      F607CCAB 
 106      E6C7DFB5 
 106      E9A24E57 
 106      5BAD
 107 00c8 534CC62C 		.ascii	"SL\306,\214\277\3712\230\322H\357\226\003VZk}\002\317"
 107      8CBFF932 
 107      98D248EF 
 107      9603565A 
 107      6B7D02CF 
 108 00dc D02E4958 		.ascii	"\320.IX\3739,\360&7s'\013\272\325j\2263\365\036u\314"
 108      FB392CF0 
 108      26377327 
 108      0BBAD56A 
 108      9633F51E 
 109 00f2 205B1926 		.ascii	" [\031&\311\275G\216\226,~Y\210j\314\224:\277\261U\336"
 109      C9BD478E 
 109      962C7E59 
 109      886ACC94 
 109      3ABFB155 
 110 0107 8DAF4817 		.ascii	"\215\257H\027~\276W\242%\211\356\225neU\342\267\276"
 110      7EBE57A2 
 110      2589EE95 
 110      6E6555E2 
 110      B7BE
 111 0119 A97DB632 		.ascii	"\251}\2662\233J\364_ !O_\212wz\245xVB\026A[yh\003\313"
 111      9B4AF45F 
 111      20214F5F 
 111      8A777AA5 
ARM GAS  C:\Users\victo\AppData\Local\Temp\ccYrPGMm.s 			page 8


 111      78564216 
 112 0133 99462515 		.ascii	"\231F%\025\020\366\2162\016\363\255]\345\332\337\254"
 112      10F68E32 
 112      0EF3AD5D 
 112      E5DADFAC 
 113 0143 AD7DF409 		.ascii	"\255}\364\011\327r\302-\375\310\366\316\340nR'\031\345"
 113      D772C22D 
 113      FDC8F6CE 
 113      E06E5227 
 113      19E5
 114 0155 C51C1278 		.ascii	"\305\034\022x)\345b\0363`\325\353\277n\324\340\212\372"
 114      29E5621E 
 114      3360D5EB 
 114      BF6ED4E0 
 114      8AFA
 115 0167 5DDD95E9 		.ascii	"]\335\225\351\352\302q'\3736\010\257\030\274\201T\305"
 115      EAC27127 
 115      FB3608AF 
 115      18BC8154 
 115      C5
 116 0178 EB624C86 		.ascii	"\353bL\206\321:\234\"\244h\276q\254\315o~\362\270\010"
 116      D13A9C22 
 116      A468BE71 
 116      ACCD6F7E 
 116      F2B808
 117 018b CF91D60E 		.ascii	"\317\221\326\016{y}\340ea\337\213\345j\354\311\314\346"
 117      7B797DE0 
 117      6561DF8B 
 117      E56AECC9 
 117      CCE6
 118 019d 4AF93671 		.ascii	"J\3716q\342\355&,:F\2263\216\331\377\316\221;\310\261"
 118      E2ED262C 
 118      3A469633 
 118      8ED9FFCE 
 118      913BC8B1 
 119 01b1 C4395899 		.ascii	"\3049X\231\244\013\267?\034\331\005\326A\236\273\260"
 119      A40BB73F 
 119      1CD905D6 
 119      419EBBB0 
 120 01c1 FFEF1524 		.ascii	"\377\357\025$\013\223{\277n\2224\025\322L\206uvE.\304"
 120      0B937BBF 
 120      6E923415 
 120      D24C8675 
 120      76452EC4 
 121 01d5 AEC58607 		.ascii	"\256\305\206\007\342\261\253\321\360\320\350\360`,\322"
 121      E2B1ABD1 
 121      F0D0E8F0 
 121      602CD2
 122 01e4 1F1EEA3B 		.ascii	"\037\036\352;\023\271\330\037\212\206\316GC=}\321\360"
 122      13B9D81F 
 122      8A86CE47 
 122      433D7DD1 
 122      F0
 123 01f5 A5B397CF 		.ascii	"\245\263\227\317u\015\2225\022\037\210\217\216\374\001"
 123      750D9235 
 123      121F888F 
 123      8EFC01
ARM GAS  C:\Users\victo\AppData\Local\Temp\ccYrPGMm.s 			page 9


 124 0204 3B6804C9 		.ascii	";h\004\311"
 125              		.text
 126              		.section	.gnu.lto_HPI_IF_I2CSlaveSetAddress.92f67c21,"",%progbits
 127 0000 789C6591 		.ascii	"x\234e\221Kh\023Q\024\206\357\177\357d&\222b\305U\311"
 127      4B681351 
 127      1486EF7F 
 127      EF642692 
 127      62C555C9 
 128 0014 46A196BA 		.ascii	"F\241\226\272\220\026Dp\243T)>\202.\212\001W\201\020"
 128      90164470 
 128      A354293E 
 128      822E8A01 
 128      578110
 129 0027 92C16EB4 		.ascii	"\222\301n\264\220Vp\327\233\232\006t\241!\210\024K\027"
 129      905670D7 
 129      9B9A0674 
 129      A1218814 
 129      4B17
 130 0039 22E2A3B5 		.ascii	"\"\342\243\265\261\017A\305E,\202\005\261\245\242\025"
 130      B10F41C5 
 130      452C8205 
 130      B1A5A215 
 131 0049 83DA2CA2 		.ascii	"\203\332,\242VE\264\030M\262\320\361\234\231\205D/\314"
 131      5645B418 
 131      4DB2D0F1 
 131      9C998544 
 131      2FCC
 132 005b 7DFC9CF3 		.ascii	"}\374\234\363\235\377\234Q\342\377\025\244\257W\012"
 132      9DFF9C51 
 132      E2FF15A4 
 132      AF570A
 133 006a D1452794 		.ascii	"\321E'\224\200\314.\010\221\362K\200/\002bPb\020\037"
 133      80CC2E08 
 133      91F24B80 
 133      2F026250 
 133      62101F
 134 007d E59A44B6 		.ascii	"\345\232D\2660>\022h\277\252\265\376\366\354M\313pK"
 134      303E1268 
 134      BFAAB5FE 
 134      F6EC4DCB 
 134      704B
 135 008f 9DD2BE4B 		.ascii	"\235\322\276K\017\203kh\347\220\317\257\3167\251N\010"
 135      0F836B68 
 135      E790CFAF 
 135      CE37A94E 
 135      08
 136 00a0 BADF9BAC 		.ascii	"\272\337\233\254<\015\254\312\272\304f~\336\317\315"
 136      3C0DACCA 
 136      BAC4667E 
 136      DECFCD
 137 00af 8F98FC94 		.ascii	"\217\230\374\224\006??\235y1\247\332\256h=TX\234\326"
 137      063F3F9D 
 137      7931A7DA 
 137      AE683D54 
 137      589CD6
 138 00c2 7B8CBA54 		.ascii	"{\214\272T\270\016E<\334@\0207\021\024$\011\214\243"
 138      B80E453C 
ARM GAS  C:\Users\victo\AppData\Local\Temp\ccYrPGMm.s 			page 10


 138      DC401037 
 138      11142409 
 138      8CA3
 139 00d4 8DC347EF 		.ascii	"\215\303G\357\374\320\315j\247\013\276\370\250T3[/S"
 139      FCD0CD6A 
 139      A70BBEF8 
 139      A854335B 
 139      2F53
 140 00e6 6AE9EBF0 		.ascii	"j\351\353\360\343&=\257\323%\307\331\304\204\211F\202"
 140      E3263DAF 
 140      D325C7D9 
 140      C4848946 
 140      82
 141 00f7 B728652D 		.ascii	"\267(e-\375\353e\300L\223\365\015\270\205V\3176&a\202"
 141      FDEB65C0 
 141      4C93F50D 
 141      B88556CF 
 141      36266182 
 142 010b 0E56F21B 		.ascii	"\016V\362\033\013\332qf\252\271\325.\271\216\010$)w"
 142      0BDA7166 
 142      AAB9D52E 
 142      B98E0824 
 142      2977
 143 011d 37C0167C 		.ascii	"7\300\026|d\3060y\263\\U\2102\021xB\357\244\344S\025"
 143      64C63079 
 143      B35C5588 
 143      32117842 
 143      EFA4E453 
 144 0132 31F7F3EC 		.ascii	"1\367\363\354B~\027C\253\222\307\245\357\326\226,n\330"
 144      427E1743 
 144      AB92C7A5 
 144      EFD6962C 
 144      6ED8
 145 0144 97CD5CD0 		.ascii	"\227\315\\\320n\323+\345\305%\277+\271\256&>\254\224"
 145      6ED32BE5 
 145      C525BF2B 
 145      B9AE263E 
 145      AC94
 146 0156 D68F6134 		.ascii	"\326\217a4\225N\025\266\326\245\211<\371\276\315\276"
 146      954E15B6 
 146      D6A5893C 
 146      F9BECDBE 
 147 0166 31853188 		.ascii	"1\2051\210e\014\351\335\256K*IPQ\304\351Z\246\330\351"
 147      650CE9DD 
 147      AE4B2A49 
 147      5051C4E9 
 147      5AA6D8E9 
 148 017a D5505E99 		.ascii	"\325P^\231/\263\372\201;WC\377v\234f\201i\002,C\376"
 148      2FB3FA81 
 148      3B5743FF 
 148      769C6681 
 148      69022C43 
 149 018f CD539CF7 		.ascii	"\315S\234\367:\363>\177\312K\364U\245\201-A\217\366"
 149      3AF33E7F 
 149      CA4BF455 
 149      A5812D41 
 149      8FF6
ARM GAS  C:\Users\victo\AppData\Local\Temp\ccYrPGMm.s 			page 11


 150 01a1 5C7A22EB 		.ascii	"\\z\"\353D;\367\344\322C\345\322\034\010\314\300\215"
 150      443BF7E4 
 150      D243E5D2 
 150      1C08CCC0 
 150      8D
 151 01b2 AA642AF0 		.ascii	"\252d*\360\242,\267\254\331\310\267(f.7\345\344,\326"
 151      A22CB7AC 
 151      D9C8B728 
 151      662E37E5 
 151      E42CD6
 152 01c5 FEE9CBD7 		.ascii	"\376\351\313\327\330\327,\365\305\031o\221*8\2078\236"
 152      D8D72CF5 
 152      C5196F91 
 152      2A388738 
 152      9E
 153 01d6 FF505982 		.ascii	"\377PY\202\207H#\335\326\0219`\237\260\223\261\001;"
 153      874823DD 
 153      D6113960 
 153      9FB093B1 
 153      013B
 154 01e8 110DF79D 		.ascii	"\021\015\367\235L\306\355HO\270\257{G\344`O(\032\332"
 154      4CC6ED48 
 154      4FB8AF7B 
 154      47E4604F 
 154      281ADA
 155 01fb 1F0D6DEF 		.ascii	"\037\015m\357\216\206\017\357=\272\257#.\254X\"\221"
 155      8E860FEF 
 155      3DBAAF23 
 155      2EAC5822 
 155      91
 156 020c B4FBFBFD 		.ascii	"\264\373\373\375\307c\003\361\336#\366\261?5d\352-"
 156      C76303F1 
 156      DE23F6B1 
 156      3F3564EA 
 156      2D
 157              		.text
 158              		.section	.gnu.lto_HPI_IF_I2CSlaveSetAddressMask.92f67c21,"",%progbits
 159 0000 789C6551 		.ascii	"x\234eQAh\023Q\020\375\363\377\356f!\325\026O%\027\205"
 159      41681351 
 159      10FDF3FF 
 159      EE6621D5 
 159      164F2517 
 160 0015 52EA415A 		.ascii	"R\352AZ\020oUP\202\255\001+\305\210\247@\010\311\242"
 160      106F5550 
 160      82AD012B 
 160      C588A740 
 160      08C9A2
 161 0028 205A48EA 		.ascii	" ZH\352\271?m\214\342)\264\"\201\222\203\212Vml\265"
 161      B93F6D8C 
 161      E229B422 
 161      8192838A 
 161      566D6CB5 
 162 003c 5AD0EA61 		.ascii	"Z\320\352a\011B\012b\245\007\253\264j\203D\324\233!"
 162      09420A62 
 162      A507ABB4 
 162      6A8344D4 
 162      9B21
ARM GAS  C:\Users\victo\AppData\Local\Temp\ccYrPGMm.s 			page 12


 163 004e 69BB4B91 		.ascii	"i\273K\221uf\367PR?\374\235?\303{o\336\314\012\366\377"
 163      7566F750 
 163      523FFC9D 
 163      3FC37B6F 
 163      DECC0AF6 
 164 0063 09E01DE0 		.ascii	"\011\340\035\340\214\0051\202`\300sK\214\245u\016@\017"
 164      8C053182 
 164      60C0734B 
 164      8CA5750E 
 164      400F
 165 0075 066C84C3 		.ascii	"\006l\204\303\010\374\3465\0169s:\357\357\272/\245\374"
 165      08FCE635 
 165      0E39733A 
 165      EFEFBA2F 
 165      A5FC
 166 0087 7377A3FD 		.ascii	"sw\243\375Z\273\215\264:\367d`\012\272\020R^\233\332"
 166      5ABB8DB4 
 166      3AF76460 
 166      0ABA1052 
 166      5E9BDA
 167 009a D6450F30 		.ascii	"\326E\0170|\277\232i\274\367\377\3426\207\003\224.\214"
 167      7CBF9A69 
 167      BCF7FFE2 
 167      36870394 
 167      2E8C
 168 00ac 2FE6354A 		.ascii	"/\3465J\271Bi\276\\x\240w\336\223r\324\\\233\223\307"
 168      B94269BE 
 168      5C78A077 
 168      DE9372D4 
 168      5C9B93C7 
 169 00c0 159B0B78 		.ascii	"\025\233\013x\010\002\365\340\021\004\3401\004\030\226"
 169      0802F5E0 
 169      1104E031 
 169      041896
 170 00cf 184C4327 		.ascii	"\030LC'\301'\3477d\253\350u\205o\277\255XZ\307\035\244"
 170      C127E737 
 170      64ABE875 
 170      856FBFAD 
 170      585AC71D 
 171 00e4 568AD7CB 		.ascii	"V\212\327\313-rQf*\216\263\237\024\212\315\012\336A"
 171      2D725166 
 171      2A8EB39F 
 171      148ACD0A 
 171      DE41
 172 00f6 4A2DF3F7 		.ascii	"J-\363\367\223_\313\240\3656x\002\035\236m\230\001\015"
 172      935FCBA0 
 172      F5367802 
 172      1D9E6D98 
 172      010D
 173 0108 30506576 		.ascii	"0Pev\237)\035\247\376q\342F\217\320Q\001K\302\375*@"
 173      9F291DA7 
 173      FE71E246 
 173      8FD05101 
 173      4BC2FD2A 
 174 011d 165434A3 		.ascii	"\026T4\243hn\201\261*\222i9?8\247(V\241\264yss\341("
 174      686E81B1 
 174      2A926939 
ARM GAS  C:\Users\victo\AppData\Local\Temp\ccYrPGMm.s 			page 13


 174      3F38A728 
 174      56A1B479 
 175 0135 E96D71DA 		.ascii	"\351mq\332\224|i-\373hV5\227\275%\335y\327\253\037\226"
 175      947C692D 
 175      FB685635 
 175      97BD25DD 
 175      79D7AB1F 
 176 014a 75B7E41A 		.ascii	"u\267\344\032*\376\\\257\354-\300d:\2236\017\332\\\203"
 176      2AFE5CAF 
 176      EC2DC064 
 176      3A93360F 
 176      DA5C83
 177 015d 59B4FC94 		.ascii	"Y\264\374\224,\3033(\000[\201Qy\3145\210-Q\224\255\302"
 177      2CC33328 
 177      005B8151 
 177      79CC3588 
 177      2D5194AD 
 178 0172 98952DF5 		.ascii	"\230\225-\365z=\204\327f\376\363\233\355=\244\2518\316"
 178      7A3D84D7 
 178      66FEF39B 
 178      ED3DA4A9 
 178      38CE
 179 0184 98D5CA60 		.ascii	"\230\325\312`\016\005V\200\357\360\004\361\276d\227"
 179      0E055680 
 179      EFF004F1 
 179      BE6497
 180 0193 5E9FF388 		.ascii	"^\237\363\210\352\026W\220\370\356\273Uo!\242\257\215"
 180      EA165790 
 180      F8EEBB55 
 180      6F21A2AF 
 180      8D
 181 01a4 C1732421 		.ascii	"\301s$!\252\221m\200\007\362\032\250\315J\032bJ\343"
 181      AA916D80 
 181      07F21AA8 
 181      CD4A1A62 
 181      4AE3
 182 01b6 B5AF133E 		.ascii	"\265\257\023>\252\355\232@m\236\340\005N@\214o\2206"
 182      AAED9A40 
 182      6D9EE005 
 182      4E408C6F 
 182      9036
 183 01c8 ED3384A7 		.ascii	"\3553\204\247\337P\345@\353\302\345\035\352\216\364"
 183      DF50E540 
 183      EBC2E51D 
 183      EA8EF4
 184 01d7 1B578C64 		.ascii	"\033W\214dl\330HD\303CW\223q#2\030\036\012\036\211\234"
 184      6CD84844 
 184      C3435793 
 184      71233218 
 184      1E0A1E89 
 185 01ec 1A0C4543 		.ascii	"\032\014EC}\321\320\341`4|\372\304\371\223\335q\346"
 185      7DD1D0E1 
 185      60347CFA 
 185      C4F993DD 
 185      71E6
 186 01fe 8F251249 		.ascii	"\217%\022I#\225\032\210\245.\351\227c\303\361\213g\215"
 186      23951A88 
ARM GAS  C:\Users\victo\AppData\Local\Temp\ccYrPGMm.s 			page 14


 186      A52EE997 
 186      63C3F18B 
 186      678D
 187 0210 0BFF002C 		.ascii	"\013\377\000,'\343\326"
 187      27E3D6
 188              		.text
 189              		.section	.gnu.lto_HPI_IF_I2CSlaveInitReadBuf.92f67c21,"",%progbits
 190 0000 789C7592 		.ascii	"x\234u\222OHTQ\024\306\357w\357\233\377.\244\225\314"
 190      4F485451 
 190      14C6EF77 
 190      EF9BFF2E 
 190      A495CC
 191 0013 2A88C14D 		.ascii	"*\210\301M\030T\356\022*\351\317@\013i\240\325\300P"
 191      1854EE12 
 191      2AE9CF40 
 191      0B69A0D5 
 191      C050
 192 0025 3A429B84 		.ascii	":B\233\204\241\331\004\203w\354\005\255bPPa*\027QY\332"
 192      A1D90483 
 192      77EC05AD 
 192      62505061 
 192      2A175159 
 193 003a D868596A 		.ascii	"\330hYj\301#&\020\242\314\"\312\210\202P\230V)\243\304"
 193      C1232610 
 193      A2CC22CA 
 193      88825098 
 193      5629A3C4 
 194 004e 23A6E99C 		.ascii	"#\246\351\2347$\203\315<x\334w\316\375\276\3379\367"
 194      372483CD 
 194      3C78DC77 
 194      CEFDBEDF 
 194      39F7
 195 0060 9EA7C4FF 		.ascii	"\236\247\304\377\317\001z\241\2048\304\253K@f\336\010"
 195      CF017AA1 
 195      8438C4AB 
 195      4B4066DE 
 195      08
 196 0071 91F64AA9 		.ascii	"\221\366J\251\262\035B\373\215\255f\241\233\024\214"
 196      B21D42FB 
 196      8DAD66A1 
 196      9B148C
 197 0080 6ADA00F8 		.ascii	"j\332\000\370C@\364Ke\240\037?\344\206D\306\232\030"
 197      4340F44B 
 197      65A01F3F 
 197      E48644C6 
 197      9A18
 198 0092 0DB4DED6 		.ascii	"\015\264\336\326Z\257\017VZ\256\264\330R\210\222\254"
 198      5AAF0F56 
 198      5AAEB4D8 
 198      528892AC 
 199 00a2 F27117AD 		.ascii	"\362q\027\255$\231\314\217\024]j\037\004}\317\3456_"
 199      2499CC8F 
 199      145D6A1F 
 199      047DCFE5 
 199      365F
 200 00b4 078AD296 		.ascii	"\007\212\322\226\330\315\341\374\340\342\250\233Cip"
 200      D8CDE1FC 
ARM GAS  C:\Users\victo\AppData\Local\Temp\ccYrPGMm.s 			page 15


 200      E0E2A89B 
 200      436970
 201 00c3 680D1554 		.ascii	"h\015\025T\350\226\326\003\326\312\264>l\330Ra\034\212"
 201      E896D603 
 201      D6CAB43E 
 201      6CD85261 
 201      1C8A
 202 00d5 70B88720 		.ascii	"p\270\207 \356#((%0\201\020\211\377\224\266^yT\273\203"
 202      EE232828 
 202      25308110 
 202      89FF94B6 
 202      5E7954BB 
 203 00ea 5D98DD34 		.ascii	"]\230\3354\375U\347\317\252\323\300\344N\247!\360\000"
 203      FD55E7CF 
 203      AAD3C0E4 
 203      4EA721F0 
 203      00
 204 00fb 21966F98 		.ascii	"!\226o\230\345\217\001\267IM7W\233E\016n\320:\265\313"
 204      E58F01B7 
 204      494D3757 
 204      9B450E6E 
 204      D03AB5CB 
 205 010f D295CA4C 		.ascii	"\322\225\312Ly\250\270\307\010Hp%7\034\227X%\035\237"
 205      79A8B8C7 
 205      08487025 
 205      371C9758 
 205      251D9F
 206 0122 7F4D4A5E 		.ascii	"\177MJ^\325\007\230+\227Kc\036\266\376\222|\025\337"
 206      D507982B 
 206      974B631E 
 206      B6FE927C 
 206      15DF
 207 0134 569796BD 		.ascii	"V\227\226\275|\030\272RLQI~\326(\312v\250/0\255\362"
 207      7C18BA52 
 207      4C51497E 
 207      D628CA76 
 207      A82F30AD 
 208 0149 52138BB9 		.ascii	"R\023\213\271\201\233\357\257\345d\352\267\276\252\275"
 208      819BEFAF 
 208      E564EAB7 
 208      BEAABD
 209 0158 B6749524 		.ascii	"\266t\225$\325\306C\244x\353\323\342H;C\334>\201<\202"
 209      D5C643A4 
 209      78EBD3E2 
 209      483B43DC 
 209      3E813C82 
 210 016c B6F488CF 		.ascii	"\266\364\210\317\030\030\316\027L\037\273w\232\275e"
 210      1818CE17 
 210      4C1FBB77 
 210      9ABD65
 211 017b EEBFB6BA 		.ascii	"\356\277\266\272\327\011\307\323\346u\334@6\255Y\345"
 211      D709C7D3 
 211      E675DC40 
 211      36AD59E5 
 212 018b C3345298 		.ascii	"\3034R\230\341\236\360\210\322\3240Q_\014/\027\214z"
 212      E19EF088 
 212      D2D43051 
ARM GAS  C:\Users\victo\AppData\Local\Temp\ccYrPGMm.s 			page 16


 212      5F0C2F17 
 212      8C7A
 213 019d 507F993B 		.ascii	"P\177\231;\252\205\372\235\360\273\276c{\034h\232T\001"
 213      AA85FA9D 
 213      F0BBBE63 
 213      7B1C689A 
 213      5401
 214 01af 3C26E8AC 		.ascii	"<&\350\254\003}\342@\335\014]\317\274l\004\225u)O\267"
 214      037DE240 
 214      DD0C5DCF 
 214      BC6C0495 
 214      75294FB7 
 215 01c3 297344A9 		.ascii	")sD\251\255\032\240\334<\3550\365mC\252\252K]\330\246"
 215      AD1AA0DC 
 215      3CED30F5 
 215      6D43AAAA 
 215      4B5DD8A6 
 216 01d7 3E23AA83 		.ascii	">#\252\203\341!d\3375\034\002u\207\3474\204\177\327"
 216      E12164DF 
 216      351C0275 
 216      87E73484 
 216      7FD7
 217 01e9 CEC3339C 		.ascii	"\316\3033\234Y\177E\332\032;\355\370\004\377\011\340"
 217      597F45DA 
 217      1A3BEDF8 
 217      04FF09E0 
 218 01f9 2CC9F7B6 		.ascii	",\311\367\266EO\304/\304\023g/\306{b\221\276d\242;\036"
 218      454FC42F 
 218      C413672F 
 218      C67B6291 
 218      BE64A23B 
 219 020e ED8AF475 		.ascii	"\355\212\364u\036\214\236\354\012\307\302\307c\341\375"
 219      1E8C9EEC 
 219      0AC7C2C7 
 219      63E1FD
 220 021d 9DB1C8A9 		.ascii	"\235\261\310\251#g\216\265u\013W\242\347h\262\327s."
 220      23678EB5 
 220      750B57A2 
 220      E768B2D7 
 220      732E
 221 022f D91B397F 		.ascii	"\331\0339\177)\376\027\377M&\264"
 221      29FE17FF 
 221      4D26B4
 222              		.text
 223              		.section	.gnu.lto_HPI_IF_I2CSlaveInitWriteBuf.92f67c21,"",%progbits
 224 0000 789C7591 		.ascii	"x\234u\221Oh\023A\024\306\347\233\335l\266\331\036\212"
 224      4F681341 
 224      14C6E79B 
 224      DD6CB6D9 
 224      1E8A
 225 0012 27CDC94B 		.ascii	"'\315\311K\350E*\250\275\210\005\265\370'\340\241\260"
 225      E8452AA8 
 225      BD8805B5 
 225      F827E0A1 
 225      B0
 226 0023 E02910B4 		.ascii	"\340)\020\264\246\340\305B0\010B\350\244\256\340I\253"
 226      A6E0C542 
ARM GAS  C:\Users\victo\AppData\Local\Temp\ccYrPGMm.s 			page 17


 226      300842E8 
 226      A4AEE049 
 226      AB
 227 0034 488D44BD 		.ascii	"H\215D\275\2105\332\232\326V\253m\016\0159\025\304\177"
 227      8835DA9A 
 227      D656AB6D 
 227      0E0D3915 
 227      C47F
 228 0046 4451A328 		.ascii	"DQ\243(\224V\364\2404\244E\027\211\365\275\015J\250"
 228      9456F4A0 
 228      34A44517 
 228      89F5BD0D 
 228      4AA8
 229 0058 EDC032F3 		.ascii	"\355\3002\363\336|\337\357\275}\243\211\377\327v\372"
 229      DE7CDFEF 
 229      BD7DA389 
 229      FFD776FA 
 230 0068 F252885D 		.ascii	"\362R\210]\264\303' \007\236\011\2212\245\3242\035B"
 230      B4C32720 
 230      079E0991 
 230      32A5D432 
 230      1D42
 231 007a 05F4E516 		.ascii	"\005\364\345\026\241\2325\350\365\264\016\360A@\364"
 231      A19A35E8 
 231      F5B40EF0 
 231      4140F4
 232 0089 494D471F 		.ascii	"IMG\037\276\312\212\304@a8m\265\336RJ-\026\257n:\273"
 232      BECA8AC4 
 232      4061386D 
 232      B5DE524A 
 232      2D16AF6E 
 233 009f D1255E55 		.ascii	"\321%^U\326\371\270\215V\222\224\313#EK\333\012A\347"
 233      D6F9B88D 
 233      569294CB 
 233      23454BDB 
 233      0A41E7
 234 00b2 A9DCD253 		.ascii	"\251\334\322S\353\213t%6s8}i6mp(u\016\337\217]H\233"
 234      EB8B7425 
 234      3673387D 
 234      69366D70 
 234      28750EDF 
 235 00ca A19B4AF5 		.ascii	"\241\233J\365\027\312\343j\267\356J\015Yh\304\303\035"
 235      17CAE36A 
 235      B7EE4A0D 
 235      5968C4C3 
 235      1D
 236 00db 04711741 		.ascii	"\004q\027AA)\201a\204H\375\273\272\374\304\257\265{"
 236      41298161 
 236      8448FDBB 
 236      BAFCC4AF 
 236      B57B
 237 00ed DCFCE492 		.ascii	"\334\374\344\222\023\250;\177\326\235:FV;u\201{\010"
 237      13A83B7F 
 237      D69D3A46 
 237      563B7581 
 237      7B08
 238 00ff B1BCE2D4 		.ascii	"\261\274\342\324\336X\206C]\267\324\273E\016\006h\037"
ARM GAS  C:\Users\victo\AppData\Local\Temp\ccYrPGMm.s 			page 18


 238      DE588643 
 238      5DB7D4BB 
 238      450E0668 
 238      1F
 239 0110 DD50502B 		.ascii	"\335PP++\325\317\227\263;\365\200\004W2\340\271\304"
 239      2BD5CF97 
 239      B33BF580 
 239      045732E0 
 239      B9C4
 240 0122 3CE97800 		.ascii	"<\351x\000\013R\362\256\275\206\363\356\314\314\220"
 240      0B52F2AE 
 240      BD86F3EE 
 240      CCCC90
 241 0131 9FAD3F24 		.ascii	"\237\255?$\317\342\323\374\363\227&\377\215F\300Q*\311"
 241      CFE2D3FC 
 241      F39726FF 
 241      8D46C051 
 241      2AC9
 242 0143 6B81A24C 		.ascii	"k\201\242L\207\366\001Na\242\324\314bn\340F\351|N&\177"
 242      87F6014E 
 242      61A2D4CC 
 242      626EE046 
 242      E97C4E26 
 243 0158 A973CA74 		.ascii	"\251s\312t\245\257*\2516\306\220\344\253\267\263W\332"
 243      A5AF2AA9 
 243      36C690E4 
 243      ABB7B357 
 243      DA
 244 0169 19623409 		.ascii	"\031b4\011\334G\320\225~QF\377`\345\333+\257\324j\263"
 244      DC47D095 
 244      7E5146FF 
 244      60E5DB2B 
 244      AFD46AB3 
 245 017d 59E3FE1B 		.ascii	"Y\343\376\033\253\233^\230M9\327p\035\231\224bU\023"
 245      AB9B5E98 
 245      4D39D770 
 245      1D999462 
 245      5513
 246 018f C691C404 		.ascii	"\306\221\304\004\367\204\007\224\246\206\211Z\034\274"
 246      F7840794 
 246      A686895A 
 246      1CBC
 247 019d F85D5F0B 		.ascii	"\370]_\013\032\250qG\215\320\200\027\316\251!\327\357"
 247      1AA87147 
 247      8DD08017 
 247      CEA921D7 
 247      EF
 248 01ae 4153A4B2 		.ascii	"AS\244\262\360\220\240\223\036\364\221\0075\030\272"
 248      F090A093 
 248      1EF49107 
 248      3518BA
 249 01bd F8625DA8 		.ascii	"\370b]\250\\\223\362\370\037e\212(\215U-\312M\323\015"
 249      5C93F2F8 
 249      1F658A28 
 249      8D552DCA 
 249      4DD30D
 250 01d0 4F6F66FD 		.ascii	"Oof\375\351\021\026y\232\336\337y\361\324u\357\221>"
ARM GAS  C:\Users\victo\AppData\Local\Temp\ccYrPGMm.s 			page 19


 250      E9111679 
 250      9ADEDF79 
 250      F1D475EF 
 250      913E
 251 01e2 225528D9 		.ascii	"\"U(\331\236O\360\023\202\263$\337\322\0269\020;\021"
 251      9E4FF013 
 251      82B324DF 
 251      D2163910 
 251      3B11
 252 01f4 8B1F3919 		.ascii	"\213\0379\031;\026\265{\023\361\356X\244\313\356\355"
 252      3B16B57B 
 252      13F1EE58 
 252      A4CBEEED 
 253 0204 DC1139D8 		.ascii	"\334\0219\330\025\216\206\367G\303\333:\243\366\241"
 253      158E86F7 
 253      47C3DB3A 
 253      A3F6A1
 254 0213 3D87F7B5 		.ascii	"=\207\367\265u\013\337\251\370\336D\217\377h\242\307"
 254      750BDFA9 
 254      F8DE448F 
 254      FF68A2C7 
 255 0223 3E7E3AF6 		.ascii	">~:\366\007\177A\017\237"
 255      077F410F 
 255      9F
 256              		.text
 257              		.section	.gnu.lto_HPI_IF_I2CSlaveGetReadBufSize.92f67c21,"",%progbits
 258 0000 789C6366 		.ascii	"x\234cf\300\004R@\374\035\210\365\200\230\221\231\201"
 258      C0045240 
 258      FC1D88F5 
 258      80989199 
 258      81
 259 0011 9169C239 		.ascii	"\221i\3029\006\206F\016&FF\020\203\201\221\241\236\211"
 259      0686460E 
 259      26464610 
 259      838191A1 
 259      9E89
 260 0023 B19EF125 		.ascii	"\261\236\361%\323G&\306\235\353\276\234\345~\301\364"
 260      D34726C6 
 260      9DEBBE9C 
 260      E57EC1F4 
 261 0033 93894181 		.ascii	"\223\211A\201\001\310\3355\351\304\0146\020\227\221"
 261      01C8DD35 
 261      E9C40C36 
 261      109791
 262 0042 05C4BD7E 		.ascii	"\005\304\275~m\306uN\365\245\015\015M\037\2326'\316"
 262      6DC6754E 
 262      F5A50D0D 
 262      4D1F9A36 
 262      27CE
 263 0054 9CB20028 		.ascii	"\234\262\000(\303\304\360\231\211\201q9\243\024\343"
 263      C3C4F099 
 263      89817139 
 263      A314E3
 264 0063 0A469045 		.ascii	"\012F\220E\214+\031\325Aj?\266\374\275\316\315\326\322"
 264      8C2B19D5 
 264      416A3FB6 
 264      FCBDCECD 
ARM GAS  C:\Users\victo\AppData\Local\Temp\ccYrPGMm.s 			page 20


 264      D6D2
 265 0075 D0D02000 		.ascii	"\320\320 \000R\001\224X\305\310\306\010\244\327\013"
 265      52019458 
 265      C5C8C608 
 265      A4D70B
 266 0084 1D68F8FF 		.ascii	"\035h\370\377\377\363\231\251/\324X\231\231\030@&0<"
 266      FFF399A9 
 266      2FD45899 
 266      99184026 
 266      303C
 267 0096 0162905B 		.ascii	"\001b\220[\236\0029@\232\371\026\343\241I\033\317\206"
 267      9E023940 
 267      9AF916E3 
 267      A1491BCF 
 267      86
 268 00a7 82B47C67 		.ascii	"\202\264|g\002\271k\336\345\276uL\265\277\033:\0328"
 268      02B96BDE 
 268      E5BE754C 
 268      B5BF1B3A 
 268      1A38
 269 00b9 7E3231FF 		.ascii	"~21\377\005\231\007\024\275\377\344\374E\016\220\363"
 269      05990714 
 269      BDFFE4FC 
 269      450E90F3 
 270 00c9 98C1DC47 		.ascii	"\230\301\334G\015\313~\262\317e\234\335\330\320\010"
 270      0DCB7EB2 
 270      CF659CDD 
 270      D8D008
 271 00d8 54C5C2B8 		.ascii	"T\305\302\270\232\261\226q\015\310Q\214k\031\34722\334"
 271      9AB19671 
 271      0DC8518C 
 271      6B19E732 
 271      32DC
 272 00ea 6364841A 		.ascii	"cd\204\032\310\000\262\221\021d\023\220\251\243\027"
 272      C800B291 
 272      11641390 
 272      A9A317
 273 00f9 E39E9A97 		.ascii	"\343\236\232\227Z\224X\222\232\022\037\234_Z\224\234"
 273      5A945892 
 273      9A121F9C 
 273      5F5A949C 
 274 0109 1A13109C 		.ascii	"\032\023\020\234\357l\022\343\021\340\031\357\351\026"
 274      EF6C12E3 
 274      11E019EF 
 274      E916
 275 0117 EF69E41C 		.ascii	"\357i\344\034\037\354\343\030\346\252\227\314\000\000"
 275      1FECE318 
 275      E6AA97CC 
 275      0000
 276 0125 417E6960 		.ascii	"A~i`"
 277              		.text
 278              		.section	.gnu.lto_HPI_IF_I2CSlaveGetWriteBufSize.92f67c21,"",%progbits
 279 0000 789C6366 		.ascii	"x\234cf\300\004R@\374\035\210\365\200\230\221\231\201"
 279      C0045240 
 279      FC1D88F5 
 279      80989199 
 279      81
ARM GAS  C:\Users\victo\AppData\Local\Temp\ccYrPGMm.s 			page 21


 280 0011 9169C239 		.ascii	"\221i\3029\006\206F\016&FF\020\203\201\221\241\236\211"
 280      0686460E 
 280      26464610 
 280      838191A1 
 280      9E89
 281 0023 B19EF125 		.ascii	"\261\236\361%\323G&\306\235\353\276\234\345~\301\364"
 281      D34726C6 
 281      9DEBBE9C 
 281      E57EC1F4 
 282 0033 93894181 		.ascii	"\223\211A\201\001\310\3355\351\304\0146\020\227\221"
 282      01C8DD35 
 282      E9C40C36 
 282      109791
 283 0042 05C4BD7E 		.ascii	"\005\304\275~m\306uN\365\245\015\015M\037\026\355L\234"
 283      6DC6754E 
 283      F5A50D0D 
 283      4D1F16ED 
 283      4C9C
 284 0054 39650150 		.ascii	"9e\001P\206\211\3413\023\003\343rF)\306\025\214 \213"
 284      8689E133 
 284      1303E372 
 284      4629C615 
 284      8C208B
 285 0067 185732AA 		.ascii	"\030W2\252\203\324~l\371{\235\233\255\245\241\241A\000"
 285      83D47E6C 
 285      F97B9D9B 
 285      ADA5A1A1 
 285      4100
 286 0079 A40228B1 		.ascii	"\244\002(\261\212\221\215\021H\257\027:\320\360\377"
 286      8A918D11 
 286      48AF173A 
 286      D0F0FF
 287 0088 FFE7A753 		.ascii	"\377\347\247SW\030\263231\200L`x\002\304 \267<\005r"
 287      5718B332 
 287      3331804C 
 287      607802C4 
 287      20B73C05 
 288 009d 8034F32D 		.ascii	"\2004\363-\306C\2236>\013\005i\371\316\004r\327\274"
 288      C6439336 
 288      3E0B0569 
 288      F9CE0472 
 288      D7BC
 289 00af CB7DEB98 		.ascii	"\313}\353\230j\1777t4p\374db\376\0132\017(z\377\311"
 289      6A7F3774 
 289      3470FC64 
 289      62FE0B32 
 289      0F287AFF 
 290 00c4 F98B1C20 		.ascii	"\371\213\034 \3471\203\271\217\032\226\375d\237\313"
 290      E73183B9 
 290      8F1A96FD 
 290      649FCB
 291 00d3 38BBB1A1 		.ascii	"8\273\261\241\021\250\212\205q5c-\343\032\220\243\030"
 291      11A88A85 
 291      7135632D 
 291      E31A90A3 
 291      18
 292 00e4 D732CE65 		.ascii	"\3272\316ed\270\307\310\0105\220\001d##\310& SG/\306"
ARM GAS  C:\Users\victo\AppData\Local\Temp\ccYrPGMm.s 			page 22


 292      64B8C7C8 
 292      08359001 
 292      642323C8 
 292      26205347 
 293 00fa 3D352FB5 		.ascii	"=5/\265(\261$5%>8\277\264(95& 8\337\331$\306#\3003\336"
 293      28B12435 
 293      253E38BF 
 293      B4283935 
 293      262038DF 
 294 0115 D32DDED3 		.ascii	"\323-\336\323\3109>\330\3071\314U/\231\001\000bsi\205"
 294      C8393ED8 
 294      C731CC55 
 294      2F990100 
 294      62736985 
 295              		.text
 296              		.section	.gnu.lto_HPI_IF_I2CSlaveClearReadBuf.92f67c21,"",%progbits
 297 0000 789C6366 		.ascii	"x\234cf\300\004R@|\017\210\365\200\230\221\231\201\221"
 297      C0045240 
 297      7C0F88F5 
 297      80989199 
 297      8191
 298 0012 69C23906 		.ascii	"i\3029\006\206F\016&FF\020\203\201\221\241\236\211\261"
 298      86460E26 
 298      46461083 
 298      8191A19E 
 298      89B1
 299 0024 9EF125D3 		.ascii	"\236\361%\323G&\306\011\007V\317\340V_\332\320\320\360"
 299      4726C609 
 299      0756CFE0 
 299      565FDAD0 
 299      D0F0
 300 0036 61D37EC9 		.ascii	"a\323~\311V\211\237L\014\014\237\231 \3060.gTg\000\252"
 300      56899F4C 
 300      0C0C9F99 
 300      20C6302E 
 300      67546700 
 301 004b F9D8F2F7 		.ascii	"\371\330\362\367:7[\013P\215\000D\216q\005#\033#\220"
 301      3A375B0B 
 301      508D0044 
 301      8E710523 
 301      1B2390
 302 005e 5E2F74A0 		.ascii	"^/t\240\341\377\377\315\377\246\236\260gef`x\002\224"
 302      E1FFFFCD 
 302      FFA69EB0 
 302      67656660 
 302      780294
 303 0071 0359F094 		.ascii	"\003Y\360\224\211\011D3\337b<\364\341\303\277\251\354"
 303      89094433 
 303      DF623CF4 
 303      E1C3BFA9 
 303      EC
 304 0082 20E54063 		.ascii	" \345@c\346]\356[\307T\373\273\241\243\201\343'\023"
 304      E65DEE5B 
 304      C754FBBB 
 304      A1A381E3 
 304      2713
 305 0094 E35F9041 		.ascii	"\343_\220A@\321\373O\316_\344x\301\004\024\001s\037"
ARM GAS  C:\Users\victo\AppData\Local\Temp\ccYrPGMm.s 			page 23


 305      40D1FB4F 
 305      CE5FE478 
 305      C1041401 
 305      731F
 306 00a6 352CFBC9 		.ascii	"5,\373\311>\227qvcC#P\025\023\343J\306Z\306U\214@\017"
 306      3E977176 
 306      63432350 
 306      1513E34A 
 306      C65AC655 
 307 00bd 31AE669C 		.ascii	"1\256f\234\313\210\254\036\250\237q\015P\346\036c\343"
 307      CB88AC1E 
 307      A89F710D 
 307      50E61E63 
 307      E3
 308 00ce 81BFE120 		.ascii	"\201\277\341 ;@n~\0024\007h7PRG/\306=5/\265(\261$5%"
 308      3B406E7E 
 308      02340768 
 308      37505247 
 308      2FC63D35 
 309 00e9 3E38BFB4 		.ascii	">8\277\264(95& 8\337\331$\306#\3003\336\323-\336\323"
 309      28393526 
 309      2038DFD9 
 309      24C623C0 
 309      33DED32D 
 310 00ff C8393ED8 		.ascii	"\3109>\330\3071\314U/\231\001\000t\010a\324"
 310      C731CC55 
 310      2F990100 
 310      740861D4 
 311              		.text
 312              		.section	.gnu.lto_HPI_IF_I2CSlaveClearWriteBuf.92f67c21,"",%progbits
 313 0000 789C6366 		.ascii	"x\234cf\300\004R@|\017\210\365\200\230\221\231\201\221"
 313      C0045240 
 313      7C0F88F5 
 313      80989199 
 313      8191
 314 0012 69C23906 		.ascii	"i\3029\006\206F\016&FF\020\203\201\221\241\236\211\261"
 314      86460E26 
 314      46461083 
 314      8191A19E 
 314      89B1
 315 0024 9EF125D3 		.ascii	"\236\361%\323G&\306\011\007V\317\340V_\332\320\320\360"
 315      4726C609 
 315      0756CFE0 
 315      565FDAD0 
 315      D0F0
 316 0036 E1D055C9 		.ascii	"\341\320U\311V\211\237L\014\014\237\231 \3060.gTg\000"
 316      56899F4C 
 316      0C0C9F99 
 316      20C6302E 
 316      67546700 
 317 004a AAF9D8F2 		.ascii	"\252\371\330\362\367:7[\013P\215\000D\216q\005#\033"
 317      F73A375B 
 317      0B508D00 
 317      448E7105 
 317      231B
 318 005c 23905E2F 		.ascii	"#\220^/t\240\341\377\377\317\327\246\275\320fcf`x\002"
 318      74A0E1FF 
ARM GAS  C:\Users\victo\AppData\Local\Temp\ccYrPGMm.s 			page 24


 318      FFCFD7A6 
 318      BDD06663 
 318      66607802 
 319 0070 940359F0 		.ascii	"\224\003Y\360\224\211\011D3\337b<\364a\303\365i\354"
 319      94890944 
 319      33DF623C 
 319      F461C3F5 
 319      69EC
 320 0082 20E54063 		.ascii	" \345@c\346]\356[\307T\373\273\241\243\201\343'\023"
 320      E65DEE5B 
 320      C754FBBB 
 320      A1A381E3 
 320      2713
 321 0094 E35F9041 		.ascii	"\343_\220A@\321\373O\316_\344x\301\004\024\001s\037"
 321      40D1FB4F 
 321      CE5FE478 
 321      C1041401 
 321      731F
 322 00a6 352CFBC9 		.ascii	"5,\373\311>\227qvcC#P\025\023\343J\306Z\306U\214@\017"
 322      3E977176 
 322      63432350 
 322      1513E34A 
 322      C65AC655 
 323 00bd 31AE669C 		.ascii	"1\256f\234\313\210\254\036\250\237q\015P\346\036c\343"
 323      CB88AC1E 
 323      A89F710D 
 323      50E61E63 
 323      E3
 324 00ce 81FB5120 		.ascii	"\201\373Q ;@n~\0024\007h7PRG/\306=5/\265(\261$5%>8\277"
 324      3B406E7E 
 324      02340768 
 324      37505247 
 324      2FC63D35 
 325 00ec B4283935 		.ascii	"\264(95& 8\337\331$\306#\3003\336\323-\336\323\3109"
 325      262038DF 
 325      D924C623 
 325      C033DED3 
 325      2DDED3C8 
 326 0101 3ED8C731 		.ascii	">\330\3071\314U/\231\001\000m@a\237"
 326      CC552F99 
 326      01006D40 
 326      619F
 327              		.text
 328              		.section	.gnu.lto_.symbol_nodes.92f67c21,"",%progbits
 329 0000 789C55CD 		.ascii	"x\234U\315=\022\202@\014\005\340\267\011\273,,\376/"
 329      3D128240 
 329      0C05E0B7 
 329      09BB2C2C 
 329      FE2F
 330 0012 B547F248 		.ascii	"\265G\362H\241\262\366\004\216\216\034\205\3323XPz\004"
 330      A1B2F604 
 330      8E8E1C85 
 330      DA335850 
 330      7A04
 331 0024 75848582 		.ascii	"u\204\205\202\244\311|\2317/\014\340d0\015\025\002\\"
 331      A4C97C99 
 331      372F0CE0 
ARM GAS  C:\Users\victo\AppData\Local\Temp\ccYrPGMm.s 			page 25


 331      64300D15 
 331      025C
 332 0036 9E8008AE 		.ascii	"\236\200\010\2567\017\013<H@\245\230\345\231\202\220"
 332      370F0B3C 
 332      4840A598 
 332      E5998290 
 333 0046 7225ACBC 		.ascii	"r%\254\274\222Ly-V\325f\346>\324ZKc\273u\234V\236\245"
 333      924C792D 
 333      56D566E6 
 333      3ED45A4B 
 333      63BB759C 
 334 005d 5F1B712A 		.ascii	"_\033q*kl\312\222K!\316Sh+\271z\260\023\257\274\227"
 334      6B6CCA92 
 334      4B21CE53 
 334      682BB97A 
 334      B013AFBC 
 335 0072 42F920A5 		.ascii	"B\371 \245*\365~\2541\265\204\351\214\246\3610Q\252"
 335      2AF57EAC 
 335      31B584E9 
 335      8CA6F130 
 335      51AA
 336 0084 05996AB4 		.ascii	"\005\231j\264\257\237a\212h\317\357#\363l\236\355jt"
 336      AF9F618A 
 336      68CFEF23 
 336      F36C9EED 
 336      6A74
 337 0096 9FDEB08B 		.ascii	"\237\336\260\213\350\277\303\016\263CD7\030\177,\303"
 337      E8BFC30E 
 337      B3434437 
 337      187F2CC3 
 338 00a6 5573     		.ascii	"Us"
 339              		.text
 340              		.section	.gnu.lto_.refs.92f67c21,"",%progbits
 341 0000 789C3D86 		.ascii	"x\234=\206\011\012\2000\020\304&N\273Z\217V\375\225"
 341      090A8030 
 341      10C4264E 
 341      BB5A8F56 
 341      FD95
 342 0012 FFFF900B 		.ascii	"\377\377\220\013\202!\220X\322\243\017R<\2114`\261\377"
 342      82219058 
 342      D2A30F52 
 342      3C893460 
 342      B1FF
 343 0024 2DC1EC0C 		.ascii	"-\301\354\014\255\262\2067vs\024ze\250\301\251\016\027"
 343      ADB28637 
 343      7673147A 
 343      65A8C1A9 
 343      0E17
 344 0036 79371DBD 		.ascii	"y7\035\275:\347\001\203"
 344      3AE70183 
 345              		.text
 346              		.section	.gnu.lto_.decls.92f67c21,"",%progbits
 347 0000 789CA596 		.ascii	"x\234\245\226iLTW\024\307\337\235\313\260\014\203t\325"
 347      694C5457 
 347      14C7DF9D 
 347      CBB00C83 
 347      74D5
ARM GAS  C:\Users\victo\AppData\Local\Temp\ccYrPGMm.s 			page 26


 348 0012 962E424C 		.ascii	"\226.BLL\232\030\233\332~\360KS-\255JW\"]>hjP^[R\212"
 348      4C9A189B 
 348      DA7EF04B 
 348      532DAD4A 
 348      57225D3E 
 349 002d 66186C6D 		.ascii	"f\030lm\277<\001\001\261\0320Z\250Zg\004\224\012\025"
 349      BF3C0101 
 349      B11A305A 
 349      A85A6704 
 349      940A15
 350 0040 ACB62A08 		.ascii	"\254\266*\01028*;\026P6YF\024\245\0122\002\232Z\032"
 350      32382A3B 
 350      16503659 
 350      4614A50A 
 350      32029A5A 
 351 0055 A6E72E8F 		.ascii	"\246\347.\217\271\263uI_r\034\356}\347\374\376\377s"
 351      B9B37549 
 351      5F721CEE 
 351      7DE7FCFE 
 351      FF73
 352 0067 EF7DCF87 		.ascii	"\357}\317\207%I\332\207%\311\001\327\313:I\332\256\221"
 352      2549DA87 
 352      25C901D7 
 352      CB3A49DA 
 352      AE91
 353 0079 243DCC45 		.ascii	"$=\314EC\300\237\322l\2102\211]!\020\345\020\247!\252"
 353      43C09FD2 
 353      6C883289 
 353      5D2110E5 
 353      10A721AA 
 354 008d 206A20AC 		.ascii	" j \254\020u\020\015\020M\020-\020\255\020\355\020\235"
 354      1075100D 
 354      104D102D 
 354      10AD10ED 
 354      109D
 355 009f 10DD1041 		.ascii	"\020\335\020A\020\275\020\003\020\203\020\327!n@\014"
 355      10BD1003 
 355      108310D7 
 355      216E400C 
 356 00af 43DC8218 		.ascii	"C\334\202\030\201\270#\271^D\307\037b\226\304\374\374"
 356      81B823B9 
 356      5E44C71F 
 356      6296C4FC 
 356      FC
 357 00c0 CCBDF441 		.ascii	"\314\275\364A\364\360\034\304\363\020\347\213\027\361"
 357      F4F01CC4 
 357      F310E78B 
 357      17F1
 358 00ce 18E8A57E 		.ascii	"\030\350\245~\014\342\262\033\007\363\374n\356\331\033"
 358      0CE2B21B 
 358      07F3FC6E 
 358      EED91B
 359 00dd AFEA3FF2 		.ascii	"\257\352?\362\252\376\201G\326.@b\353,2# & \306\205"
 359      AAFE8147 
 359      D62E4062 
 359      EB2C3223 
 359      202620C6 
ARM GAS  C:\Users\victo\AppData\Local\Temp\ccYrPGMm.s 			page 27


 360 00f2 1E6B24CF 		.ascii	"\036k$\317\313\312\375\374]\375\033\002\303\352\205"
 360      CBCAFDFC 
 360      5DFD1B02 
 360      C3EA85
 361 0101 512739F7 		.ascii	"Q'9\367Ze\224q\316\030\357\217\3646\311\373\273\007"
 361      5A659471 
 361      CE18EF8F 
 361      F436C9FB 
 361      BB07
 362 0113 61137AAC 		.ascii	"a\023z\254\023z\364\223<\367W\274\032\376\247V\203\240"
 362      137AF493 
 362      3CF757BC 
 362      1AFEA756 
 362      83A0
 363 0125 45C6E2D9 		.ascii	"E\306\342\331\021/r\006\265nk\"\262\020\317A\334\247"
 363      112F7206 
 363      B56E6B22 
 363      B210CF41 
 363      DCA7
 364 0137 78B5FC8B 		.ascii	"x\265\374\213\332\026\376\353\256\333\312}E{\251i\365"
 364      DA16FEEB 
 364      AEDBCA7D 
 364      457BA969 
 364      F5
 365 0148 A1D7FE37 		.ascii	"\241\327\37675\355>t\356jPGuFF \326 \362wA\336\325K"
 365      35ED3E74 
 365      EE6A5047 
 365      75464620 
 365      D620F277 
 366 0160 BA05C58A 		.ascii	"\272\005\305\212\242d*\026\013r&m>t\372\233\200a\015"
 366      A2642A16 
 366      0B72266D 
 366      3E74FA9B 
 366      80610D
 367 0173 9AADA3C3 		.ascii	"\232\255\243\303\035\215{j0\035:H\235\246\273{\327\003"
 367      1D8D7B6A 
 367      301D3A48 
 367      9DA6BB7B 
 367      D703
 368 0185 8C74F333 		.ascii	"\214t\3633\025%E\261\357T\360\023\022Z\020\206\236\013"
 368      152545B1 
 368      EF54F013 
 368      125A1086 
 368      9E0B
 369 0197 93D08F68 		.ascii	"\223\320\217h>\244\241\037\320\002\011\035Fa\250\030"
 369      3EA4A11F 
 369      D002091D 
 369      4661A818 
 370 01a7 85498520 		.ascii	"\205I\205 `7\331{\236V\024?T\202t\250\010a\232\001&"
 370      6037D97B 
 370      9E56143F 
 370      548274A8 
 370      08619A01 
 371 01bc 8902172D 		.ascii	"\211\002\027-/\235l\016\006\225Y\272p2\254\330Y\227"
 371      2F9D6C0E 
 371      069559BA 
 371      7032ACD8 
ARM GAS  C:\Users\victo\AppData\Local\Temp\ccYrPGMm.s 			page 28


 371      5997
 372 01ce E70F43BD 		.ascii	"\347\017C\275\316\217\014[\355\216\217\364YD0;U\011"
 372      CE8F0C5B 
 372      ED8E8FF4 
 372      5944303B 
 372      5509
 373 01e0 5A413947 		.ascii	"ZA9G@\240\024\004$T\206\364\264w\370\205\334\253]\235"
 373      40A01404 
 373      245486F4 
 373      B477F885 
 373      DCAB5D9D 
 374 01f4 9501F805 		.ascii	"\225\001\370\005$\266\022\301Z\031\330\373\2400\210"
 374      24B612C1 
 374      5A19D8FB 
 374      A03088
 375 0203 0EC93B2B 		.ascii	"\016\311;+\224t3\272+\305\021\214\346\353\210MsE\010"
 375      947433BA 
 375      2BC5118C 
 375      E6EB884D 
 375      734508
 376 0216 423F03FA 		.ascii	"B?\003\372\250\323b\004\267\2309#.\315(\243\343\320"
 376      A8D36204 
 376      B7983923 
 376      2ECD28A3 
 376      E3D0
 377 0228 6F04EFF7 		.ascii	"o\004\357\367'\230<\006\223 \3238\370\373\204\236\366"
 377      27983C06 
 377      9320D338 
 377      F8FB849E 
 377      F6
 378 0239 F21019EE 		.ascii	"\362\020\031\356\351\034\232\304\264\027\015\031\232"
 378      E91C9AC4 
 378      B4170D19 
 378      9A
 379 0246 2A8B1D41 		.ascii	"*\213\035Asv+\344JU\036\322P\305_\240\372\004m\346$"
 379      73762BE4 
 379      4A551ED2 
 379      50C55FA0 
 379      FA046DE6 
 380 025b 9A03FFAE 		.ascii	"\232\003\377\256\362c\313r\247\255\355M\274\230\366"
 380      F263CB72 
 380      A7ADED4D 
 380      BC98F6
 381 026a B2F5C474 		.ascii	"\262\365\304t\233.|\277b>j\337\237:\266$'U\331\245\330"
 381      9B2E7CBF 
 381      623E6ADF 
 381      9F3AB624 
 381      2755D9A5 
 382 027f 1C8EB9B4 		.ascii	"\034\216\271\264\004\235\232\261,\221\277\331a(G\341"
 382      049D9AB1 
 382      2C91BFD9 
 382      612847E1 
 383 028f 5078A2A5 		.ascii	"Px\242\245\340\234\036\177M!\326\346\316\016D!\346\221"
 383      E09C1E7F 
 383      4D21D6E6 
 383      CE0E4421 
 383      E691
ARM GAS  C:\Users\victo\AppData\Local\Temp\ccYrPGMm.s 			page 29


 384 02a1 02FF1F14 		.ascii	"\002\377\037\024\213\303\361\012\255\257\020\352+\324"
 384      8BC3F10A 
 384      ADAF10EA 
 384      2BD4
 385 02af FAD3B4BE 		.ascii	"\372\323\264\276\250\256>\313\017\357A\024P\373]\321"
 385      A8AE3ECB 
 385      0FEF4114 
 385      50FB5DD1 
 386 02bf 5E0E283D 		.ascii	"^\016(=(\002*\005@\245\012\250\242\200\254\302\264R"
 386      28022A05 
 386      40A50AA8 
 386      A280ACC2 
 386      B452
 387 02d1 9D1FFC97 		.ascii	"\235\037\374\227@[]Ew47-\267\004\213\253\020=[X\204"
 387      405B5D45 
 387      7734372D 
 387      B7048BAB 
 387      103D5B58 
 388 02e6 6ABA0867 		.ascii	"j\272\010g\020_\005\307\216\355\371\263p\005s\360G\307"
 388      105F05C7 
 388      8EEDF9B3 
 388      700573F0 
 388      47C7
 389 02f8 37597AEA 		.ascii	"7Yz\352\3006z^\266\244(\177:\034\230\226 \213\340\301"
 389      C0367A5E 
 389      B6A4287F 
 389      3A1C9896 
 389      208BE0C1 
 390 030c A27AA8A1 		.ascii	"\242z\250\241\0362\372smZ|\211!\006L\3035Z\326Dq\221"
 390      1E32FA73 
 390      6D5A7C89 
 390      21064CC3 
 390      355AD644 
 391 0322 DA04019C 		.ascii	"\332\004\001\234\025\000gU\200\325g\023C=\235yAt\016"
 391      15006755 
 391      80D56713 
 391      433D9D79 
 391      41740E
 392 0335 8E1E3A87 		.ascii	"\216\036:\207\350\344\376\242\343\325!>;\273@;;\257"
 392      E8E4FEA2 
 392      E3D5213E 
 392      3BBB403B 
 392      3BAF
 393 0347 76363071 		.ascii	"v60q.=\010\2173[\023i[O\0060[\017flA\001\252\025l\325"
 393      2E3D088F 
 393      335B1369 
 393      5B4F0630 
 393      5B0F666C 
 394 0361 AAB6EAA8 		.ascii	"\252\266\352\250\255\326\362\303#\030og\217t\376\231"
 394      ADD6F2C3 
 394      23186F67 
 394      8F74FE99 
 395 0371 B48C6006 		.ascii	"\264\214`\006h:,\002\352\005@\275\012h\240\200\376\221"
 395      683A2C02 
 395      EA0540BD 
 395      0A68A080 
 395      FE91
ARM GAS  C:\Users\victo\AppData\Local\Temp\ccYrPGMm.s 			page 30


 396 0383 2DE981F8 		.ascii	"-\351\201\3700\003\234\255\333\275#\210\255m\336\266"
 396      30039CAD 
 396      DBBD2388 
 396      AD6DDEB6 
 397 0393 0B7A8521 		.ascii	"\013z\205!\330\011k\024\030\215*\243\2112\312\012\277"
 397      D8096B14 
 397      188D2AA3 
 397      8932CA0A 
 397      BF
 398 03a4 BF1C8A6B 		.ascii	"\277\034\212k\031\343h\311\336\256Pf\242\241D<!\315"
 398      19E368C9 
 398      DEAE5066 
 398      A2A1443C 
 398      21CD
 399 03b6 02A05905 		.ascii	"\002\240Y\005\264\260#\372\340~\231\277\3175\273\350"
 399      B4B023FA 
 399      E07E99BF 
 399      CF35BBE8 
 400 03c6 F2489C2A 		.ascii	"\362H\234*+)\324\340\033Ll:\377V>;\216\266\251F\347"
 400      2B29D4E0 
 400      1B4C6C3A 
 400      FF563E3B 
 400      8EB6A946 
 401 03db 61800AF4 		.ascii	"a\200\012\364\253 \367\253*\327J\345\032\255\355y\301"
 401      AB20F7AB 
 401      2AD74AE5 
 401      1AADED79 
 401      C1
 402 03ec 3805B3F7 		.ascii	"8\005\263\367\340\271\352Q~\030~<\242\372%\2006\001"
 402      E0B9EA51 
 402      7E187E3C 
 402      A2FA2580 
 402      3601
 403 03fe D0A602DA 		.ascii	"\320\246\002\332) {KM\266\037\335\370\222\231\303\320"
 403      29207B4B 
 403      4DB61FDD 
 403      F89299C3 
 403      D0
 404 040f 94BBEF6C 		.ascii	"\224\273\357l\260\317\036.\323\036.\251\373\336\227"
 404      B0CF1E2E 
 404      D31E2EA9 
 404      FBDE97
 405 041e 63DF1784 		.ascii	"c\337\027\204M\314A\306\370\225v\0158\260)\366+G\006"
 405      4DCC41C6 
 405      F895760D 
 405      38B029F6 
 405      2B4706
 406 0431 97E6A466 		.ascii	"\227\346\244f\253O6T\241\016\301F\207j\243\223\332\270"
 406      AB4F3654 
 406      A10EC146 
 406      876AA393 
 406      DAB8
 407 0443 B265F016 		.ascii	"\262e\360\026\306\215\214\262\273\277\264\224Q\314\333"
 407      C68D8CB2 
 407      BBBFB494 
 407      51CCDB
 408 0452 8AD2C379 		.ascii	"\212\322\303y#\204\320%\020\272TB7%\374r?\253<D\227"
ARM GAS  C:\Users\victo\AppData\Local\Temp\ccYrPGMm.s 			page 31


 408      2384D025 
 408      10BA5442 
 408      3725FC72 
 408      3FAB3C44 
 409 0467 491CFFF3 		.ascii	"I\034\377\363\253\234\234\226\374\372o5\270\213)\366"
 409      AB9C9C96 
 409      FCFA6F35 
 409      B88B29F6 
 410 0477 0F37DF43 		.ascii	"\0177\337C\363\016(\205\005\366\375\326\035\217\345"
 410      F30E2885 
 410      05F6FDD6 
 410      1D8FE5
 411 0486 82748A42 		.ascii	"\202t\212BDQ\017\254\312\025\246\312\201\022\031S\341"
 411      44510FAC 
 411      CA15A6CA 
 411      81121953 
 411      E1
 412 0497 5E340F6A 		.ascii	"^4\017jS\247\254\027C\304Wz\217\313+\275\217\275\322"
 412      53A7AC17 
 412      43C4577A 
 412      8FCB2BBD 
 412      8FBDD2
 413 04aa 21F172E6 		.ascii	"!\361r\346\261f\015\036f\212\347\315y\203\376\240h\316"
 413      B1660D1E 
 413      668AE7CD 
 413      7983FEA0 
 413      68CE
 414 04bc B7355C8A 		.ascii	"\2675\\\212\263\244\245)\323\016\007\"\331\250\237\313"
 414      B3A4A529 
 414      D30E0722 
 414      D9A89FCB 
 415 04cc 3919FD5C 		.ascii	"9\031\375\\p\200\012\226\357n\255\325\261N\377\345k"
 415      70800A96 
 415      EF6EADD5 
 415      B14EFFE5 
 415      6B
 416 04dd FCCCEDAD 		.ascii	"\374\314\355\255\323Z\374\007S6\325\024\014hi\257\346"
 416      D35AFC07 
 416      5336D514 
 416      0C6869AF 
 416      E6
 417 04ee C663CA12 		.ascii	"\306c\312\022U\331\006\256\257z(_\345\312\203T\371b"
 417      55D906AE 
 417      AF7A285F 
 417      E5CA8354 
 417      F962
 418 0500 6FEA6678 		.ascii	"o\352fxD\375\330.\325\233\352\002\030\247\311\215s\315"
 418      44FDD82E 
 418      D59BEA02 
 418      18A7C98D 
 418      73CD
 419 0512 83738D73 		.ascii	"\203s\215s\256SN\245c\2622\030\037`\234\276{\275\266"
 419      AE534EA5 
 419      63B23218 
 419      1F609CBE 
 419      7BBDB6
 420 0525 50C66976 		.ascii	"P\306iv\343\014yp\2068\347\006\345\230\206'n\352\360"
ARM GAS  C:\Users\victo\AppData\Local\Temp\ccYrPGMm.s 			page 32


 420      E30C7970 
 420      8638E706 
 420      E5988627 
 420      6EEAF0
 421 0538 29C63978 		.ascii	")\3069x4\307\034LW\324\\%p\310\212\336\364\340\334\344"
 421      34C71C4C 
 421      57D45C25 
 421      70C88ADE 
 421      F4E0DCE4 
 422 054c 9C61CA69 		.ascii	"\234a\312i)\351-\016\304\015\214\2233u\322\302\373:"
 422      29E92D0E 
 422      C40D8C93 
 422      3375D2C2 
 422      FB3A
 423 055e E3E6E737 		.ascii	"\343\346\3477\017\316o\234s\213r\322F\3533\003q\037"
 423      0FCE6F9C 
 423      738B72D2 
 423      46EB3303 
 423      711F
 424 0570 E31CBA76 		.ascii	"\343\034\272v\240\202\235)s\265\033\347\266\007\347"
 424      A0829D29 
 424      73B51BE7 
 424      B607E7
 425 057f 36E78C30 		.ascii	"6\347\2140?\351\337Z\003\361]\306)\330w\267r\026\343"
 425      3FE9DF5A 
 425      03F15DC6 
 425      29D877B7 
 425      7216E3
 426 0592 B4942A4B 		.ascii	"\264\224*K6s\0169e\243n\007s\224S\356P\312@z_\233\277"
 426      36730E39 
 426      65A36E07 
 426      739453EE 
 426      50CA407A 
 427 05a9 7830C913 		.ascii	"x0\311\023\344\224\034\343\337\032c\364[#s\347\211\333"
 427      E4941CE3 
 427      DF1A63F4 
 427      5B2373E7 
 427      89DB
 428 05bb 5A9CA9A5 		.ascii	"Z\234\251\245\037F\226\343\331Sz\376)a7\345\335X\221"
 428      1F4696E3 
 428      D9537AFE 
 428      296137E5 
 428      DD5891
 429 05ce A62C41E3 		.ascii	"\246,A\343 hw~N@\0373\337\023\236\007\361\256\367\203"
 429      2068777E 
 429      4E401F33 
 429      DF139E07 
 429      F1AEF783 
 430 05e2 3874DD34 		.ascii	"8t\3354\345bi\334\345Y\231\340\226&\250\245\202\312"
 430      E56269DC 
 430      E55999E0 
 430      9626A8A5 
 430      82CA
 431 05f4 6DA93A31 		.ascii	"m\251:1\231l\2453y\222'O\322\344\357\246\247r5b\262"
 431      996CA533 
 431      7992274F 
 431      D2E4EFA6 
ARM GAS  C:\Users\victo\AppData\Local\Temp\ccYrPGMm.s 			page 33


 431      A7723562 
 432 0609 CD857C8F 		.ascii	"\315\205|\217'\223_mr|\242q\261\377\362w\336\017\217"
 432      27935F6D 
 432      727CA271 
 432      B1FFF277 
 432      DE0F8F
 433 061c 942296CB 		.ascii	"\224\"\226\313\211\262!\326(\307\255\211Y\237lX'\257"
 433      89B221D6 
 433      28C7AD89 
 433      599F6C58 
 433      27AF
 434 062e 8E8E591F 		.ascii	"\216\216Y\037\371\322\363\3536\0317m\220\223\026~*\371"
 434      F9D2F3EB 
 434      3619376D 
 434      9093167E 
 434      2AF9
 435 0640 93F41717 		.ascii	"\223\364\027\027=\276\":jM\324\2625Q\213\"c\022b7\312"
 435      3DBE223A 
 435      6A4DD4B2 
 435      35518B22 
 435      63126237 
 436 0655 31C65863 		.ascii	"1\306Xcr\322\202\205\253\275\003V;\323\327\304\274\265"
 436      72D28285 
 436      ABBD0356 
 436      3BD3D7C4 
 436      BCB5
 437 0667 F483D717 		.ascii	"\364\203\327\027\256\223\236uCD&\310\261\206\225rl\034"
 437      AE939E75 
 437      434426C8 
 437      B1869572 
 437      6C1C
 438 0679 63CDF576 		.ascii	"c\315\365v\373CC\274\221k=\351\356@6.\215\2133\310I"
 438      FB4343BC 
 438      916B3DE9 
 438      EE40362E 
 438      8D8B33C8 
 439 068e 49CFF8BC 		.ascii	"I\317\370\274\363vl\322ganw\243\022\343\215D\365\325"
 439      F3766CD2 
 439      67616E77 
 439      A312E38D 
 439      44F5D5
 440 06a1 E48F9FF2 		.ascii	"\344\217\237\362r\213*\302=w\350rY\255\212\211\377J"
 440      728B2AC2 
 440      3D77E872 
 440      59AD8A89 
 440      FF4A
 441 06b3 76EF05EE 		.ascii	"v\357\005\356\252\205\344\266;x\246U\270\377\264\317"
 441      AA85E4B6 
 441      3B78A655 
 441      B8FFB4CF 
 442 06c3 3EE16670 		.ascii	">\341fp\344\246\250D\343\353\211\261k\023\344\271>\366"
 442      E4A6A844 
 442      E3EB89B1 
 442      6B13E4B9 
 442      3EF6
 443 06d5 2672D35B 		.ascii	"&r\323[\361kag\3644\367\265\370$\222\034\312\251I\011"
 443      F16B6167 
ARM GAS  C:\Users\victo\AppData\Local\Temp\ccYrPGMm.s 			page 34


 443      F434F7B5 
 443      F824921C 
 443      CAA94909 
 444 06e9 6CB51E9E 		.ascii	"l\265\036\236\031\257$\242\321F\303#\2563\304\346\243"
 444      19AF24A2 
 444      D146C323 
 444      AE33C4E6 
 444      A3
 445 06fa AE535189 		.ascii	"\256SQ\211q\362\227\263\275\314\275\367\371\006'\357"
 445      71F297B3 
 445      BDCCBDF7 
 445      F90627EF 
 446 070a 43833B8F 		.ascii	"C\203;\217\316\270\362\350\224\033\357\335\215\262a"
 446      CEB8F2E8 
 446      941BEFDD 
 446      8DB261
 447 0719 59C2FA2F 		.ascii	"Y\302\372/\"\327''\032\265\006\371\223\027\027\375\005"
 447      22D72727 
 447      1AB506F9 
 447      931717FD 
 447      05
 448 072a 7B468197 		.ascii	"{F\201\227"
 449              		.text
 450              		.section	.gnu.lto_.symtab.92f67c21,"",%progbits
 451 0000 4850495F 		.ascii	"HPI_IF_I2CSlaveStatus\000\000\000\000\000\000\000\000"
 451      49465F49 
 451      3243536C 
 451      61766553 
 451      74617475 
 452 001d 00000000 		.ascii	"\000\000\000\000\271\000\000\000HPI_IF_slStatus\000"
 452      B9000000 
 452      4850495F 
 452      49465F73 
 452      6C537461 
 453 0035 00040001 		.ascii	"\000\004\000\001\000\000\000\000\000\000\000\334\000"
 453      00000000 
 453      000000DC 
 453      00
 454 0042 00004850 		.ascii	"\000\000HPI_IF_I2CSlaveClearReadStatus\000\000\000\000"
 454      495F4946 
 454      5F493243 
 454      536C6176 
 454      65436C65 
 455 0066 00000000 		.ascii	"\000\000\000\000\000\000\000\000\273\000\000\000HPI"
 455      00000000 
 455      BB000000 
 455      485049
 456 0075 5F49465F 		.ascii	"_IF_I2CSlaveClearWriteStatus\000\000\000\000\000\000"
 456      49324353 
 456      6C617665 
 456      436C6561 
 456      72577269 
 457 0097 00000000 		.ascii	"\000\000\000\000\000\000\275\000\000\000HPI_IF_I2CS"
 457      0000BD00 
 457      00004850 
 457      495F4946 
 457      5F493243 
ARM GAS  C:\Users\victo\AppData\Local\Temp\ccYrPGMm.s 			page 35


 458 00ac 6C617665 		.ascii	"laveSetAddress\000\000\000\000\000\000\000\000\000\000"
 458      53657441 
 458      64647265 
 458      73730000 
 458      00000000 
 459 00c4 0000C100 		.ascii	"\000\000\301\000\000\000HPI_IF_I2CSlaveSetAddressMa"
 459      00004850 
 459      495F4946 
 459      5F493243 
 459      536C6176 
 460 00e5 736B0000 		.ascii	"sk\000\000\000\000\000\000\000\000\000\000\000\000\303"
 460      00000000 
 460      00000000 
 460      0000C3
 461 00f4 00000048 		.ascii	"\000\000\000HPI_IF_I2CSlaveInitReadBuf\000\000\000\000"
 461      50495F49 
 461      465F4932 
 461      43536C61 
 461      7665496E 
 462 0115 00000000 		.ascii	"\000\000\000\000\000\000\000\000\310\000\000\000HPI"
 462      00000000 
 462      C8000000 
 462      485049
 463 0124 5F49465F 		.ascii	"_IF_slRdBufPtr\000\000\004\000\004\000\000\000\000\000"
 463      736C5264 
 463      42756650 
 463      74720000 
 463      04000400 
 464 013c 0000DF00 		.ascii	"\000\000\337\000\000\000HPI_IF_slRdBufSize\000\000\004"
 464      00004850 
 464      495F4946 
 464      5F736C52 
 464      64427566 
 465 0157 00040000 		.ascii	"\000\004\000\000\000\000\000\000\000\342\000\000\000"
 465      00000000 
 465      00E20000 
 465      00
 466 0164 4850495F 		.ascii	"HPI_IF_slRdBufIndex\000\000\004\000\004\000\000\000"
 466      49465F73 
 466      6C526442 
 466      7566496E 
 466      64657800 
 467 017f 00000000 		.ascii	"\000\000\000\000\344\000\000\000HPI_IF_slRdBufIndex"
 467      E4000000 
 467      4850495F 
 467      49465F73 
 467      6C526442 
 468 019a 546D7000 		.ascii	"Tmp\000\000\004\000\004\000\000\000\000\000\000\000"
 468      00040004 
 468      00000000 
 468      000000
 469 01a9 E6000000 		.ascii	"\346\000\000\000HPI_IF_I2CSlaveInitWriteBuf\000\000"
 469      4850495F 
 469      49465F49 
 469      3243536C 
 469      61766549 
 470 01ca 00000000 		.ascii	"\000\000\000\000\000\000\000\000\000\000\312\000\000"
ARM GAS  C:\Users\victo\AppData\Local\Temp\ccYrPGMm.s 			page 36


 470      00000000 
 470      0000CA00 
 470      00
 471 01d7 00485049 		.ascii	"\000HPI_IF_slWrBufPtr\000\000\004\000\004\000\000\000"
 471      5F49465F 
 471      736C5772 
 471      42756650 
 471      74720000 
 472 01f1 00000000 		.ascii	"\000\000\000\000\350\000\000\000HPI_IF_slWrBufSize\000"
 472      E8000000 
 472      4850495F 
 472      49465F73 
 472      6C577242 
 473 020c 00040004 		.ascii	"\000\004\000\004\000\000\000\000\000\000\000\352\000"
 473      00000000 
 473      000000EA 
 473      00
 474 0219 00004850 		.ascii	"\000\000HPI_IF_slWrBufIndex\000\000\004\000\004\000"
 474      495F4946 
 474      5F736C57 
 474      72427566 
 474      496E6465 
 475 0234 00000000 		.ascii	"\000\000\000\000\000\000\354\000\000\000HPI_IF_I2CS"
 475      0000EC00 
 475      00004850 
 475      495F4946 
 475      5F493243 
 476 0249 6C617665 		.ascii	"laveGetReadBufSize\000\000\000\000\000\000\000\000\000"
 476      47657452 
 476      65616442 
 476      75665369 
 476      7A650000 
 477 0264 000000CC 		.ascii	"\000\000\000\314\000\000\000HPI_IF_I2CSlaveGetWrite"
 477      00000048 
 477      50495F49 
 477      465F4932 
 477      43536C61 
 478 0282 42756653 		.ascii	"BufSize\000\000\000\000\000\000\000\000\000\000\000"
 478      697A6500 
 478      00000000 
 478      00000000 
 478      0000
 479 0294 00CE0000 		.ascii	"\000\316\000\000\000HPI_IF_I2CSlaveClearReadBuf\000"
 479      00485049 
 479      5F49465F 
 479      49324353 
 479      6C617665 
 480 02b5 00000000 		.ascii	"\000\000\000\000\000\000\000\000\000\000\000\321\000"
 480      00000000 
 480      000000D1 
 480      00
 481 02c2 00004850 		.ascii	"\000\000HPI_IF_I2CSlaveClearWriteBuf\000\000\000\000"
 481      495F4946 
 481      5F493243 
 481      536C6176 
 481      65436C65 
 482 02e4 00000000 		.ascii	"\000\000\000\000\000\000\000\000\323\000\000\000HPI"
ARM GAS  C:\Users\victo\AppData\Local\Temp\ccYrPGMm.s 			page 37


 482      00000000 
 482      D3000000 
 482      485049
 483 02f3 5F49465F 		.ascii	"_IF_slOverFlowCount\000\000\004\000\001\000\000\000"
 483      736C4F76 
 483      6572466C 
 483      6F77436F 
 483      756E7400 
 484 030e 00000000 		.ascii	"\000\000\000\000\356\000\000\000CyIntEnable\000\000"
 484      EE000000 
 484      4379496E 
 484      74456E61 
 484      626C6500 
 485 0323 02000000 		.ascii	"\002\000\000\000\000\000\000\000\000\000\327\000\000"
 485      00000000 
 485      0000D700 
 485      00
 486 0330 00437949 		.ascii	"\000CyIntDisable\000\000\002\000\000\000\000\000\000"
 486      6E744469 
 486      7361626C 
 486      65000002 
 486      00000000 
 487 0346 000000D9 		.ascii	"\000\000\000\331\000\000\000"
 487      000000
 488              		.text
 489              		.section	.gnu.lto_.opts,"",%progbits
 490 0000 272D666E 		.ascii	"'-fno-trapv' '-mcpu=cortex-m0' '-mthumb' '-g' '-Os'"
 490      6F2D7472 
 490      61707627 
 490      20272D6D 
 490      6370753D 
 491 0033 20272D57 		.ascii	" '-Werror' '-ffunction-sections' '-finline-function"
 491      6572726F 
 491      72272027 
 491      2D666675 
 491      6E637469 
 492 0066 73272027 		.ascii	"s' '-flto' '-ffat-lto-objects' '-fno-strict-aliasin"
 492      2D666C74 
 492      6F272027 
 492      2D666661 
 492      742D6C74 
 493 0099 672700   		.ascii	"g'\000"
 494              		.text
 495              		.cfi_sections	.debug_frame
 496              		.section	.text.HPI_IF_I2CSlaveStatus,"ax",%progbits
 497              		.align	1
 498              		.global	HPI_IF_I2CSlaveStatus
 499              		.code	16
 500              		.thumb_func
 501              		.type	HPI_IF_I2CSlaveStatus, %function
 502              	HPI_IF_I2CSlaveStatus:
 503              	.LFB0:
 504              		.file 1 ".\\Generated_Source\\PSoC4\\HPI_IF_I2C_SLAVE.c"
   1:.\Generated_Source\PSoC4/HPI_IF_I2C_SLAVE.c **** /*******************************************************************************
   2:.\Generated_Source\PSoC4/HPI_IF_I2C_SLAVE.c **** * File Name: HPI_IF_I2C_SLAVE.c
   3:.\Generated_Source\PSoC4/HPI_IF_I2C_SLAVE.c **** * Version 3.10
   4:.\Generated_Source\PSoC4/HPI_IF_I2C_SLAVE.c **** *
ARM GAS  C:\Users\victo\AppData\Local\Temp\ccYrPGMm.s 			page 38


   5:.\Generated_Source\PSoC4/HPI_IF_I2C_SLAVE.c **** * Description:
   6:.\Generated_Source\PSoC4/HPI_IF_I2C_SLAVE.c **** *  This file provides the source code to the API for the SCB Component in
   7:.\Generated_Source\PSoC4/HPI_IF_I2C_SLAVE.c **** *  I2C Slave mode.
   8:.\Generated_Source\PSoC4/HPI_IF_I2C_SLAVE.c **** *
   9:.\Generated_Source\PSoC4/HPI_IF_I2C_SLAVE.c **** * Note:
  10:.\Generated_Source\PSoC4/HPI_IF_I2C_SLAVE.c **** *
  11:.\Generated_Source\PSoC4/HPI_IF_I2C_SLAVE.c **** *******************************************************************************
  12:.\Generated_Source\PSoC4/HPI_IF_I2C_SLAVE.c **** * Copyright 2013-2015, Cypress Semiconductor Corporation.  All rights reserved.
  13:.\Generated_Source\PSoC4/HPI_IF_I2C_SLAVE.c **** * You may use this file only in accordance with the license, terms, conditions,
  14:.\Generated_Source\PSoC4/HPI_IF_I2C_SLAVE.c **** * disclaimers, and limitations in the end user license agreement accompanying
  15:.\Generated_Source\PSoC4/HPI_IF_I2C_SLAVE.c **** * the software package with which this file was provided.
  16:.\Generated_Source\PSoC4/HPI_IF_I2C_SLAVE.c **** *******************************************************************************/
  17:.\Generated_Source\PSoC4/HPI_IF_I2C_SLAVE.c **** 
  18:.\Generated_Source\PSoC4/HPI_IF_I2C_SLAVE.c **** #include "HPI_IF_I2C_PVT.h"
  19:.\Generated_Source\PSoC4/HPI_IF_I2C_SLAVE.c **** 
  20:.\Generated_Source\PSoC4/HPI_IF_I2C_SLAVE.c **** #if(HPI_IF_I2C_SLAVE_CONST)
  21:.\Generated_Source\PSoC4/HPI_IF_I2C_SLAVE.c **** 
  22:.\Generated_Source\PSoC4/HPI_IF_I2C_SLAVE.c **** /***************************************
  23:.\Generated_Source\PSoC4/HPI_IF_I2C_SLAVE.c **** *      I2C Slave Private Vars
  24:.\Generated_Source\PSoC4/HPI_IF_I2C_SLAVE.c **** ***************************************/
  25:.\Generated_Source\PSoC4/HPI_IF_I2C_SLAVE.c **** 
  26:.\Generated_Source\PSoC4/HPI_IF_I2C_SLAVE.c **** volatile uint8 HPI_IF_slStatus;          /* Slave Status */
  27:.\Generated_Source\PSoC4/HPI_IF_I2C_SLAVE.c **** 
  28:.\Generated_Source\PSoC4/HPI_IF_I2C_SLAVE.c **** /* Receive buffer variables */
  29:.\Generated_Source\PSoC4/HPI_IF_I2C_SLAVE.c **** volatile uint8 * HPI_IF_slWrBufPtr;      /* Pointer to Receive buffer  */
  30:.\Generated_Source\PSoC4/HPI_IF_I2C_SLAVE.c **** volatile uint32  HPI_IF_slWrBufSize;     /* Slave Receive buffer size  */
  31:.\Generated_Source\PSoC4/HPI_IF_I2C_SLAVE.c **** volatile uint32  HPI_IF_slWrBufIndex;    /* Slave Receive buffer Index */
  32:.\Generated_Source\PSoC4/HPI_IF_I2C_SLAVE.c **** 
  33:.\Generated_Source\PSoC4/HPI_IF_I2C_SLAVE.c **** /* Transmit buffer variables */
  34:.\Generated_Source\PSoC4/HPI_IF_I2C_SLAVE.c **** volatile uint8 * HPI_IF_slRdBufPtr;      /* Pointer to Transmit buffer  */
  35:.\Generated_Source\PSoC4/HPI_IF_I2C_SLAVE.c **** volatile uint32  HPI_IF_slRdBufSize;     /* Slave Transmit buffer size  */
  36:.\Generated_Source\PSoC4/HPI_IF_I2C_SLAVE.c **** volatile uint32  HPI_IF_slRdBufIndex;    /* Slave Transmit buffer Index */
  37:.\Generated_Source\PSoC4/HPI_IF_I2C_SLAVE.c **** volatile uint32  HPI_IF_slRdBufIndexTmp; /* Slave Transmit buffer Index Tmp */
  38:.\Generated_Source\PSoC4/HPI_IF_I2C_SLAVE.c **** volatile uint8   HPI_IF_slOverFlowCount; /* Slave Transmit Overflow counter */
  39:.\Generated_Source\PSoC4/HPI_IF_I2C_SLAVE.c **** 
  40:.\Generated_Source\PSoC4/HPI_IF_I2C_SLAVE.c **** #if (HPI_IF_I2C_CUSTOM_ADDRESS_HANDLER_CONST)
  41:.\Generated_Source\PSoC4/HPI_IF_I2C_SLAVE.c **** 
  42:.\Generated_Source\PSoC4/HPI_IF_I2C_SLAVE.c ****     uint32 (*HPI_IF_customAddressHandler)(void) = NULL;
  43:.\Generated_Source\PSoC4/HPI_IF_I2C_SLAVE.c **** 
  44:.\Generated_Source\PSoC4/HPI_IF_I2C_SLAVE.c **** 
  45:.\Generated_Source\PSoC4/HPI_IF_I2C_SLAVE.c ****     /*******************************************************************************
  46:.\Generated_Source\PSoC4/HPI_IF_I2C_SLAVE.c ****     * Function Name: HPI_IF_SetI2cAddressCustomInterruptHandler
  47:.\Generated_Source\PSoC4/HPI_IF_I2C_SLAVE.c ****     ********************************************************************************
  48:.\Generated_Source\PSoC4/HPI_IF_I2C_SLAVE.c ****     *
  49:.\Generated_Source\PSoC4/HPI_IF_I2C_SLAVE.c ****     * Summary:
  50:.\Generated_Source\PSoC4/HPI_IF_I2C_SLAVE.c ****     *  Registers a function to be called by the I2C slave interrupt handler during
  51:.\Generated_Source\PSoC4/HPI_IF_I2C_SLAVE.c ****     *  the I2C interrupt address processing. This function should be used when
  52:.\Generated_Source\PSoC4/HPI_IF_I2C_SLAVE.c ****     *  multiple I2C addresses need to be decoded or general call address supported.
  53:.\Generated_Source\PSoC4/HPI_IF_I2C_SLAVE.c ****     *  The registered function must return decision whether to ACK or NACK address.
  54:.\Generated_Source\PSoC4/HPI_IF_I2C_SLAVE.c ****     *  Only one I2C address handler is supported, which is the function provided
  55:.\Generated_Source\PSoC4/HPI_IF_I2C_SLAVE.c ****     *  by the most recent call.
  56:.\Generated_Source\PSoC4/HPI_IF_I2C_SLAVE.c ****     *  At initialization time no I2C address handler is registered.
  57:.\Generated_Source\PSoC4/HPI_IF_I2C_SLAVE.c ****     *
  58:.\Generated_Source\PSoC4/HPI_IF_I2C_SLAVE.c ****     * Parameters:
  59:.\Generated_Source\PSoC4/HPI_IF_I2C_SLAVE.c ****     *  func: Pointer to the function to register.
  60:.\Generated_Source\PSoC4/HPI_IF_I2C_SLAVE.c ****     *        The value NULL indicates to remove the current custom interrupt
  61:.\Generated_Source\PSoC4/HPI_IF_I2C_SLAVE.c ****     *        handler.
ARM GAS  C:\Users\victo\AppData\Local\Temp\ccYrPGMm.s 			page 39


  62:.\Generated_Source\PSoC4/HPI_IF_I2C_SLAVE.c ****     *
  63:.\Generated_Source\PSoC4/HPI_IF_I2C_SLAVE.c ****     * Return:
  64:.\Generated_Source\PSoC4/HPI_IF_I2C_SLAVE.c ****     *  None
  65:.\Generated_Source\PSoC4/HPI_IF_I2C_SLAVE.c ****     *
  66:.\Generated_Source\PSoC4/HPI_IF_I2C_SLAVE.c ****     *******************************************************************************/
  67:.\Generated_Source\PSoC4/HPI_IF_I2C_SLAVE.c ****     void HPI_IF_SetI2cAddressCustomInterruptHandler(uint32 (*func) (void))
  68:.\Generated_Source\PSoC4/HPI_IF_I2C_SLAVE.c ****     {
  69:.\Generated_Source\PSoC4/HPI_IF_I2C_SLAVE.c ****         /* Register custom address handler */
  70:.\Generated_Source\PSoC4/HPI_IF_I2C_SLAVE.c ****         HPI_IF_customAddressHandler = func;
  71:.\Generated_Source\PSoC4/HPI_IF_I2C_SLAVE.c ****     }
  72:.\Generated_Source\PSoC4/HPI_IF_I2C_SLAVE.c **** #endif /* (HPI_IF_I2C_CUSTOM_ADDRESS_HANDLER_CONST) */
  73:.\Generated_Source\PSoC4/HPI_IF_I2C_SLAVE.c **** 
  74:.\Generated_Source\PSoC4/HPI_IF_I2C_SLAVE.c **** 
  75:.\Generated_Source\PSoC4/HPI_IF_I2C_SLAVE.c **** /*******************************************************************************
  76:.\Generated_Source\PSoC4/HPI_IF_I2C_SLAVE.c **** * Function Name: HPI_IF_I2CSlaveStatus
  77:.\Generated_Source\PSoC4/HPI_IF_I2C_SLAVE.c **** ********************************************************************************
  78:.\Generated_Source\PSoC4/HPI_IF_I2C_SLAVE.c **** *
  79:.\Generated_Source\PSoC4/HPI_IF_I2C_SLAVE.c **** * Summary:
  80:.\Generated_Source\PSoC4/HPI_IF_I2C_SLAVE.c **** *  Returns the I2C slave's communication status.
  81:.\Generated_Source\PSoC4/HPI_IF_I2C_SLAVE.c **** *
  82:.\Generated_Source\PSoC4/HPI_IF_I2C_SLAVE.c **** * Parameters:
  83:.\Generated_Source\PSoC4/HPI_IF_I2C_SLAVE.c **** *  None
  84:.\Generated_Source\PSoC4/HPI_IF_I2C_SLAVE.c **** *
  85:.\Generated_Source\PSoC4/HPI_IF_I2C_SLAVE.c **** * Return:
  86:.\Generated_Source\PSoC4/HPI_IF_I2C_SLAVE.c **** *  Current status of I2C slave.
  87:.\Generated_Source\PSoC4/HPI_IF_I2C_SLAVE.c **** *
  88:.\Generated_Source\PSoC4/HPI_IF_I2C_SLAVE.c **** * Global variables:
  89:.\Generated_Source\PSoC4/HPI_IF_I2C_SLAVE.c **** *  HPI_IF_slStatus - used to store current status of I2C slave.
  90:.\Generated_Source\PSoC4/HPI_IF_I2C_SLAVE.c **** *
  91:.\Generated_Source\PSoC4/HPI_IF_I2C_SLAVE.c **** *******************************************************************************/
  92:.\Generated_Source\PSoC4/HPI_IF_I2C_SLAVE.c **** uint32 HPI_IF_I2CSlaveStatus(void)
  93:.\Generated_Source\PSoC4/HPI_IF_I2C_SLAVE.c **** {
 505              		.loc 1 93 0
 506              		.cfi_startproc
  94:.\Generated_Source\PSoC4/HPI_IF_I2C_SLAVE.c ****     return((uint32) HPI_IF_slStatus);
 507              		.loc 1 94 0
 508 0000 014B     		ldr	r3, .L2
  95:.\Generated_Source\PSoC4/HPI_IF_I2C_SLAVE.c **** }
 509              		.loc 1 95 0
 510              		@ sp needed
  94:.\Generated_Source\PSoC4/HPI_IF_I2C_SLAVE.c ****     return((uint32) HPI_IF_slStatus);
 511              		.loc 1 94 0
 512 0002 1878     		ldrb	r0, [r3]
 513 0004 C0B2     		uxtb	r0, r0
 514              		.loc 1 95 0
 515 0006 7047     		bx	lr
 516              	.L3:
 517              		.align	2
 518              	.L2:
 519 0008 00000000 		.word	HPI_IF_slStatus
 520              		.cfi_endproc
 521              	.LFE0:
 522              		.size	HPI_IF_I2CSlaveStatus, .-HPI_IF_I2CSlaveStatus
 523              		.section	.text.HPI_IF_I2CSlaveClearReadStatus,"ax",%progbits
 524              		.align	1
 525              		.global	HPI_IF_I2CSlaveClearReadStatus
 526              		.code	16
ARM GAS  C:\Users\victo\AppData\Local\Temp\ccYrPGMm.s 			page 40


 527              		.thumb_func
 528              		.type	HPI_IF_I2CSlaveClearReadStatus, %function
 529              	HPI_IF_I2CSlaveClearReadStatus:
 530              	.LFB1:
  96:.\Generated_Source\PSoC4/HPI_IF_I2C_SLAVE.c **** 
  97:.\Generated_Source\PSoC4/HPI_IF_I2C_SLAVE.c **** 
  98:.\Generated_Source\PSoC4/HPI_IF_I2C_SLAVE.c **** /*******************************************************************************
  99:.\Generated_Source\PSoC4/HPI_IF_I2C_SLAVE.c **** * Function Name: HPI_IF_I2CSlaveClearReadStatus
 100:.\Generated_Source\PSoC4/HPI_IF_I2C_SLAVE.c **** ********************************************************************************
 101:.\Generated_Source\PSoC4/HPI_IF_I2C_SLAVE.c **** *
 102:.\Generated_Source\PSoC4/HPI_IF_I2C_SLAVE.c **** * Summary:
 103:.\Generated_Source\PSoC4/HPI_IF_I2C_SLAVE.c **** *  Clears the read status flags and returns their values. No other status flags
 104:.\Generated_Source\PSoC4/HPI_IF_I2C_SLAVE.c **** *  are affected.
 105:.\Generated_Source\PSoC4/HPI_IF_I2C_SLAVE.c **** *
 106:.\Generated_Source\PSoC4/HPI_IF_I2C_SLAVE.c **** * Parameters:
 107:.\Generated_Source\PSoC4/HPI_IF_I2C_SLAVE.c **** *  None
 108:.\Generated_Source\PSoC4/HPI_IF_I2C_SLAVE.c **** *
 109:.\Generated_Source\PSoC4/HPI_IF_I2C_SLAVE.c **** * Return:
 110:.\Generated_Source\PSoC4/HPI_IF_I2C_SLAVE.c **** *  Current read status of I2C slave.
 111:.\Generated_Source\PSoC4/HPI_IF_I2C_SLAVE.c **** *
 112:.\Generated_Source\PSoC4/HPI_IF_I2C_SLAVE.c **** * Global variables:
 113:.\Generated_Source\PSoC4/HPI_IF_I2C_SLAVE.c **** *  HPI_IF_slStatus  - used to store current status of I2C slave.
 114:.\Generated_Source\PSoC4/HPI_IF_I2C_SLAVE.c **** *
 115:.\Generated_Source\PSoC4/HPI_IF_I2C_SLAVE.c **** *******************************************************************************/
 116:.\Generated_Source\PSoC4/HPI_IF_I2C_SLAVE.c **** uint32 HPI_IF_I2CSlaveClearReadStatus(void)
 117:.\Generated_Source\PSoC4/HPI_IF_I2C_SLAVE.c **** {
 531              		.loc 1 117 0
 532              		.cfi_startproc
 533 0000 10B5     		push	{r4, lr}
 534              		.cfi_def_cfa_offset 8
 535              		.cfi_offset 4, -8
 536              		.cfi_offset 14, -4
 118:.\Generated_Source\PSoC4/HPI_IF_I2C_SLAVE.c ****     uint32 status;
 119:.\Generated_Source\PSoC4/HPI_IF_I2C_SLAVE.c **** 
 120:.\Generated_Source\PSoC4/HPI_IF_I2C_SLAVE.c ****     HPI_IF_DisableInt();  /* Lock from interruption */
 537              		.loc 1 120 0
 538 0002 0920     		mov	r0, #9
 539 0004 FFF7FEFF 		bl	CyIntDisable
 540              	.LVL0:
 121:.\Generated_Source\PSoC4/HPI_IF_I2C_SLAVE.c **** 
 122:.\Generated_Source\PSoC4/HPI_IF_I2C_SLAVE.c ****     /* Mask of transfer complete flag and error status */
 123:.\Generated_Source\PSoC4/HPI_IF_I2C_SLAVE.c ****     status = ((uint32) HPI_IF_slStatus & HPI_IF_I2C_SSTAT_RD_MASK);
 124:.\Generated_Source\PSoC4/HPI_IF_I2C_SLAVE.c ****     HPI_IF_slStatus &= (uint8) ~HPI_IF_I2C_SSTAT_RD_CLEAR;
 541              		.loc 1 124 0
 542 0008 0D21     		mov	r1, #13
 123:.\Generated_Source\PSoC4/HPI_IF_I2C_SLAVE.c ****     HPI_IF_slStatus &= (uint8) ~HPI_IF_I2C_SSTAT_RD_CLEAR;
 543              		.loc 1 123 0
 544 000a 064B     		ldr	r3, .L5
 125:.\Generated_Source\PSoC4/HPI_IF_I2C_SLAVE.c **** 
 126:.\Generated_Source\PSoC4/HPI_IF_I2C_SLAVE.c ****     HPI_IF_EnableInt();   /* Release lock */
 127:.\Generated_Source\PSoC4/HPI_IF_I2C_SLAVE.c **** 
 128:.\Generated_Source\PSoC4/HPI_IF_I2C_SLAVE.c ****     return(status);
 129:.\Generated_Source\PSoC4/HPI_IF_I2C_SLAVE.c **** }
 545              		.loc 1 129 0
 546              		@ sp needed
 123:.\Generated_Source\PSoC4/HPI_IF_I2C_SLAVE.c ****     HPI_IF_slStatus &= (uint8) ~HPI_IF_I2C_SSTAT_RD_CLEAR;
 547              		.loc 1 123 0
ARM GAS  C:\Users\victo\AppData\Local\Temp\ccYrPGMm.s 			page 41


 548 000c 1878     		ldrb	r0, [r3]
 124:.\Generated_Source\PSoC4/HPI_IF_I2C_SLAVE.c **** 
 549              		.loc 1 124 0
 550 000e 1A78     		ldrb	r2, [r3]
 123:.\Generated_Source\PSoC4/HPI_IF_I2C_SLAVE.c ****     HPI_IF_slStatus &= (uint8) ~HPI_IF_I2C_SSTAT_RD_CLEAR;
 551              		.loc 1 123 0
 552 0010 C4B2     		uxtb	r4, r0
 553              	.LVL1:
 124:.\Generated_Source\PSoC4/HPI_IF_I2C_SLAVE.c **** 
 554              		.loc 1 124 0
 555 0012 8A43     		bic	r2, r1
 126:.\Generated_Source\PSoC4/HPI_IF_I2C_SLAVE.c **** 
 556              		.loc 1 126 0
 557 0014 0920     		mov	r0, #9
 124:.\Generated_Source\PSoC4/HPI_IF_I2C_SLAVE.c **** 
 558              		.loc 1 124 0
 559 0016 1A70     		strb	r2, [r3]
 126:.\Generated_Source\PSoC4/HPI_IF_I2C_SLAVE.c **** 
 560              		.loc 1 126 0
 561 0018 FFF7FEFF 		bl	CyIntEnable
 562              	.LVL2:
 123:.\Generated_Source\PSoC4/HPI_IF_I2C_SLAVE.c ****     HPI_IF_slStatus &= (uint8) ~HPI_IF_I2C_SSTAT_RD_CLEAR;
 563              		.loc 1 123 0
 564 001c 0F20     		mov	r0, #15
 565 001e 2040     		and	r0, r4
 566              	.LVL3:
 567              		.loc 1 129 0
 568 0020 10BD     		pop	{r4, pc}
 569              	.L6:
 570 0022 C046     		.align	2
 571              	.L5:
 572 0024 00000000 		.word	HPI_IF_slStatus
 573              		.cfi_endproc
 574              	.LFE1:
 575              		.size	HPI_IF_I2CSlaveClearReadStatus, .-HPI_IF_I2CSlaveClearReadStatus
 576              		.section	.text.HPI_IF_I2CSlaveClearWriteStatus,"ax",%progbits
 577              		.align	1
 578              		.global	HPI_IF_I2CSlaveClearWriteStatus
 579              		.code	16
 580              		.thumb_func
 581              		.type	HPI_IF_I2CSlaveClearWriteStatus, %function
 582              	HPI_IF_I2CSlaveClearWriteStatus:
 583              	.LFB2:
 130:.\Generated_Source\PSoC4/HPI_IF_I2C_SLAVE.c **** 
 131:.\Generated_Source\PSoC4/HPI_IF_I2C_SLAVE.c **** 
 132:.\Generated_Source\PSoC4/HPI_IF_I2C_SLAVE.c **** /*******************************************************************************
 133:.\Generated_Source\PSoC4/HPI_IF_I2C_SLAVE.c **** * Function Name: HPI_IF_I2CSlaveClearWriteStatus
 134:.\Generated_Source\PSoC4/HPI_IF_I2C_SLAVE.c **** ********************************************************************************
 135:.\Generated_Source\PSoC4/HPI_IF_I2C_SLAVE.c **** *
 136:.\Generated_Source\PSoC4/HPI_IF_I2C_SLAVE.c **** * Summary:
 137:.\Generated_Source\PSoC4/HPI_IF_I2C_SLAVE.c **** *  Clears the write status flags and returns their values. No other status flags
 138:.\Generated_Source\PSoC4/HPI_IF_I2C_SLAVE.c **** *  are affected.
 139:.\Generated_Source\PSoC4/HPI_IF_I2C_SLAVE.c **** *
 140:.\Generated_Source\PSoC4/HPI_IF_I2C_SLAVE.c **** * Parameters:
 141:.\Generated_Source\PSoC4/HPI_IF_I2C_SLAVE.c **** *  None
 142:.\Generated_Source\PSoC4/HPI_IF_I2C_SLAVE.c **** *
 143:.\Generated_Source\PSoC4/HPI_IF_I2C_SLAVE.c **** * Return:
ARM GAS  C:\Users\victo\AppData\Local\Temp\ccYrPGMm.s 			page 42


 144:.\Generated_Source\PSoC4/HPI_IF_I2C_SLAVE.c **** *  Current write status of I2C slave.
 145:.\Generated_Source\PSoC4/HPI_IF_I2C_SLAVE.c **** *
 146:.\Generated_Source\PSoC4/HPI_IF_I2C_SLAVE.c **** * Global variables:
 147:.\Generated_Source\PSoC4/HPI_IF_I2C_SLAVE.c **** *  HPI_IF_slStatus  - used to store current status of I2C slave.
 148:.\Generated_Source\PSoC4/HPI_IF_I2C_SLAVE.c **** *
 149:.\Generated_Source\PSoC4/HPI_IF_I2C_SLAVE.c **** *******************************************************************************/
 150:.\Generated_Source\PSoC4/HPI_IF_I2C_SLAVE.c **** uint32 HPI_IF_I2CSlaveClearWriteStatus(void)
 151:.\Generated_Source\PSoC4/HPI_IF_I2C_SLAVE.c **** {
 584              		.loc 1 151 0
 585              		.cfi_startproc
 586 0000 10B5     		push	{r4, lr}
 587              		.cfi_def_cfa_offset 8
 588              		.cfi_offset 4, -8
 589              		.cfi_offset 14, -4
 152:.\Generated_Source\PSoC4/HPI_IF_I2C_SLAVE.c ****     uint32 status;
 153:.\Generated_Source\PSoC4/HPI_IF_I2C_SLAVE.c **** 
 154:.\Generated_Source\PSoC4/HPI_IF_I2C_SLAVE.c ****     HPI_IF_DisableInt();  /* Lock from interruption */
 590              		.loc 1 154 0
 591 0002 0920     		mov	r0, #9
 592 0004 FFF7FEFF 		bl	CyIntDisable
 593              	.LVL4:
 155:.\Generated_Source\PSoC4/HPI_IF_I2C_SLAVE.c **** 
 156:.\Generated_Source\PSoC4/HPI_IF_I2C_SLAVE.c ****     /* Mask of transfer complete flag and Error status */
 157:.\Generated_Source\PSoC4/HPI_IF_I2C_SLAVE.c ****     status = ((uint32) HPI_IF_slStatus & HPI_IF_I2C_SSTAT_WR_MASK);
 158:.\Generated_Source\PSoC4/HPI_IF_I2C_SLAVE.c ****     HPI_IF_slStatus &= (uint8) ~HPI_IF_I2C_SSTAT_WR_CLEAR;
 594              		.loc 1 158 0
 595 0008 2F22     		mov	r2, #47
 157:.\Generated_Source\PSoC4/HPI_IF_I2C_SLAVE.c ****     HPI_IF_slStatus &= (uint8) ~HPI_IF_I2C_SSTAT_WR_CLEAR;
 596              		.loc 1 157 0
 597 000a 064B     		ldr	r3, .L8
 159:.\Generated_Source\PSoC4/HPI_IF_I2C_SLAVE.c **** 
 160:.\Generated_Source\PSoC4/HPI_IF_I2C_SLAVE.c ****     HPI_IF_EnableInt();   /* Release lock */
 598              		.loc 1 160 0
 599 000c 0920     		mov	r0, #9
 157:.\Generated_Source\PSoC4/HPI_IF_I2C_SLAVE.c ****     HPI_IF_slStatus &= (uint8) ~HPI_IF_I2C_SSTAT_WR_CLEAR;
 600              		.loc 1 157 0
 601 000e 1C78     		ldrb	r4, [r3]
 158:.\Generated_Source\PSoC4/HPI_IF_I2C_SLAVE.c **** 
 602              		.loc 1 158 0
 603 0010 1978     		ldrb	r1, [r3]
 157:.\Generated_Source\PSoC4/HPI_IF_I2C_SLAVE.c ****     HPI_IF_slStatus &= (uint8) ~HPI_IF_I2C_SSTAT_WR_CLEAR;
 604              		.loc 1 157 0
 605 0012 E4B2     		uxtb	r4, r4
 606              	.LVL5:
 158:.\Generated_Source\PSoC4/HPI_IF_I2C_SLAVE.c **** 
 607              		.loc 1 158 0
 608 0014 0A40     		and	r2, r1
 609 0016 1A70     		strb	r2, [r3]
 610              		.loc 1 160 0
 611 0018 FFF7FEFF 		bl	CyIntEnable
 612              	.LVL6:
 157:.\Generated_Source\PSoC4/HPI_IF_I2C_SLAVE.c ****     HPI_IF_slStatus &= (uint8) ~HPI_IF_I2C_SSTAT_WR_CLEAR;
 613              		.loc 1 157 0
 614 001c 0F23     		mov	r3, #15
 615 001e 201C     		mov	r0, r4
 161:.\Generated_Source\PSoC4/HPI_IF_I2C_SLAVE.c **** 
 162:.\Generated_Source\PSoC4/HPI_IF_I2C_SLAVE.c ****     return(status);
ARM GAS  C:\Users\victo\AppData\Local\Temp\ccYrPGMm.s 			page 43


 163:.\Generated_Source\PSoC4/HPI_IF_I2C_SLAVE.c **** }
 616              		.loc 1 163 0
 617              		@ sp needed
 157:.\Generated_Source\PSoC4/HPI_IF_I2C_SLAVE.c ****     HPI_IF_slStatus &= (uint8) ~HPI_IF_I2C_SSTAT_WR_CLEAR;
 618              		.loc 1 157 0
 619 0020 9843     		bic	r0, r3
 620              	.LVL7:
 621              		.loc 1 163 0
 622 0022 10BD     		pop	{r4, pc}
 623              	.L9:
 624              		.align	2
 625              	.L8:
 626 0024 00000000 		.word	HPI_IF_slStatus
 627              		.cfi_endproc
 628              	.LFE2:
 629              		.size	HPI_IF_I2CSlaveClearWriteStatus, .-HPI_IF_I2CSlaveClearWriteStatus
 630              		.section	.text.HPI_IF_I2CSlaveSetAddress,"ax",%progbits
 631              		.align	1
 632              		.global	HPI_IF_I2CSlaveSetAddress
 633              		.code	16
 634              		.thumb_func
 635              		.type	HPI_IF_I2CSlaveSetAddress, %function
 636              	HPI_IF_I2CSlaveSetAddress:
 637              	.LFB3:
 164:.\Generated_Source\PSoC4/HPI_IF_I2C_SLAVE.c **** 
 165:.\Generated_Source\PSoC4/HPI_IF_I2C_SLAVE.c **** 
 166:.\Generated_Source\PSoC4/HPI_IF_I2C_SLAVE.c **** /*******************************************************************************
 167:.\Generated_Source\PSoC4/HPI_IF_I2C_SLAVE.c **** * Function Name: HPI_IF_I2CSlaveSetAddress
 168:.\Generated_Source\PSoC4/HPI_IF_I2C_SLAVE.c **** ********************************************************************************
 169:.\Generated_Source\PSoC4/HPI_IF_I2C_SLAVE.c **** *
 170:.\Generated_Source\PSoC4/HPI_IF_I2C_SLAVE.c **** * Summary:
 171:.\Generated_Source\PSoC4/HPI_IF_I2C_SLAVE.c **** *  Sets the I2C slave address.
 172:.\Generated_Source\PSoC4/HPI_IF_I2C_SLAVE.c **** *
 173:.\Generated_Source\PSoC4/HPI_IF_I2C_SLAVE.c **** * Parameters:
 174:.\Generated_Source\PSoC4/HPI_IF_I2C_SLAVE.c **** *  address: I2C slave address for the primary device. This value may be any
 175:.\Generated_Source\PSoC4/HPI_IF_I2C_SLAVE.c **** *  address between 0 and 127.
 176:.\Generated_Source\PSoC4/HPI_IF_I2C_SLAVE.c **** *
 177:.\Generated_Source\PSoC4/HPI_IF_I2C_SLAVE.c **** * Return:
 178:.\Generated_Source\PSoC4/HPI_IF_I2C_SLAVE.c **** *  None
 179:.\Generated_Source\PSoC4/HPI_IF_I2C_SLAVE.c **** *
 180:.\Generated_Source\PSoC4/HPI_IF_I2C_SLAVE.c **** *******************************************************************************/
 181:.\Generated_Source\PSoC4/HPI_IF_I2C_SLAVE.c **** void HPI_IF_I2CSlaveSetAddress(uint32 address)
 182:.\Generated_Source\PSoC4/HPI_IF_I2C_SLAVE.c **** {
 638              		.loc 1 182 0
 639              		.cfi_startproc
 640              	.LVL8:
 183:.\Generated_Source\PSoC4/HPI_IF_I2C_SLAVE.c ****     uint32 matchReg;
 184:.\Generated_Source\PSoC4/HPI_IF_I2C_SLAVE.c **** 
 185:.\Generated_Source\PSoC4/HPI_IF_I2C_SLAVE.c ****     matchReg = HPI_IF_RX_MATCH_REG;
 186:.\Generated_Source\PSoC4/HPI_IF_I2C_SLAVE.c **** 
 187:.\Generated_Source\PSoC4/HPI_IF_I2C_SLAVE.c ****     matchReg &= ((uint32) ~HPI_IF_RX_MATCH_ADDR_MASK); /* Clear address bits */
 641              		.loc 1 187 0
 642 0000 FF22     		mov	r2, #255
 185:.\Generated_Source\PSoC4/HPI_IF_I2C_SLAVE.c **** 
 643              		.loc 1 185 0
 644 0002 0449     		ldr	r1, .L11
 188:.\Generated_Source\PSoC4/HPI_IF_I2C_SLAVE.c ****     matchReg |= ((uint32)  HPI_IF_GET_I2C_8BIT_ADDRESS(address));
ARM GAS  C:\Users\victo\AppData\Local\Temp\ccYrPGMm.s 			page 44


 645              		.loc 1 188 0
 646 0004 4000     		lsl	r0, r0, #1
 647              	.LVL9:
 185:.\Generated_Source\PSoC4/HPI_IF_I2C_SLAVE.c **** 
 648              		.loc 1 185 0
 649 0006 0B68     		ldr	r3, [r1]
 650              	.LVL10:
 651              		.loc 1 188 0
 652 0008 1040     		and	r0, r2
 187:.\Generated_Source\PSoC4/HPI_IF_I2C_SLAVE.c ****     matchReg |= ((uint32)  HPI_IF_GET_I2C_8BIT_ADDRESS(address));
 653              		.loc 1 187 0
 654 000a 9343     		bic	r3, r2
 655              	.LVL11:
 656              		.loc 1 188 0
 657 000c 1843     		orr	r0, r3
 658              	.LVL12:
 189:.\Generated_Source\PSoC4/HPI_IF_I2C_SLAVE.c **** 
 190:.\Generated_Source\PSoC4/HPI_IF_I2C_SLAVE.c ****     HPI_IF_RX_MATCH_REG = matchReg;
 659              		.loc 1 190 0
 660 000e 0860     		str	r0, [r1]
 191:.\Generated_Source\PSoC4/HPI_IF_I2C_SLAVE.c **** }
 661              		.loc 1 191 0
 662              		@ sp needed
 663 0010 7047     		bx	lr
 664              	.L12:
 665 0012 C046     		.align	2
 666              	.L11:
 667 0014 10030540 		.word	1074070288
 668              		.cfi_endproc
 669              	.LFE3:
 670              		.size	HPI_IF_I2CSlaveSetAddress, .-HPI_IF_I2CSlaveSetAddress
 671              		.section	.text.HPI_IF_I2CSlaveSetAddressMask,"ax",%progbits
 672              		.align	1
 673              		.global	HPI_IF_I2CSlaveSetAddressMask
 674              		.code	16
 675              		.thumb_func
 676              		.type	HPI_IF_I2CSlaveSetAddressMask, %function
 677              	HPI_IF_I2CSlaveSetAddressMask:
 678              	.LFB4:
 192:.\Generated_Source\PSoC4/HPI_IF_I2C_SLAVE.c **** 
 193:.\Generated_Source\PSoC4/HPI_IF_I2C_SLAVE.c **** 
 194:.\Generated_Source\PSoC4/HPI_IF_I2C_SLAVE.c **** /*******************************************************************************
 195:.\Generated_Source\PSoC4/HPI_IF_I2C_SLAVE.c **** * Function Name: HPI_IF_I2CSlaveSetAddressMask
 196:.\Generated_Source\PSoC4/HPI_IF_I2C_SLAVE.c **** ********************************************************************************
 197:.\Generated_Source\PSoC4/HPI_IF_I2C_SLAVE.c **** *
 198:.\Generated_Source\PSoC4/HPI_IF_I2C_SLAVE.c **** * Summary:
 199:.\Generated_Source\PSoC4/HPI_IF_I2C_SLAVE.c **** *  Sets the I2C slave address mask.
 200:.\Generated_Source\PSoC4/HPI_IF_I2C_SLAVE.c **** *
 201:.\Generated_Source\PSoC4/HPI_IF_I2C_SLAVE.c **** * Parameters:
 202:.\Generated_Source\PSoC4/HPI_IF_I2C_SLAVE.c **** *  addressMask: Address mask.
 203:.\Generated_Source\PSoC4/HPI_IF_I2C_SLAVE.c **** *   0 - address bit does not care while comparison.
 204:.\Generated_Source\PSoC4/HPI_IF_I2C_SLAVE.c **** *   1 - address bit is significant while comparison.
 205:.\Generated_Source\PSoC4/HPI_IF_I2C_SLAVE.c **** *
 206:.\Generated_Source\PSoC4/HPI_IF_I2C_SLAVE.c **** * Return:
 207:.\Generated_Source\PSoC4/HPI_IF_I2C_SLAVE.c **** *  None
 208:.\Generated_Source\PSoC4/HPI_IF_I2C_SLAVE.c **** *
 209:.\Generated_Source\PSoC4/HPI_IF_I2C_SLAVE.c **** *******************************************************************************/
ARM GAS  C:\Users\victo\AppData\Local\Temp\ccYrPGMm.s 			page 45


 210:.\Generated_Source\PSoC4/HPI_IF_I2C_SLAVE.c **** void HPI_IF_I2CSlaveSetAddressMask(uint32 addressMask)
 211:.\Generated_Source\PSoC4/HPI_IF_I2C_SLAVE.c **** {
 679              		.loc 1 211 0
 680              		.cfi_startproc
 681              	.LVL13:
 212:.\Generated_Source\PSoC4/HPI_IF_I2C_SLAVE.c ****     uint32 matchReg;
 213:.\Generated_Source\PSoC4/HPI_IF_I2C_SLAVE.c **** 
 214:.\Generated_Source\PSoC4/HPI_IF_I2C_SLAVE.c ****     matchReg = HPI_IF_RX_MATCH_REG;
 682              		.loc 1 214 0
 683 0000 034A     		ldr	r2, .L14
 215:.\Generated_Source\PSoC4/HPI_IF_I2C_SLAVE.c **** 
 216:.\Generated_Source\PSoC4/HPI_IF_I2C_SLAVE.c ****     matchReg &= ((uint32) ~HPI_IF_RX_MATCH_MASK_MASK); /* Clear address mask bits */
 684              		.loc 1 216 0
 685 0002 044B     		ldr	r3, .L14+4
 214:.\Generated_Source\PSoC4/HPI_IF_I2C_SLAVE.c **** 
 686              		.loc 1 214 0
 687 0004 1168     		ldr	r1, [r2]
 688              	.LVL14:
 217:.\Generated_Source\PSoC4/HPI_IF_I2C_SLAVE.c ****     matchReg |= ((uint32) (addressMask << HPI_IF_RX_MATCH_MASK_POS));
 689              		.loc 1 217 0
 690 0006 0004     		lsl	r0, r0, #16
 691              	.LVL15:
 216:.\Generated_Source\PSoC4/HPI_IF_I2C_SLAVE.c ****     matchReg |= ((uint32) (addressMask << HPI_IF_RX_MATCH_MASK_POS));
 692              		.loc 1 216 0
 693 0008 0B40     		and	r3, r1
 694              	.LVL16:
 695              		.loc 1 217 0
 696 000a 1843     		orr	r0, r3
 697              	.LVL17:
 218:.\Generated_Source\PSoC4/HPI_IF_I2C_SLAVE.c **** 
 219:.\Generated_Source\PSoC4/HPI_IF_I2C_SLAVE.c ****     HPI_IF_RX_MATCH_REG = matchReg;
 698              		.loc 1 219 0
 699 000c 1060     		str	r0, [r2]
 220:.\Generated_Source\PSoC4/HPI_IF_I2C_SLAVE.c **** }
 700              		.loc 1 220 0
 701              		@ sp needed
 702 000e 7047     		bx	lr
 703              	.L15:
 704              		.align	2
 705              	.L14:
 706 0010 10030540 		.word	1074070288
 707 0014 FFFF00FF 		.word	-16711681
 708              		.cfi_endproc
 709              	.LFE4:
 710              		.size	HPI_IF_I2CSlaveSetAddressMask, .-HPI_IF_I2CSlaveSetAddressMask
 711              		.section	.text.HPI_IF_I2CSlaveInitReadBuf,"ax",%progbits
 712              		.align	1
 713              		.global	HPI_IF_I2CSlaveInitReadBuf
 714              		.code	16
 715              		.thumb_func
 716              		.type	HPI_IF_I2CSlaveInitReadBuf, %function
 717              	HPI_IF_I2CSlaveInitReadBuf:
 718              	.LFB5:
 221:.\Generated_Source\PSoC4/HPI_IF_I2C_SLAVE.c **** 
 222:.\Generated_Source\PSoC4/HPI_IF_I2C_SLAVE.c **** 
 223:.\Generated_Source\PSoC4/HPI_IF_I2C_SLAVE.c **** /*******************************************************************************
 224:.\Generated_Source\PSoC4/HPI_IF_I2C_SLAVE.c **** * Function Name: HPI_IF_I2CSlaveInitReadBuf
ARM GAS  C:\Users\victo\AppData\Local\Temp\ccYrPGMm.s 			page 46


 225:.\Generated_Source\PSoC4/HPI_IF_I2C_SLAVE.c **** ********************************************************************************
 226:.\Generated_Source\PSoC4/HPI_IF_I2C_SLAVE.c **** *
 227:.\Generated_Source\PSoC4/HPI_IF_I2C_SLAVE.c **** * Summary:
 228:.\Generated_Source\PSoC4/HPI_IF_I2C_SLAVE.c **** *  Sets the buffer pointer and size of the read buffer. This function also
 229:.\Generated_Source\PSoC4/HPI_IF_I2C_SLAVE.c **** *  resets the transfer count returned with the I2C_SlaveGetReadBufSize function.
 230:.\Generated_Source\PSoC4/HPI_IF_I2C_SLAVE.c **** *
 231:.\Generated_Source\PSoC4/HPI_IF_I2C_SLAVE.c **** * Parameters:
 232:.\Generated_Source\PSoC4/HPI_IF_I2C_SLAVE.c **** *  readBuf:  Pointer to the data buffer to be read by the master.
 233:.\Generated_Source\PSoC4/HPI_IF_I2C_SLAVE.c **** *  bufSize:  Size of the read buffer exposed to the I2C master.
 234:.\Generated_Source\PSoC4/HPI_IF_I2C_SLAVE.c **** *
 235:.\Generated_Source\PSoC4/HPI_IF_I2C_SLAVE.c **** * Return:
 236:.\Generated_Source\PSoC4/HPI_IF_I2C_SLAVE.c **** *  None
 237:.\Generated_Source\PSoC4/HPI_IF_I2C_SLAVE.c **** *
 238:.\Generated_Source\PSoC4/HPI_IF_I2C_SLAVE.c **** * Global variables:
 239:.\Generated_Source\PSoC4/HPI_IF_I2C_SLAVE.c **** *  HPI_IF_slRdBufPtr   - used to store pointer to slave read buffer.
 240:.\Generated_Source\PSoC4/HPI_IF_I2C_SLAVE.c **** *  HPI_IF_slRdBufSize  - used to store salve read buffer size.
 241:.\Generated_Source\PSoC4/HPI_IF_I2C_SLAVE.c **** *  HPI_IF_slRdBufIndex - used to store current index within slave
 242:.\Generated_Source\PSoC4/HPI_IF_I2C_SLAVE.c **** *  read buffer.
 243:.\Generated_Source\PSoC4/HPI_IF_I2C_SLAVE.c **** *
 244:.\Generated_Source\PSoC4/HPI_IF_I2C_SLAVE.c **** * Side Effects:
 245:.\Generated_Source\PSoC4/HPI_IF_I2C_SLAVE.c **** *  If this function is called during a bus transaction, data from the previous
 246:.\Generated_Source\PSoC4/HPI_IF_I2C_SLAVE.c **** *  buffer location and the beginning of current buffer may be transmitted.
 247:.\Generated_Source\PSoC4/HPI_IF_I2C_SLAVE.c **** *
 248:.\Generated_Source\PSoC4/HPI_IF_I2C_SLAVE.c **** *******************************************************************************/
 249:.\Generated_Source\PSoC4/HPI_IF_I2C_SLAVE.c **** void HPI_IF_I2CSlaveInitReadBuf(uint8 * rdBuf, uint32 bufSize)
 250:.\Generated_Source\PSoC4/HPI_IF_I2C_SLAVE.c **** {
 719              		.loc 1 250 0
 720              		.cfi_startproc
 721              	.LVL18:
 722 0000 38B5     		push	{r3, r4, r5, lr}
 723              		.cfi_def_cfa_offset 16
 724              		.cfi_offset 3, -16
 725              		.cfi_offset 4, -12
 726              		.cfi_offset 5, -8
 727              		.cfi_offset 14, -4
 251:.\Generated_Source\PSoC4/HPI_IF_I2C_SLAVE.c ****     /* Check for proper buffer */
 252:.\Generated_Source\PSoC4/HPI_IF_I2C_SLAVE.c ****     if(NULL != rdBuf)
 728              		.loc 1 252 0
 729 0002 0028     		cmp	r0, #0
 730 0004 10D0     		beq	.L16
 731 0006 041C     		mov	r4, r0
 732 0008 0D1C     		mov	r5, r1
 253:.\Generated_Source\PSoC4/HPI_IF_I2C_SLAVE.c ****     {
 254:.\Generated_Source\PSoC4/HPI_IF_I2C_SLAVE.c ****         HPI_IF_DisableInt();  /* Lock from interruption */
 733              		.loc 1 254 0
 734 000a 0920     		mov	r0, #9
 735              	.LVL19:
 736 000c FFF7FEFF 		bl	CyIntDisable
 737              	.LVL20:
 255:.\Generated_Source\PSoC4/HPI_IF_I2C_SLAVE.c **** 
 256:.\Generated_Source\PSoC4/HPI_IF_I2C_SLAVE.c ****         HPI_IF_slRdBufPtr      = (volatile uint8 *) rdBuf; /* Set buffer pointer  */
 738              		.loc 1 256 0
 739 0010 064B     		ldr	r3, .L22
 257:.\Generated_Source\PSoC4/HPI_IF_I2C_SLAVE.c ****         HPI_IF_slRdBufSize     = bufSize;                  /* Set buffer size     */
 258:.\Generated_Source\PSoC4/HPI_IF_I2C_SLAVE.c ****         HPI_IF_slRdBufIndex    = 0u;                       /* Clear buffer index  */
 740              		.loc 1 258 0
 741 0012 074A     		ldr	r2, .L22+4
ARM GAS  C:\Users\victo\AppData\Local\Temp\ccYrPGMm.s 			page 47


 256:.\Generated_Source\PSoC4/HPI_IF_I2C_SLAVE.c ****         HPI_IF_slRdBufSize     = bufSize;                  /* Set buffer size     */
 742              		.loc 1 256 0
 743 0014 1C60     		str	r4, [r3]
 257:.\Generated_Source\PSoC4/HPI_IF_I2C_SLAVE.c ****         HPI_IF_slRdBufSize     = bufSize;                  /* Set buffer size     */
 744              		.loc 1 257 0
 745 0016 074B     		ldr	r3, .L22+8
 259:.\Generated_Source\PSoC4/HPI_IF_I2C_SLAVE.c ****         HPI_IF_slRdBufIndexTmp = 0u;                       /* Clear buffer index  */
 260:.\Generated_Source\PSoC4/HPI_IF_I2C_SLAVE.c **** 
 261:.\Generated_Source\PSoC4/HPI_IF_I2C_SLAVE.c ****         HPI_IF_EnableInt();   /* Release lock */
 746              		.loc 1 261 0
 747 0018 0920     		mov	r0, #9
 257:.\Generated_Source\PSoC4/HPI_IF_I2C_SLAVE.c ****         HPI_IF_slRdBufIndex    = 0u;                       /* Clear buffer index  */
 748              		.loc 1 257 0
 749 001a 1D60     		str	r5, [r3]
 258:.\Generated_Source\PSoC4/HPI_IF_I2C_SLAVE.c ****         HPI_IF_slRdBufIndexTmp = 0u;                       /* Clear buffer index  */
 750              		.loc 1 258 0
 751 001c 0023     		mov	r3, #0
 752 001e 1360     		str	r3, [r2]
 259:.\Generated_Source\PSoC4/HPI_IF_I2C_SLAVE.c ****         HPI_IF_slRdBufIndexTmp = 0u;                       /* Clear buffer index  */
 753              		.loc 1 259 0
 754 0020 054A     		ldr	r2, .L22+12
 755 0022 1360     		str	r3, [r2]
 756              		.loc 1 261 0
 757 0024 FFF7FEFF 		bl	CyIntEnable
 758              	.LVL21:
 759              	.L16:
 262:.\Generated_Source\PSoC4/HPI_IF_I2C_SLAVE.c ****     }
 263:.\Generated_Source\PSoC4/HPI_IF_I2C_SLAVE.c **** }
 760              		.loc 1 263 0
 761              		@ sp needed
 762 0028 38BD     		pop	{r3, r4, r5, pc}
 763              	.L23:
 764 002a C046     		.align	2
 765              	.L22:
 766 002c 00000000 		.word	HPI_IF_slRdBufPtr
 767 0030 00000000 		.word	HPI_IF_slRdBufIndex
 768 0034 00000000 		.word	HPI_IF_slRdBufSize
 769 0038 00000000 		.word	HPI_IF_slRdBufIndexTmp
 770              		.cfi_endproc
 771              	.LFE5:
 772              		.size	HPI_IF_I2CSlaveInitReadBuf, .-HPI_IF_I2CSlaveInitReadBuf
 773              		.section	.text.HPI_IF_I2CSlaveInitWriteBuf,"ax",%progbits
 774              		.align	1
 775              		.global	HPI_IF_I2CSlaveInitWriteBuf
 776              		.code	16
 777              		.thumb_func
 778              		.type	HPI_IF_I2CSlaveInitWriteBuf, %function
 779              	HPI_IF_I2CSlaveInitWriteBuf:
 780              	.LFB6:
 264:.\Generated_Source\PSoC4/HPI_IF_I2C_SLAVE.c **** 
 265:.\Generated_Source\PSoC4/HPI_IF_I2C_SLAVE.c **** 
 266:.\Generated_Source\PSoC4/HPI_IF_I2C_SLAVE.c **** /*******************************************************************************
 267:.\Generated_Source\PSoC4/HPI_IF_I2C_SLAVE.c **** * Function Name: HPI_IF_I2CSlaveInitWriteBuf
 268:.\Generated_Source\PSoC4/HPI_IF_I2C_SLAVE.c **** ********************************************************************************
 269:.\Generated_Source\PSoC4/HPI_IF_I2C_SLAVE.c **** *
 270:.\Generated_Source\PSoC4/HPI_IF_I2C_SLAVE.c **** * Summary:
 271:.\Generated_Source\PSoC4/HPI_IF_I2C_SLAVE.c **** *  Sets the buffer pointer and size of the read buffer. This function also
ARM GAS  C:\Users\victo\AppData\Local\Temp\ccYrPGMm.s 			page 48


 272:.\Generated_Source\PSoC4/HPI_IF_I2C_SLAVE.c **** *  resets the transfer count returned with the I2C_SlaveGetReadBufSize function.
 273:.\Generated_Source\PSoC4/HPI_IF_I2C_SLAVE.c **** *
 274:.\Generated_Source\PSoC4/HPI_IF_I2C_SLAVE.c **** * Parameters:
 275:.\Generated_Source\PSoC4/HPI_IF_I2C_SLAVE.c **** *  writeBuf:  Pointer to the data buffer to be read by the master.
 276:.\Generated_Source\PSoC4/HPI_IF_I2C_SLAVE.c **** *  bufSize:  Size of the buffer exposed to the I2C master.
 277:.\Generated_Source\PSoC4/HPI_IF_I2C_SLAVE.c **** *
 278:.\Generated_Source\PSoC4/HPI_IF_I2C_SLAVE.c **** * Return:
 279:.\Generated_Source\PSoC4/HPI_IF_I2C_SLAVE.c **** *  None
 280:.\Generated_Source\PSoC4/HPI_IF_I2C_SLAVE.c **** *
 281:.\Generated_Source\PSoC4/HPI_IF_I2C_SLAVE.c **** * Global variables:
 282:.\Generated_Source\PSoC4/HPI_IF_I2C_SLAVE.c **** *  HPI_IF_slWrBufPtr   - used to store pointer to slave write buffer.
 283:.\Generated_Source\PSoC4/HPI_IF_I2C_SLAVE.c **** *  HPI_IF_slWrBufSize  - used to store salve write buffer size.
 284:.\Generated_Source\PSoC4/HPI_IF_I2C_SLAVE.c **** *  HPI_IF_slWrBufIndex - used to store current index within slave
 285:.\Generated_Source\PSoC4/HPI_IF_I2C_SLAVE.c **** *  write buffer.
 286:.\Generated_Source\PSoC4/HPI_IF_I2C_SLAVE.c **** *
 287:.\Generated_Source\PSoC4/HPI_IF_I2C_SLAVE.c **** * Side Effects:
 288:.\Generated_Source\PSoC4/HPI_IF_I2C_SLAVE.c **** *  If this function is called during a bus transaction, data from the previous
 289:.\Generated_Source\PSoC4/HPI_IF_I2C_SLAVE.c **** *  buffer location and the beginning of current buffer may be transmitted.
 290:.\Generated_Source\PSoC4/HPI_IF_I2C_SLAVE.c **** *
 291:.\Generated_Source\PSoC4/HPI_IF_I2C_SLAVE.c **** *******************************************************************************/
 292:.\Generated_Source\PSoC4/HPI_IF_I2C_SLAVE.c **** void HPI_IF_I2CSlaveInitWriteBuf(uint8 * wrBuf, uint32 bufSize)
 293:.\Generated_Source\PSoC4/HPI_IF_I2C_SLAVE.c **** {
 781              		.loc 1 293 0
 782              		.cfi_startproc
 783              	.LVL22:
 784 0000 38B5     		push	{r3, r4, r5, lr}
 785              		.cfi_def_cfa_offset 16
 786              		.cfi_offset 3, -16
 787              		.cfi_offset 4, -12
 788              		.cfi_offset 5, -8
 789              		.cfi_offset 14, -4
 294:.\Generated_Source\PSoC4/HPI_IF_I2C_SLAVE.c ****     /* Check buffer pointer */
 295:.\Generated_Source\PSoC4/HPI_IF_I2C_SLAVE.c ****     if(NULL != wrBuf)
 790              		.loc 1 295 0
 791 0002 0028     		cmp	r0, #0
 792 0004 0ED0     		beq	.L24
 793 0006 041C     		mov	r4, r0
 794 0008 0D1C     		mov	r5, r1
 296:.\Generated_Source\PSoC4/HPI_IF_I2C_SLAVE.c ****     {
 297:.\Generated_Source\PSoC4/HPI_IF_I2C_SLAVE.c ****         HPI_IF_DisableInt();  /* Lock from interruption */
 795              		.loc 1 297 0
 796 000a 0920     		mov	r0, #9
 797              	.LVL23:
 798 000c FFF7FEFF 		bl	CyIntDisable
 799              	.LVL24:
 298:.\Generated_Source\PSoC4/HPI_IF_I2C_SLAVE.c **** 
 299:.\Generated_Source\PSoC4/HPI_IF_I2C_SLAVE.c ****         HPI_IF_slWrBufPtr   = (volatile uint8 *) wrBuf; /* Set buffer pointer  */
 300:.\Generated_Source\PSoC4/HPI_IF_I2C_SLAVE.c ****         HPI_IF_slWrBufSize  = bufSize;                  /* Set buffer size     */
 301:.\Generated_Source\PSoC4/HPI_IF_I2C_SLAVE.c ****         HPI_IF_slWrBufIndex = 0u;                       /* Clear buffer index  */
 800              		.loc 1 301 0
 801 0010 0022     		mov	r2, #0
 299:.\Generated_Source\PSoC4/HPI_IF_I2C_SLAVE.c ****         HPI_IF_slWrBufSize  = bufSize;                  /* Set buffer size     */
 802              		.loc 1 299 0
 803 0012 054B     		ldr	r3, .L29
 302:.\Generated_Source\PSoC4/HPI_IF_I2C_SLAVE.c **** 
 303:.\Generated_Source\PSoC4/HPI_IF_I2C_SLAVE.c ****         HPI_IF_EnableInt();   /* Release lock */
 804              		.loc 1 303 0
ARM GAS  C:\Users\victo\AppData\Local\Temp\ccYrPGMm.s 			page 49


 805 0014 0920     		mov	r0, #9
 299:.\Generated_Source\PSoC4/HPI_IF_I2C_SLAVE.c ****         HPI_IF_slWrBufSize  = bufSize;                  /* Set buffer size     */
 806              		.loc 1 299 0
 807 0016 1C60     		str	r4, [r3]
 300:.\Generated_Source\PSoC4/HPI_IF_I2C_SLAVE.c ****         HPI_IF_slWrBufIndex = 0u;                       /* Clear buffer index  */
 808              		.loc 1 300 0
 809 0018 044B     		ldr	r3, .L29+4
 810 001a 1D60     		str	r5, [r3]
 301:.\Generated_Source\PSoC4/HPI_IF_I2C_SLAVE.c **** 
 811              		.loc 1 301 0
 812 001c 044B     		ldr	r3, .L29+8
 813 001e 1A60     		str	r2, [r3]
 814              		.loc 1 303 0
 815 0020 FFF7FEFF 		bl	CyIntEnable
 816              	.LVL25:
 817              	.L24:
 304:.\Generated_Source\PSoC4/HPI_IF_I2C_SLAVE.c ****     }
 305:.\Generated_Source\PSoC4/HPI_IF_I2C_SLAVE.c **** }
 818              		.loc 1 305 0
 819              		@ sp needed
 820 0024 38BD     		pop	{r3, r4, r5, pc}
 821              	.L30:
 822 0026 C046     		.align	2
 823              	.L29:
 824 0028 00000000 		.word	HPI_IF_slWrBufPtr
 825 002c 00000000 		.word	HPI_IF_slWrBufSize
 826 0030 00000000 		.word	HPI_IF_slWrBufIndex
 827              		.cfi_endproc
 828              	.LFE6:
 829              		.size	HPI_IF_I2CSlaveInitWriteBuf, .-HPI_IF_I2CSlaveInitWriteBuf
 830              		.section	.text.HPI_IF_I2CSlaveGetReadBufSize,"ax",%progbits
 831              		.align	1
 832              		.global	HPI_IF_I2CSlaveGetReadBufSize
 833              		.code	16
 834              		.thumb_func
 835              		.type	HPI_IF_I2CSlaveGetReadBufSize, %function
 836              	HPI_IF_I2CSlaveGetReadBufSize:
 837              	.LFB7:
 306:.\Generated_Source\PSoC4/HPI_IF_I2C_SLAVE.c **** 
 307:.\Generated_Source\PSoC4/HPI_IF_I2C_SLAVE.c **** 
 308:.\Generated_Source\PSoC4/HPI_IF_I2C_SLAVE.c **** /*******************************************************************************
 309:.\Generated_Source\PSoC4/HPI_IF_I2C_SLAVE.c **** * Function Name: HPI_IF_I2CSlaveGetReadBufSize
 310:.\Generated_Source\PSoC4/HPI_IF_I2C_SLAVE.c **** ********************************************************************************
 311:.\Generated_Source\PSoC4/HPI_IF_I2C_SLAVE.c **** *
 312:.\Generated_Source\PSoC4/HPI_IF_I2C_SLAVE.c **** * Summary:
 313:.\Generated_Source\PSoC4/HPI_IF_I2C_SLAVE.c **** *  Returns the number of bytes read by the I2C master since an
 314:.\Generated_Source\PSoC4/HPI_IF_I2C_SLAVE.c **** *  I2C_SlaveInitReadBuf or I2C_SlaveClearReadBuf function was executed.
 315:.\Generated_Source\PSoC4/HPI_IF_I2C_SLAVE.c **** *  The maximum return value will be the size of the read buffer.
 316:.\Generated_Source\PSoC4/HPI_IF_I2C_SLAVE.c **** *
 317:.\Generated_Source\PSoC4/HPI_IF_I2C_SLAVE.c **** * Parameters:
 318:.\Generated_Source\PSoC4/HPI_IF_I2C_SLAVE.c **** *  None
 319:.\Generated_Source\PSoC4/HPI_IF_I2C_SLAVE.c **** *
 320:.\Generated_Source\PSoC4/HPI_IF_I2C_SLAVE.c **** * Return:
 321:.\Generated_Source\PSoC4/HPI_IF_I2C_SLAVE.c **** *  Bytes read by master.
 322:.\Generated_Source\PSoC4/HPI_IF_I2C_SLAVE.c **** *
 323:.\Generated_Source\PSoC4/HPI_IF_I2C_SLAVE.c **** * Global variables:
 324:.\Generated_Source\PSoC4/HPI_IF_I2C_SLAVE.c **** *  HPI_IF_slRdBufIndex - used to store current index within slave
ARM GAS  C:\Users\victo\AppData\Local\Temp\ccYrPGMm.s 			page 50


 325:.\Generated_Source\PSoC4/HPI_IF_I2C_SLAVE.c **** *  read buffer.
 326:.\Generated_Source\PSoC4/HPI_IF_I2C_SLAVE.c **** *
 327:.\Generated_Source\PSoC4/HPI_IF_I2C_SLAVE.c **** *******************************************************************************/
 328:.\Generated_Source\PSoC4/HPI_IF_I2C_SLAVE.c **** uint32 HPI_IF_I2CSlaveGetReadBufSize(void)
 329:.\Generated_Source\PSoC4/HPI_IF_I2C_SLAVE.c **** {
 838              		.loc 1 329 0
 839              		.cfi_startproc
 330:.\Generated_Source\PSoC4/HPI_IF_I2C_SLAVE.c ****     return(HPI_IF_slRdBufIndex);
 840              		.loc 1 330 0
 841 0000 014B     		ldr	r3, .L32
 331:.\Generated_Source\PSoC4/HPI_IF_I2C_SLAVE.c **** }
 842              		.loc 1 331 0
 843              		@ sp needed
 330:.\Generated_Source\PSoC4/HPI_IF_I2C_SLAVE.c ****     return(HPI_IF_slRdBufIndex);
 844              		.loc 1 330 0
 845 0002 1868     		ldr	r0, [r3]
 846              		.loc 1 331 0
 847 0004 7047     		bx	lr
 848              	.L33:
 849 0006 C046     		.align	2
 850              	.L32:
 851 0008 00000000 		.word	HPI_IF_slRdBufIndex
 852              		.cfi_endproc
 853              	.LFE7:
 854              		.size	HPI_IF_I2CSlaveGetReadBufSize, .-HPI_IF_I2CSlaveGetReadBufSize
 855              		.section	.text.HPI_IF_I2CSlaveGetWriteBufSize,"ax",%progbits
 856              		.align	1
 857              		.global	HPI_IF_I2CSlaveGetWriteBufSize
 858              		.code	16
 859              		.thumb_func
 860              		.type	HPI_IF_I2CSlaveGetWriteBufSize, %function
 861              	HPI_IF_I2CSlaveGetWriteBufSize:
 862              	.LFB8:
 332:.\Generated_Source\PSoC4/HPI_IF_I2C_SLAVE.c **** 
 333:.\Generated_Source\PSoC4/HPI_IF_I2C_SLAVE.c **** 
 334:.\Generated_Source\PSoC4/HPI_IF_I2C_SLAVE.c **** /*******************************************************************************
 335:.\Generated_Source\PSoC4/HPI_IF_I2C_SLAVE.c **** * Function Name: HPI_IF_I2CSlaveGetWriteBufSize
 336:.\Generated_Source\PSoC4/HPI_IF_I2C_SLAVE.c **** ********************************************************************************
 337:.\Generated_Source\PSoC4/HPI_IF_I2C_SLAVE.c **** *
 338:.\Generated_Source\PSoC4/HPI_IF_I2C_SLAVE.c **** * Summary:
 339:.\Generated_Source\PSoC4/HPI_IF_I2C_SLAVE.c **** *  Returns the number of bytes written by the I2C master since an
 340:.\Generated_Source\PSoC4/HPI_IF_I2C_SLAVE.c **** *  I2C_SlaveInitWriteBuf or I2C_SlaveClearWriteBuf function was executed.
 341:.\Generated_Source\PSoC4/HPI_IF_I2C_SLAVE.c **** *  The maximum return value will be the size of the write buffer.
 342:.\Generated_Source\PSoC4/HPI_IF_I2C_SLAVE.c **** *
 343:.\Generated_Source\PSoC4/HPI_IF_I2C_SLAVE.c **** * Parameters:
 344:.\Generated_Source\PSoC4/HPI_IF_I2C_SLAVE.c **** *  None
 345:.\Generated_Source\PSoC4/HPI_IF_I2C_SLAVE.c **** *
 346:.\Generated_Source\PSoC4/HPI_IF_I2C_SLAVE.c **** * Return:
 347:.\Generated_Source\PSoC4/HPI_IF_I2C_SLAVE.c **** *  Bytes written by master.
 348:.\Generated_Source\PSoC4/HPI_IF_I2C_SLAVE.c **** *
 349:.\Generated_Source\PSoC4/HPI_IF_I2C_SLAVE.c **** * Global variables:
 350:.\Generated_Source\PSoC4/HPI_IF_I2C_SLAVE.c **** *  HPI_IF_slWrBufIndex - used to store current index within slave
 351:.\Generated_Source\PSoC4/HPI_IF_I2C_SLAVE.c **** *  write buffer.
 352:.\Generated_Source\PSoC4/HPI_IF_I2C_SLAVE.c **** *
 353:.\Generated_Source\PSoC4/HPI_IF_I2C_SLAVE.c **** *******************************************************************************/
 354:.\Generated_Source\PSoC4/HPI_IF_I2C_SLAVE.c **** uint32 HPI_IF_I2CSlaveGetWriteBufSize(void)
 355:.\Generated_Source\PSoC4/HPI_IF_I2C_SLAVE.c **** {
ARM GAS  C:\Users\victo\AppData\Local\Temp\ccYrPGMm.s 			page 51


 863              		.loc 1 355 0
 864              		.cfi_startproc
 356:.\Generated_Source\PSoC4/HPI_IF_I2C_SLAVE.c ****     return(HPI_IF_slWrBufIndex);
 865              		.loc 1 356 0
 866 0000 014B     		ldr	r3, .L35
 357:.\Generated_Source\PSoC4/HPI_IF_I2C_SLAVE.c **** }
 867              		.loc 1 357 0
 868              		@ sp needed
 356:.\Generated_Source\PSoC4/HPI_IF_I2C_SLAVE.c ****     return(HPI_IF_slWrBufIndex);
 869              		.loc 1 356 0
 870 0002 1868     		ldr	r0, [r3]
 871              		.loc 1 357 0
 872 0004 7047     		bx	lr
 873              	.L36:
 874 0006 C046     		.align	2
 875              	.L35:
 876 0008 00000000 		.word	HPI_IF_slWrBufIndex
 877              		.cfi_endproc
 878              	.LFE8:
 879              		.size	HPI_IF_I2CSlaveGetWriteBufSize, .-HPI_IF_I2CSlaveGetWriteBufSize
 880              		.section	.text.HPI_IF_I2CSlaveClearReadBuf,"ax",%progbits
 881              		.align	1
 882              		.global	HPI_IF_I2CSlaveClearReadBuf
 883              		.code	16
 884              		.thumb_func
 885              		.type	HPI_IF_I2CSlaveClearReadBuf, %function
 886              	HPI_IF_I2CSlaveClearReadBuf:
 887              	.LFB9:
 358:.\Generated_Source\PSoC4/HPI_IF_I2C_SLAVE.c **** 
 359:.\Generated_Source\PSoC4/HPI_IF_I2C_SLAVE.c **** 
 360:.\Generated_Source\PSoC4/HPI_IF_I2C_SLAVE.c **** /*******************************************************************************
 361:.\Generated_Source\PSoC4/HPI_IF_I2C_SLAVE.c **** * Function Name: HPI_IF_I2CSlaveClearReadBuf
 362:.\Generated_Source\PSoC4/HPI_IF_I2C_SLAVE.c **** ********************************************************************************
 363:.\Generated_Source\PSoC4/HPI_IF_I2C_SLAVE.c **** *
 364:.\Generated_Source\PSoC4/HPI_IF_I2C_SLAVE.c **** * Summary:
 365:.\Generated_Source\PSoC4/HPI_IF_I2C_SLAVE.c **** *  Resets the read pointer to the first byte in the read buffer. The next byte
 366:.\Generated_Source\PSoC4/HPI_IF_I2C_SLAVE.c **** *  read by the master will be the first byte in the read buffer.
 367:.\Generated_Source\PSoC4/HPI_IF_I2C_SLAVE.c **** *
 368:.\Generated_Source\PSoC4/HPI_IF_I2C_SLAVE.c **** * Parameters:
 369:.\Generated_Source\PSoC4/HPI_IF_I2C_SLAVE.c **** *  None
 370:.\Generated_Source\PSoC4/HPI_IF_I2C_SLAVE.c **** *
 371:.\Generated_Source\PSoC4/HPI_IF_I2C_SLAVE.c **** * Return:
 372:.\Generated_Source\PSoC4/HPI_IF_I2C_SLAVE.c **** *  None
 373:.\Generated_Source\PSoC4/HPI_IF_I2C_SLAVE.c **** *
 374:.\Generated_Source\PSoC4/HPI_IF_I2C_SLAVE.c **** * Global variables:
 375:.\Generated_Source\PSoC4/HPI_IF_I2C_SLAVE.c **** *  HPI_IF_slRdBufIndex - used to store current index within slave
 376:.\Generated_Source\PSoC4/HPI_IF_I2C_SLAVE.c **** *  read buffer.
 377:.\Generated_Source\PSoC4/HPI_IF_I2C_SLAVE.c **** *
 378:.\Generated_Source\PSoC4/HPI_IF_I2C_SLAVE.c **** *******************************************************************************/
 379:.\Generated_Source\PSoC4/HPI_IF_I2C_SLAVE.c **** void HPI_IF_I2CSlaveClearReadBuf(void)
 380:.\Generated_Source\PSoC4/HPI_IF_I2C_SLAVE.c **** {
 888              		.loc 1 380 0
 889              		.cfi_startproc
 381:.\Generated_Source\PSoC4/HPI_IF_I2C_SLAVE.c ****     HPI_IF_slRdBufIndex = 0u;
 890              		.loc 1 381 0
 891 0000 0022     		mov	r2, #0
 892 0002 014B     		ldr	r3, .L38
ARM GAS  C:\Users\victo\AppData\Local\Temp\ccYrPGMm.s 			page 52


 382:.\Generated_Source\PSoC4/HPI_IF_I2C_SLAVE.c **** }
 893              		.loc 1 382 0
 894              		@ sp needed
 381:.\Generated_Source\PSoC4/HPI_IF_I2C_SLAVE.c ****     HPI_IF_slRdBufIndex = 0u;
 895              		.loc 1 381 0
 896 0004 1A60     		str	r2, [r3]
 897              		.loc 1 382 0
 898 0006 7047     		bx	lr
 899              	.L39:
 900              		.align	2
 901              	.L38:
 902 0008 00000000 		.word	HPI_IF_slRdBufIndex
 903              		.cfi_endproc
 904              	.LFE9:
 905              		.size	HPI_IF_I2CSlaveClearReadBuf, .-HPI_IF_I2CSlaveClearReadBuf
 906              		.section	.text.HPI_IF_I2CSlaveClearWriteBuf,"ax",%progbits
 907              		.align	1
 908              		.global	HPI_IF_I2CSlaveClearWriteBuf
 909              		.code	16
 910              		.thumb_func
 911              		.type	HPI_IF_I2CSlaveClearWriteBuf, %function
 912              	HPI_IF_I2CSlaveClearWriteBuf:
 913              	.LFB10:
 383:.\Generated_Source\PSoC4/HPI_IF_I2C_SLAVE.c **** 
 384:.\Generated_Source\PSoC4/HPI_IF_I2C_SLAVE.c **** 
 385:.\Generated_Source\PSoC4/HPI_IF_I2C_SLAVE.c **** /*******************************************************************************
 386:.\Generated_Source\PSoC4/HPI_IF_I2C_SLAVE.c **** * Function Name: HPI_IF_I2CSlaveClearWriteBuf
 387:.\Generated_Source\PSoC4/HPI_IF_I2C_SLAVE.c **** ********************************************************************************
 388:.\Generated_Source\PSoC4/HPI_IF_I2C_SLAVE.c **** *
 389:.\Generated_Source\PSoC4/HPI_IF_I2C_SLAVE.c **** * Summary:
 390:.\Generated_Source\PSoC4/HPI_IF_I2C_SLAVE.c **** *  Resets the write pointer to the first byte in the write buffer. The next byte
 391:.\Generated_Source\PSoC4/HPI_IF_I2C_SLAVE.c **** *  written by the master will be the first byte in the write buffer.
 392:.\Generated_Source\PSoC4/HPI_IF_I2C_SLAVE.c **** *
 393:.\Generated_Source\PSoC4/HPI_IF_I2C_SLAVE.c **** * Parameters:
 394:.\Generated_Source\PSoC4/HPI_IF_I2C_SLAVE.c **** *  None
 395:.\Generated_Source\PSoC4/HPI_IF_I2C_SLAVE.c **** *
 396:.\Generated_Source\PSoC4/HPI_IF_I2C_SLAVE.c **** * Return:
 397:.\Generated_Source\PSoC4/HPI_IF_I2C_SLAVE.c **** *  None
 398:.\Generated_Source\PSoC4/HPI_IF_I2C_SLAVE.c **** *
 399:.\Generated_Source\PSoC4/HPI_IF_I2C_SLAVE.c **** * Global variables:
 400:.\Generated_Source\PSoC4/HPI_IF_I2C_SLAVE.c **** *  HPI_IF_slWrBufIndex - used to store current index within slave
 401:.\Generated_Source\PSoC4/HPI_IF_I2C_SLAVE.c **** *  write buffer.
 402:.\Generated_Source\PSoC4/HPI_IF_I2C_SLAVE.c **** *
 403:.\Generated_Source\PSoC4/HPI_IF_I2C_SLAVE.c **** *******************************************************************************/
 404:.\Generated_Source\PSoC4/HPI_IF_I2C_SLAVE.c **** void HPI_IF_I2CSlaveClearWriteBuf(void)
 405:.\Generated_Source\PSoC4/HPI_IF_I2C_SLAVE.c **** {
 914              		.loc 1 405 0
 915              		.cfi_startproc
 406:.\Generated_Source\PSoC4/HPI_IF_I2C_SLAVE.c ****     HPI_IF_slWrBufIndex = 0u;
 916              		.loc 1 406 0
 917 0000 0022     		mov	r2, #0
 918 0002 014B     		ldr	r3, .L41
 407:.\Generated_Source\PSoC4/HPI_IF_I2C_SLAVE.c **** }
 919              		.loc 1 407 0
 920              		@ sp needed
 406:.\Generated_Source\PSoC4/HPI_IF_I2C_SLAVE.c ****     HPI_IF_slWrBufIndex = 0u;
 921              		.loc 1 406 0
ARM GAS  C:\Users\victo\AppData\Local\Temp\ccYrPGMm.s 			page 53


 922 0004 1A60     		str	r2, [r3]
 923              		.loc 1 407 0
 924 0006 7047     		bx	lr
 925              	.L42:
 926              		.align	2
 927              	.L41:
 928 0008 00000000 		.word	HPI_IF_slWrBufIndex
 929              		.cfi_endproc
 930              	.LFE10:
 931              		.size	HPI_IF_I2CSlaveClearWriteBuf, .-HPI_IF_I2CSlaveClearWriteBuf
 932              		.comm	HPI_IF_slOverFlowCount,1,1
 933              		.comm	HPI_IF_slRdBufIndexTmp,4,4
 934              		.comm	HPI_IF_slRdBufIndex,4,4
 935              		.comm	HPI_IF_slRdBufSize,4,4
 936              		.comm	HPI_IF_slRdBufPtr,4,4
 937              		.comm	HPI_IF_slWrBufIndex,4,4
 938              		.comm	HPI_IF_slWrBufSize,4,4
 939              		.comm	HPI_IF_slWrBufPtr,4,4
 940              		.comm	HPI_IF_slStatus,1,1
 941              		.text
 942              	.Letext0:
 943              		.file 2 "Generated_Source\\PSoC4/cytypes.h"
 944              		.file 3 "Generated_Source\\PSoC4/CyLib.h"