ARM GAS  C:\Users\victo\AppData\Local\Temp\ccFkh5tB.s 			page 1


   1              		.cpu cortex-m0
   2              		.fpu softvfp
   3              		.eabi_attribute 20, 1
   4              		.eabi_attribute 21, 1
   5              		.eabi_attribute 23, 3
   6              		.eabi_attribute 24, 1
   7              		.eabi_attribute 25, 1
   8              		.eabi_attribute 26, 1
   9              		.eabi_attribute 30, 4
  10              		.eabi_attribute 34, 0
  11              		.eabi_attribute 18, 4
  12              		.code	16
  13              		.file	"HPI_IF_I2C_INT.c"
  14              		.text
  15              	.Ltext0:
  16              		.section	.gnu.lto_.profile.92f66c45,"",%progbits
  17 0000 789C6366 		.ascii	"x\234cf```c\200\000F\206>\246F&\000\003\344\001\036"
  17      60606063 
  17      80004686 
  17      3EA64626 
  17      0003E401 
  18              		.text
  19              		.section	.gnu.lto_.jmpfuncs.92f66c45,"",%progbits
  20 0000 789C6366 		.ascii	"x\234cf\300\0168\2414#\210\250\007b\000\003B\000\215"
  20      C00E38A1 
  20      342388A8 
  20      07620003 
  20      42008D
  21              		.text
  22              		.section	.gnu.lto_.inline.92f66c45,"",%progbits
  23 0000 789C6366 		.ascii	"x\234cf\300\016\344\2404#\003C3\323\027 \305\364\213"
  23      C00EE4A0 
  23      34230343 
  23      33D31720 
  23      C5F48B
  24 0013 79DD791E 		.ascii	"y\335y\036\006\266\005\362L qf~\020\011\000d{\004\376"
  24      06B605F2 
  24      4C207166 
  24      7E100900 
  24      647B04FE 
  25              		.text
  26              		.section	.gnu.lto_.pureconst.92f66c45,"",%progbits
  27 0000 789C6366 		.ascii	"x\234cf```f\200\000F\006)\000\000z\000\""
  27      60606066 
  27      80004606 
  27      2900007A 
  27      0022
  28              		.text
  29              		.section	.gnu.lto_HPI_IF_I2C_ISR.92f66c45,"",%progbits
  30 0000 789C9D5A 		.ascii	"x\234\235ZwTUW\326\277\347\336\307\243\213%F\305.*\366"
  30      77545557 
  30      D6BFE7DE 
  30      C7A38B25 
  30      46C52E2A 
  31 0015 DE639B38 		.ascii	"\336c\2338\223I\2765\231\361\2133Yk\\f\234L\324\254"
  31      9349BE35 
  31      99F18B33 
ARM GAS  C:\Users\victo\AppData\Local\Temp\ccFkh5tB.s 			page 2


  31      596B5C66 
  31      9C4CD4AC 
  32 0029 644D742D 		.ascii	"dMt-\343L\326\232L\234\007\017\025\025\025\011Q\232"
  32      E34CD69A 
  32      4C9C070F 
  32      15151509 
  32      519A
  33 003b 15050B16 		.ascii	"\025\005\013\026\260\241X\236(\"JQQ\212\0036\212%\212"
  33      B0A1589E 
  33      28224A51 
  33      518A0336 
  33      8A258A
  34 004e 204D2265 		.ascii	" M\"e\316\336\247\360\270\276\207O\370cs\317y\347\374"
  34      CEDEA7F0 
  34      B8BE874F 
  34      F86373CF 
  34      79E7FC
  35 0061 CE6FEFB3 		.ascii	"\316o\357\263\367>\345^My\375o\244\246(\256\343\024"
  35      F73EE55E 
  35      4D79FD6F 
  35      A4A628AE 
  35      E314
  36 0073 E57DFA4C 		.ascii	"\345}\372L~\245\02058SQ\374\\TUK\235\240\230\334\014"
  36      7EA51035 
  36      385351FC 
  36      5C54554B 
  36      9DA098DC 
  37 0088 695D1493 		.ascii	"i]\024\223\207F\014\254\332\240:\005\372\322j#H\017"
  37      87460CAC 
  37      DAA03A05 
  37      FAD26A23 
  37      480F
  38 009a 276264D5 		.ascii	"'bd\325F\325\003\253\235\261\332Yu\301\022\326y\270"
  38      46D503AB 
  38      9DB1DA59 
  38      75C112D6 
  38      79B8
  39 00ac A8AE5872 		.ascii	"\250\256Xr\303\222+qg]\334\304\203;\361`\017\036\352"
  39      C3922B71 
  39      675DDCC4 
  39      833BF160 
  39      0F1EEA
  40 00bf F4D3BD68 		.ascii	"\364\323\275hC\317\233#iCO\265\035v\233\206\335\332"
  40      43CF9B23 
  40      69434FB5 
  40      1D769B86 
  40      DDDA
  41 00d1 A95E58EA 		.ascii	"\251^X\352\214%/\265\003\226\332c\251=\351\300\000:"
  41      8C252FB5 
  41      0396DA63 
  41      A93DE9C0 
  41      003A
  42 00e3 A81DB1BA 		.ascii	"\250\035\261\272\023Vw$\357\260\352N\342\341\035\322"
  42      13567724 
  42      EFB0EA4E 
  42      E2E11DD2 
  43 00f3 993D7456 		.ascii	"\231=tV\337\305\206=\261\341\273jW,yc\251+\231\011\215"
ARM GAS  C:\Users\victo\AppData\Local\Temp\ccFkh5tB.s 			page 3


  43      DFC5863D 
  43      B1E1BB6A 
  43      572C7963 
  43      A92B9909 
  44 0108 4817F6FF 		.ascii	"H\027\366\377\274\213EQ\273\004\245*\264A\267\000g\332"
  44      BC8B4551 
  44      BB04A52A 
  44      B441B700 
  44      67DA
  45 011a A01BF166 		.ascii	"\240\033\361f(\336jw\354\327\003\373u'=Xu\017\322\223"
  45      28DE6A77 
  45      ECD703FB 
  45      75273D58 
  45      750FD293 
  46 012e 3DF4547B 		.ascii	"=\364T{\341\357\276\370{/\2657\226\372`\2517\031\310"
  46      E1EFBEF8 
  46      7B2FB537 
  46      96FA60A9 
  46      3719C8
  47 0141 1AF551FB 		.ascii	"\032\365Q\373bu?\254\356K\006\260\352~\252OygZ\335\177"
  47      62753FAC 
  47      EE4B06B0 
  47      EA7EAA4F 
  47      79675ADD 
  48 0156 FB245AED 		.ascii	"\373$Z\355#\252\373\213\207\001\242\377@\342\313\036"
  48      23AAFB8B 
  48      8701A2FF 
  48      40E2CB1E 
  49 0166 7CD54108 		.ascii	"|\325A\0104\012\201\006\251C\2604\030K\203\311\020\326"
  49      340A8106 
  49      A943B034 
  49      184B83C9 
  49      10D6
  50 0178 68081986 		.ascii	"h\010\031\206\312\015e\377\317\273\014S\2072\335\206"
  50      CA0D65FF 
  50      CFBB0C53 
  50      8732DD86 
  51 0188 A36EC3D5 		.ascii	"\243n\303\325\021\330m$v\033AF\262n#\311x\3660J\035"
  51      11D86D24 
  51      761B4146 
  51      B26E23C9 
  51      78F6304A 
  52 019d 8DBF8FC7 		.ascii	"\215\277\217\307\337G\253c\2604\026Kc\3108\326h\254"
  52      DF47AB63 
  52      B034164B 
  52      63C838D6 
  52      68AC
  53 01af 781827BA 		.ascii	"x\030'\272\215W\337\2039u\303\371\365x\217\314@\022"
  53      8D57DF83 
  53      3975C3F9 
  53      F5788FCC 
  53      4012
  54 01c1 13D489D8 		.ascii	"\023\324\211\330}\022v\237H\246\260\306\223\324\311"
  54      7D12769F 
  54      48A6B0C6 
  54      93D4C9
  55 01d0 583D05AB 		.ascii	"X=\005\253'\213\352)\254\327\257f\250\023\030\343\251"
ARM GAS  C:\Users\victo\AppData\Local\Temp\ccFkh5tB.s 			page 4


  55      278BEA29 
  55      ACD7AF66 
  55      A81318E3 
  55      A9
  56 01e1 C8782A99 		.ascii	"\310x*\231\316~\237&\036\246\023\002\017\012Q\376\243"
  56      CE7E9F26 
  56      1EA61302 
  56      0F0A51FE 
  56      A3
  57 01f2 6A0627A3 		.ascii	"j\006'\243\263\213\253\233\273\207g;\257\366\035:vz"
  57      B38BAB9B 
  57      BB87673B 
  57      AFF61D3A 
  57      767A
  58 0204 A7F3BB5D 		.ascii	"\247\363\273]\273X\224n\336\335{\364\354\325\273O\337"
  58      BB58946E 
  58      DEDD7BF4 
  58      ECD5BB4F 
  58      DF
  59 0215 7E3EFD07 		.ascii	"~>\375\007\014\364\0354x\310\320a\303G\214\0345z\314"
  59      0CF41D34 
  59      78C8D061 
  59      C3478C1C 
  59      357ACC
  60 0228 D871E3DF 		.ascii	"\330q\343\337\2330q\322\344)3\246N\233N\376c\260\360"
  60      9B3071D2 
  60      E42933A6 
  60      4E9B4EFE 
  60      63B0F0
  61 023b 3019A690 		.ascii	"0\031\246\220&\372\347\205\205\031\254\356\261Z\241"
  61      26FAE785 
  61      8519ACEE 
  61      B15AA1
  62 024a 9260CBFE 		.ascii	"\222`\313\3760w\337\335&\223\251\374\306^\323l\013\251"
  62      3077DFDD 
  62      2693A9FC 
  62      C65ED36C 
  62      0BA9
  63 025c 5315A552 		.ascii	"S\025\245Re-H,\361Uh\243\364\220\214\227n\332p\002\317"
  63      652D482C 
  63      F15568A3 
  63      F4908C97 
  63      6EDA7002 
  64 0271 270F5665 		.ascii	"'\017Ve\270?R\353T\322\007\212\247B.\207\031\241\250"
  64      B83F52EB 
  64      54D2078A 
  64      A7422E87 
  64      19A1A8
  65 0284 1AA09873 		.ascii	"\032\240\230s\343\310\352v>;L&\377{Y\211\013,\001\333"
  65      E3C8EA76 
  65      3E3B4C26 
  65      FF7B5989 
  65      0B2C01DB 
  66 0298 4D8D4D4D 		.ascii	"M\215MM\024S#{\210Fa\311^\342M\366\021oN\213\366\360"
  66      1453237B 
  66      884661C9 
  66      5EE24DF6 
ARM GAS  C:\Users\victo\AppData\Local\Temp\ccFkh5tB.s 			page 5


  66      116F4E8B 
  67 02ae 0F59E76F 		.ascii	"\017Y\347o\324&\"\366\306\302\210m\004{o\317K0\315\264"
  67      D42622F6 
  67      C6C2886D 
  67      047B6FCF 
  67      4B30CDB4 
  68 02c2 EA1D67A7 		.ascii	"\352\035g\247wE@C\256\2731\200\322oO\366\023\037r\200"
  68      77454043 
  68      AEBB3180 
  68      D26F4FF6 
  68      131F7280 
  69 02d6 F830F6E4 		.ascii	"\3700\366\344 1\022EQE\355\241\216\026SS\323\221\330"
  69      20311245 
  69      5145EDA1 
  69      8E165353 
  69      D391D8
  70 02e9 F3372690 		.ascii	"\3637&\220\307\204(PO\001\351/\232R\247\032\272R\341"
  70      C7842850 
  70      4F01E92F 
  70      9A52A71A 
  70      BA52E1
  71 02fc E40D4FDD 		.ascii	"\344\015O\335A\364\244\302\330\013Do(\366\001\321\027"
  71      41F4A4C2 
  71      D80B446F 
  71      28F601D1 
  71      17
  72 030d 8AFD40F8 		.ascii	"\212\375@\370\200\350\017b \010_\020\203A\014\0011\014"
  72      80E80F62 
  72      20085F10 
  72      83410C01 
  72      310C
  73 031f C47010A3 		.ascii	"\304p\020\243@\214\0061\006\304X\020\343\000j<\210\211"
  73      408C0631 
  73      06C45810 
  73      E3006A3C 
  73      8889
  74 0331 20268198 		.ascii	" &\201\230\014b\012\210\251\310k\0324\234\016\345\031"
  74      0C620A88 
  74      A9C86B1A 
  74      349C0EE5 
  74      19
  75 0342 F03413C4 		.ascii	"\3604\023\304\373 fA\335\257A\374\006\304\007 >\004"
  75      FB206641 
  75      DDAF41FC 
  75      06C40720 
  75      3E04
  76 0354 F13B101F 		.ascii	"\361;\020\037\203\370\003\210\331 >\201\036s@\374\011"
  76      83F80388 
  76      D9203E81 
  76      1E7340FC 
  76      09
  77 0365 C4A720FE 		.ascii	"\304\247 \376\014?\314\0051\017\304g \376\002b>\210"
  77      0C3FCC05 
  77      310FC467 
  77      20FE0262 
  77      3E88
  78 0377 BF52E1FC 		.ascii	"\277R\341\3749<\375\015\236\276\200\247\005\320m\021"
ARM GAS  C:\Users\victo\AppData\Local\Temp\ccFkh5tB.s 			page 6


  78      393CFD0D 
  78      9EBE80A7 
  78      05D06D11 
  79 0387 3C7D09E2 		.ascii	"<}\011\342+\020_\203\370;\210o@,\206&K@|\013b\031\210"
  79      2B105F83 
  79      F83B886F 
  79      402C8626 
  79      4B407C0B 
  80 039e 7F82F80E 		.ascii	"\177\202\370\016\304\277\240\311\367 ~\000\261\034\204"
  80      C4BFA0C9 
  80      F7207E00 
  80      B11C84
  81 03ad 8980F407 		.ascii	"\211\200\364\007i4\243\\\2115\253P\006\262\331Y\203"
  81      6934A35C 
  81      8935AB50 
  81      06B2D959 
  81      83
  82 03be 85B528D7 		.ascii	"\205\265(\327\241\\\217r#v\010A\271\011k6\243\214@\031"
  82      A15C8F72 
  82      23760841 
  82      B9096B36 
  82      A38C4019 
  83 03d2 89320AE5 		.ascii	"\2112\012\345\026\224[Qnc\240;\330\277\235\004\247>"
  83      16945B51 
  83      6E63A03B 
  83      D8BF9D04 
  83      A73E
  84 03e4 1A7E72DE 		.ascii	"\032~r\336\205\015v\343s\014>\307\"\370^|\336\2072\216"
  84      850D76E3 
  84      730C3EC7 
  84      22F85E7C 
  84      DE87328E 
  85 03f8 F53B8085 		.ascii	"\365;\200\205\203(\023P\036Ay\224\375|\014\013\307Q"
  85      83281350 
  85      1E417994 
  85      FD7C0C0B 
  85      C751
  86 040a 2622DE49 		.ascii	"&\"\336I|>\205\317I\210z\006k\316\242<\2175\311(S\260"
  86      7C3E85CF 
  86      49887A06 
  86      6BCEA23C 
  86      8F35C928 
  87 0420 E612CA54 		.ascii	"\346\022\312T\224\227Q\246\241\274\202\362*\342\244"
  87      949751A6 
  87      A1BC82F2 
  87      2AE2A4
  88 042f E373063E 		.ascii	"\343s\006>gb\337,\254\271\216\362\006\312[X\237\203"
  88      6762DF2C 
  88      ACB98EF2 
  88      06CA5B58 
  88      9F83
  89 0441 3217653E 		.ascii	"2\027e>\312\002\374\265\020\345=\224\367Q\026\241,F"
  89      CA02FCB5 
  89      10E53D94 
  89      F75116A1 
  89      2C46
  90 0453 598AF221 		.ascii	"Y\212\362!JE)\246\321T2@)QU\372O\313!\376\226\374\335"
ARM GAS  C:\Users\victo\AppData\Local\Temp\ccFkh5tB.s 			page 7


  90      4A4529A6 
  90      D1543240 
  90      295155FA 
  90      4FCB21FE 
  91 046a 04A38B1A 		.ascii	"\004\243\213\032\220F\340\335\342\254\353.\220\000\350"
  91      9046E0DD 
  91      E2ACEB2E 
  91      9000E8
  92 0479 424C0ED1 		.ascii	"BL\016\321\330\274MC\272\342DOhR\253v\245-\266f\257"
  92      D8BC4D43 
  92      BAE2444F 
  92      6852AB76 
  92      A52DB666 
  93 048e 3FA8FEF0 		.ascii	"?\250\376\360\312\024hr\251S]\032T\026\271\262\237\013"
  93      CA146872 
  93      A9535D1A 
  93      5416B9B2 
  93      9F0B
  94 04a0 16F7F805 		.ascii	"\026\367\370\005D\221-$\322\317\004\255\\\311a\362\003"
  94      44912D24 
  94      D2CF04AD 
  94      5CC961F2 
  94      03
  95 04b1 89874827 		.ascii	"\211\207H'\011\264Z\271E\002\362\315\275\2321eoW\332"
  95      09B45AB9 
  95      4502F2CD 
  95      BD9A3165 
  95      6F57DA
  96 04c4 E208CF08 		.ascii	"\342\010\317\010%\224C\202\267V@\314\226\312\205\320"
  96      25944382 
  96      B75640CC 
  96      96CA85D0 
  97 04d4 56A18DA9 		.ascii	"V\241\215\251\026n\370\233\001\370\337&\3115kJWi\014"
  97      166EF89B 
  97      01F8DF26 
  97      C9356B4A 
  97      57690C
  98 04e7 C99B22BD 		.ascii	"\311\233\"\275\372\345\220\311\015\220\334\203\266\204"
  98      FAE590C9 
  98      0D90DC83 
  98      B684
  99 04f5 9A0C2DA8 		.ascii	"\232\014-\250\271#\265\355\347~\031\013\314\002h&\362"
  99      B923B5ED 
  99      E77E190B 
  99      CC026826 
  99      F2
 100 0506 2047690A 		.ascii	" Gi\012:\206\304\216\003\261\333\304\374\322\310\320"
 100      3A86C48E 
 100      03B1DBC4 
 100      FCD2C8D0 
 101 0516 BA33C0D4 		.ascii	"\2723\300\324-\217\022\014\320\333@\235\342\004mi\315"
 101      2D8F120C 
 101      D0DB409D 
 101      E2046D69 
 101      CD
 102 0527 BD3B6DE0 		.ascii	"\275;m\340\027\223\024\344\214\015(H\242\344\356\244"
 102      179314E4 
ARM GAS  C:\Users\victo\AppData\Local\Temp\ccFkh5tB.s 			page 8


 102      8C0D2848 
 102      A2E4EEA4 
 103 0537 5476047E 		.ascii	"Tv\004~\345\345\347\272Ac\332r\375\355\262[\330\322"
 103      E5E5E7BA 
 103      4163DA72 
 103      FDEDB25B 
 103      D8D2
 104 0549 3D50708B 		.ascii	"=Pp\213m\\\367\312\243\231\315I\311\346\024e\303\321"
 104      6D5CF7CA 
 104      A399CD49 
 104      C9E61465 
 104      C3D1
 105 055b 4A5423D7 		.ascii	"JT#\3275$>\335\217\353\332S?\023\316\015*i9\023\316"
 105      35243EDD 
 105      8FEBDA53 
 105      3F13CE0D 
 105      2A693913 
 106 0570 587C608A 		.ascii	"X|`\212\251s\306\231\360\243\255<I\022\235\211\3238"
 106      A973C699 
 106      F0A3AD3C 
 106      49129D89 
 106      D338
 107 0582 C4199DC2 		.ascii	"\304\031\235\302\275\030\252\\\021\214}\024rV\247p/"
 107      BD18AA5C 
 107      118C7D14 
 107      7256A770 
 107      2F
 108 0593 6B858D14 		.ascii	"k\205\215\024\344\234T\330\231+\\\263\246&q6k\335\033"
 108      E49C54D8 
 108      992B5CB3 
 108      A6267136 
 108      6BDD1B
 109 05a6 E8946D0E 		.ascii	"\350\224m\016sB\245\323\267r\245sn%ovjV\332\"\225>\257"
 109      7342A5D3 
 109      B772A573 
 109      6E256F76 
 109      6A56DA22 
 110 05bd 63D48741 		.ascii	"c\324\207AT\305\230\022\221\221\301\217\346\370dAi9"
 110      54C59812 
 110      9191C18F 
 110      E6F86441 
 110      6939
 111 05cf 6F646574 		.ascii	"odet\027\345\244+\032\252\"\375\202\023\373\271\257"
 111      17E5A42B 
 111      1AAA22FD 
 111      8213FBB9 
 111      AF
 112 05e0 5D43E92D 		.ascii	"]C\351-sAZ\346\242\216G?\006#]\201.E$E\3208Hx#+[\270"
 112      73415AE6 
 112      A28E473F 
 112      06235D81 
 112      2E452445 
 113 05fc 2A850636 		.ascii	"*\205\0066a\231\331\256\354g\037\033<T\233<.I\036\251"
 113      6199D9AE 
 113      EC671F1B 
 113      3C549B3C 
 113      2E491EA9 
ARM GAS  C:\Users\victo\AppData\Local\Temp\ccFkh5tB.s 			page 9


 114 0610 3A1EFD19 		.ascii	":\036\375\031\314\366\323w\326y\000\017\317\006J\344"
 114      CCF6D377 
 114      D679000F 
 114      CF064AE4 
 115 0620 32066972 		.ascii	"2\006ir\010\341^\346\330 ir\220+t\020\012\215\030\327"
 115      08E15EE6 
 115      D8206972 
 115      902B7410 
 115      0A8D18D7 
 116 0634 33B97B0D 		.ascii	"3\271{\015t\030\350\252\004J\347l\2538[_\006\223wy\363"
 116      7418E8AA 
 116      044AE76C 
 116      AB385B5F 
 116      06937779 
 117 0649 78349AAB 		.ascii	"x4\232\253B2\332\3045S\016\221\205\\}\321\306n\302\306"
 117      4232DAC4 
 117      35530E91 
 117      855C7DD1 
 117      C66EC2C6 
 118 065d D76F71D2 		.ascii	"\327oq\322\203\035F\274&\021\257\353L<\204\301\234:"
 118      831D46BC 
 118      2611AFEB 
 118      4C3C84C1 
 118      9C3A
 119 066f 9D9DA5A1 		.ascii	"\235\235\245\241\211\357R\023\337h\023\355l9\310M\244"
 119      89EF5213 
 119      DF6813ED 
 119      6C39C84D 
 119      A4
 120 0680 3D043136 		.ascii	"=\00416\346p\266\303\034\006\272%\201rt&\036\316`\022"
 120      E670B6C3 
 120      1C06BA25 
 120      81727426 
 120      1ECE6012 
 121 0694 52B63E47 		.ascii	"R\266>G\266\306`\3126\267Ml\363\344 \371\310v8\032\331"
 121      B6C660CA 
 121      36B74D6C 
 121      F3E420F9 
 121      C876381A 
 122 06a9 9D0754F9 		.ascii	"\235\007T\371\341\202\"g;x\266\243\351\266\304\373/"
 122      E1822267 
 122      3B78B6A3 
 122      E9B6C4FB 
 122      2F
 123 06ba C5B3CE4B 		.ascii	"\305\263\316K\236\264\256\200g6\017\231\331J\315\334"
 123      9EB4AE80 
 123      67360F99 
 123      D94ACDDC 
 124 06ca 2EA31C1E 		.ascii	".\243\034\036\242P\016qG7\213\243)\314k\271k\264U\200"
 124      A2500E71 
 124      47378BA3 
 124      29CC6BB9 
 124      6BB45580 
 125 06de 7A2AABBA 		.ascii	"z*\253\272\260q\013s\371\270c\034\036\367\256\034\367"
 125      B0710B73 
 125      F9B8631C 
 125      1EF7AE1C 
ARM GAS  C:\Users\victo\AppData\Local\Temp\ccFkh5tB.s 			page 10


 125      F7
 126 06ef 9E6EDCB1 		.ascii	"\236n\334\261\014\346\352\203\227\225\030\240\306\366"
 126      0CE6EA83 
 126      979518A0 
 126      C6F6
 127 06fd 0AB92F68 		.ascii	"\012\271/h,\345m\254h\264S.\270\263\234\231S\317s\346"
 127      2CE56DAC 
 127      68B4532E 
 127      B8B39C99 
 127      53CF73E6 
 128 0711 B8D612E4 		.ascii	"\270\326\022\344\003\335x\343Y\373\210\334\222*\234"
 128      03DD78E3 
 128      59FB88DC 
 128      922A9C
 129 0720 7F03CD8F 		.ascii	"\177\003\315\217E\272\3748\336*?z)\017\234\330t\226"
 129      45BAFC38 
 129      DE2A3F7A 
 129      290F9CD8 
 129      7496
 130 0732 6E76E2D3 		.ascii	"nv\342\323y3\356U\025n\371\335-\"A_\271x5\251]\363\370"
 130      7933EE55 
 130      156EF9DD 
 130      2D22415F 
 130      B97835A9 
 131 0749 C572FC12 		.ascii	"\305r\374\022X\225\212\230\177\325\254i\254\3777\033"
 131      58958A98 
 131      7FD5AC69 
 131      ACFF371B 
 132 0759 62222C1B 		.ascii	"b\",\033[n\2353\260\305-\200\303d\276\334T\353\334\014"
 132      5B6E9D33 
 132      B0C52D80 
 132      C364BEDC 
 132      54EBDC0C 
 133 076d 532A611E 		.ascii	"S*a\036\352\324\230\304 No\330\220\302V\322\336\012"
 133      EAD498C4 
 133      204E6FD8 
 133      90C256D2 
 133      DE0A
 134 077f 79244629 		.ascii	"y$F)pf\215&\267\206\370X\2078\205\265o\310^_\316V\016"
 134      70668D26 
 134      B786F858 
 134      873885B5 
 134      6FC85E5F 
 135 0796 93899AE6 		.ascii	"\223\211\232\346\2110M)\237\363)\3226\305j{JY+Q;0\023"
 135      89304D29 
 135      9FF329D2 
 135      36C56A7B 
 135      4A592B51 
 136 07ad 99435616 		.ascii	"\231CV\026\360FS\221\240\246\344\020\0257JtgH+1\304"
 136      F0465391 
 136      A0A6E410 
 136      15374A74 
 136      67482B31 
 137 07c2 2A9E9E70 		.ascii	"*\236\236pg\215\246\331\360\036\315\246\367\374"
 137      678DA6D9 
 137      F01ECDA6 
 137      F7FC
ARM GAS  C:\Users\victo\AppData\Local\Temp\ccFkh5tB.s 			page 11


 138 07d0 2CBDE729 		.ascii	",\275\347)#\355\177\207k8\235\302\000\277L\271\246L"
 138      23ED7F87 
 138      6B389DC2 
 138      00BF4CB9 
 138      A64C
 139 07e2 8781E85F 		.ascii	"\207\201\350_)\321`\357\341U_W\242\001\345\3660\231"
 139      29D160EF 
 139      E1555F57 
 139      A201E5F6 
 139      3099
 140 07f4 1D8130B2 		.ascii	"\035\2010\262x\226\313\027\231\031\016\207\3733\311"
 140      7896CB17 
 140      99190E87 
 140      FB33C9
 141 0803 A24C9753 		.ascii	"\242L\227Sf2\030y\0224\032\024\362\274M)\245\\\216Q"
 141      66321879 
 141      12341A14 
 141      F2BC4D29 
 141      A55C8E51 
 142 0817 81296526 		.ascii	"\201)e&\372`'A;\276*\326\213\015\371\276\303\306{!!"
 142      FA602741 
 142      3BBE2AD6 
 142      8B0DF9BE 
 142      C3C67B21 
 143 082c 2B75C69B 		.ascii	"+u\306\233Ea@\215P\256\306\257q\342f!\355\035#X\335"
 143      4561408D 
 143      50AEC6AF 
 143      71E26621 
 143      ED1D2358 
 144 0841 6FF4E3B4 		.ascii	"o\364\343\264k\200]\233urjgcX/RE\207\255\306ak\270\265"
 144      6B805D9B 
 144      75726A67 
 144      63582F52 
 144      4587ADC6 
 145 0859 C4301F50 		.ascii	"\3040\037PT:\230}\353\310!\364\230\265\022\363%Z\347"
 145      543A987D 
 145      EBC821F4 
 145      98B512F3 
 145      255AE7
 146 086c 03B4CE3B 		.ascii	"\003\264\316;<BC\342k\304\244~\3500d\235\204\374\205"
 146      3C4243E2 
 146      6BC4A47E 
 146      E830649D 
 146      84FC85
 147 087f D1B4CFC9 		.ascii	"\321\264\317\311\311&\300+\011P\217\234>Tp\007[+\223"
 147      C926C02B 
 147      09508F9C 
 147      3E547007 
 147      5B2B93
 148 0892 45644176 		.ascii	"EdAv\022\333^\007n\343Q\236\021\265k\215[sL6\310\230"
 148      12DB5E07 
 148      6EE3519E 
 148      11B56B8D 
 148      5B734C36 
 149 08a8 6C145B58 		.ascii	"l\024[XL8\365\253\334\3558\217\355\231n\2223mR)N\201"
 149      4C38F5AB 
 149      DCED388F 
ARM GAS  C:\Users\victo\AppData\Local\Temp\ccFkh5tB.s 			page 12


 149      ED996E92 
 149      336D5229 
 150 08be 4807994D 		.ascii	"H\007\231M\2370\263\374\216v*\317J\255f\233\313\000"
 150      9F30B3FC 
 150      8E762ACF 
 150      4AAD669B 
 150      CB00
 151 08d0 91749EE5 		.ascii	"\221t\236\345\327\254ti\246\343\247\012:\376jK?\377"
 151      D7AC7469 
 151      A6E3A70A 
 151      3AFE6A4B 
 151      3FFF
 152 08e2 98416CAA 		.ascii	"\230Al\252\336\263\327\310S\004\365t\263\332\322\323"
 152      DEB3D7C8 
 152      5304F574 
 152      B3DAD2D3 
 153 08f2 EDC205A8 		.ascii	"\355\302\005\250`\240\217\221\224\033C\374Ck\355W\250"
 153      60A08F91 
 153      941B43FC 
 153      436BED57 
 153      A8
 154 0903 2D33D46C 		.ascii	"-3\324l\326\376I@V\020\301\341\233\232^5y)d\245\243"
 154      D6FE4940 
 154      5610C1E1 
 154      9B9A5E35 
 154      792964A5 
 155 0918 04562181 		.ascii	"\004V!\201\331\3308\276q3w\226O\034\216\316@U\030x\265"
 155      D9D838BE 
 155      71337796 
 155      4F1C8ECE 
 155      40551878 
 156 092d 8EDA1C0A 		.ascii	"\216\332\034\012\323\306m\345\032\011\272\026\351\315"
 156      D3C66DE5 
 156      1A09BA16 
 156      E9CD
 157 093b 61DBCA46 		.ascii	"a\333\312F\036\244\177r\030(H\002\255\323\315\333\247"
 157      1EA47F72 
 157      18284802 
 157      ADD3CDDB 
 157      A7
 158 094c 140677DF 		.ascii	"\024\006w\337o\317n\275\004\335\200\354>e\256\331\024"
 158      6FCF6EBD 
 158      04DD80EC 
 158      3E65AED9 
 158      14
 159 095d EBFA565B 		.ascii	"\353\372V[\233`\011\263Q\305\255ML\341\212_\\qkC\327"
 159      9B6009B3 
 159      51C5AD4D 
 159      4CE18A5F 
 159      5C716B43 
 160 0972 FB10956D 		.ascii	"\373\020\225mm:\313\265\2751\320\314=\344\317\255-\356"
 160      6D3ACBB5 
 160      BD31D0CC 
 160      3DE4CFAD 
 160      2DEE
 161 0984 3FEAA661 		.ascii	"?\352\246a.k\277\353\247Mq\350\343\006\027\205\204\252"
 161      2E6BBFEB 
ARM GAS  C:\Users\victo\AppData\Local\Temp\ccFkh5tB.s 			page 13


 161      A74D71E8 
 161      E3061785 
 161      84AA
 162 0996 2D17F7B9 		.ascii	"-\027\367\271V\213\373\273bq/O\017\373\204+dw%\377\011"
 162      568BFBBB 
 162      62712F4F 
 162      0FFB842B 
 162      647725FF 
 163 09ab 822A5415 		.ascii	"\202*T\025+\371j3O\305\363`)\017\315M\306U\323\375\236"
 163      2BF96A33 
 163      4FC5F360 
 163      290FCD4D 
 163      C655D3FD 
 164 09c0 89475576 		.ascii	"\211GUvI\320~\367f\234M\322\0137\013\322+/r\332\237"
 164      49D07EF7 
 164      669C4DD2 
 164      0B370BD2 
 164      2B2F72DA 
 165 09d5 3190E098 		.ascii	"1\220\340\230\274T\036W3\025\022&x'\360\225\3553+\342"
 165      BC541E57 
 165      33151226 
 165      7827F095 
 165      ED332BE2 
 166 09e9 5D610478 		.ascii	"]a\004x\350\242\204\364\324\340\302!\376n\330Q\336\360"
 166      E8A284F4 
 166      D4E0C221 
 166      FE6ED851 
 166      DEF0
 167 09fb AFFA6969 		.ascii	"\257\372ii\337\000\007O\353\234\335\336\306\225\203"
 167      DF00074F 
 167      EB9CDDDE 
 167      C69583
 168 0a0a 3309A7B3 		.ascii	"3\011\247\263\024\001sA\"U\353dX\253~n#\037\332:,{\221"
 168      14017341 
 168      2255EB64 
 168      58AB7E6E 
 168      231FDA3A 
 169 0a21 2855E4C3 		.ascii	"(U\344\303-\\\3170\256\345\337(3\212\304\314w\263\033"
 169      2D5CCF30 
 169      AEE5DF28 
 169      338AC4CC 
 169      77B31B
 170 0a34 ABFC8242 		.ascii	"\253\374\202B\244\025?\017`\207|\313Jn\274\262\224S"
 170      A4153F0F 
 170      60877CCB 
 170      4A6EBCB2 
 170      9453
 171 0a46 8FAC667C 		.ascii	"\217\254f|\2534\3366\006\352\237\267\352fW\206\260\200"
 171      AB34DE36 
 171      06EA9FB7 
 171      EA665786 
 171      B080
 172 0a58 82B025EB 		.ascii	"\202\260%\353\242p\355\210\215\2119\256\330\333\317"
 172      A270ED88 
 172      8D8939AE 
 172      D8DBCF
 173 0a67 3297BA18 		.ascii	"2\227\272\030\035\233{\337vt\342\005l'r7,\221\253\267"
ARM GAS  C:\Users\victo\AppData\Local\Temp\ccFkh5tB.s 			page 14


 173      1D9B7BDF 
 173      7674E205 
 173      6C277237 
 173      2C91ABB7 
 174 0a7b C861F576 		.ascii	"\310a\365vH\365vr\365B\270z_2\230\353\0211f/P\306\213"
 174      48F57672 
 174      F542B87A 
 174      5F3298EB 
 174      1131662F 
 175 0a92 9E2BA2D5 		.ascii	"\236+\242\325Vb\316\356\030\273\344\030\273\221\356"
 175      5662CEEE 
 175      18BBE418 
 175      BB91EE
 176 0aa1 9738E533 		.ascii	"\2278\3453\025\377>\204\345\3635\321\035\331\230\177"
 176      15FF3E84 
 176      E5F335D1 
 176      1DD9987F 
 177 0ab1 A1BD5FEE 		.ascii	"\241\275_\356J\011U\331\372\"\254\367sx\255\277\225"
 177      4A0955D9 
 177      FA22ACF7 
 177      7378ADBF 
 177      95
 178 0ac2 F562A4F5 		.ascii	"\365b\244\365bu\3612\237B\340\266\021\035\355\011\267"
 178      6275F132 
 178      9F42E0B6 
 178      111DED09 
 178      B7
 179 0ad3 C67C2B47 		.ascii	"\306|+G\353\306\267\036t\273\035\024\3157n_\265\346"
 179      EBC6B71E 
 179      74BB1D14 
 179      CD376E5F 
 179      B5E6
 180 0ae5 DD7B7443 		.ascii	"\335{tC|\315\332\307\035xu\301\213%\355s\015\220\264"
 180      7CCDDAC7 
 180      1D7875C1 
 180      8B25ED73 
 180      0D90B4
 181 0af8 F7EA4C63 		.ascii	"\367\352Lc\027p\037\332\340kd\343\315\343\265fMY\220"
 181      17701FDA 
 181      E06B64E3 
 181      CDE3B566 
 181      4D5990
 182 0b0b 99B3F93B 		.ascii	"\231\263\371;\355\\\275\247\352\377\230\003\211%\266"
 182      ED5CBDA7 
 182      EAFF9803 
 182      8925B6
 183 0b1a 2EF6E10E 		.ascii	".\366\341\016+\270\375\022.N\307\357\033\206 \257p\014"
 183      2BB8FD12 
 183      2E4EC7EF 
 183      1B8620AF 
 183      700C
 184 0b2c 7D147240 		.ascii	"}\024r@\325]T|ce\221\356r\017\3710,\202\377\276\330"
 184      D55D547C 
 184      636591EE 
 184      720FF930 
 184      2C82FFBE 
 185 0b41 E17C7A50 		.ascii	"\341|zP&\302C\272$\275\204\301$D\357>\216\211\321Hs"
ARM GAS  C:\Users\victo\AppData\Local\Temp\ccFkh5tB.s 			page 15


 185      26C243BA 
 185      24BD84C1 
 185      2444EF3E 
 185      8E89D148 
 186 0b56 C0E1D6FC 		.ascii	"\300\341\326\374\307\356\030\361r\214\004\264\335\022"
 186      C7EE18F1 
 186      728C04B4 
 186      DD12
 187 0b64 E4DD43E6 		.ascii	"\344\335C\346\272g2\327\345\024\305\325\262{\276\313"
 187      BA6732D7 
 187      E514C5D5 
 187      B27BBECB 
 188 0b74 C2707EC1 		.ascii	"\302p~\301\253wZ-\236G\244\341\216\252V{\223\340\262"
 188      AB775A2D 
 188      9E47A4E1 
 188      8EAA567B 
 188      93E0B2
 189 0b87 AE1CC2AE 		.ascii	"\256\034\302\256\241\217\261D\237\371bW\003[\255\237"
 189      A18FB144 
 189      9FF96257 
 189      035BAD9F 
 190 0b97 D123CA71 		.ascii	"\321#\312q\256P\305\3630\221Z\276uX\257\023R\257D\335"
 190      AE50C5F3 
 190      30915ABE 
 190      7558AF13 
 190      52AF44DD 
 191 0bab 242EA330 		.ascii	"$.\2430m\274r8)AO\241\261\226\261+\207*\236]\376\351"
 191      6DBC7238 
 191      29414FA1 
 191      B196B12B 
 191      872A9E5D 
 192 0bc1 30509204 		.ascii	"0P\222\004:\255\233\331\357(\014\236i\337\236\335\031"
 192      3AAD9BD9 
 192      EF280C9E 
 192      69DF9EDD 
 192      19
 193 0bd2 097A16D9 		.ascii	"\011z\026\331}\307v\227Ua\241\366pl\257\277\347$\216"
 193      7DC77697 
 193      5561A1F6 
 193      706CAFBF 
 193      E7248E
 194 0be5 05A6512C 		.ascii	"\005\246Q,\270=\345\202[\263!\232/\270\377jm\301=\257"
 194      B83DE582 
 194      5BB3219A 
 194      2FB8FF6A 
 194      6DC13DAF 
 195 0bf9 33FCF7AC 		.ascii	"3\374\367\254\275tZ\003u\332d\021=;\371\014\177o\025"
 195      BD745A03 
 195      75DA6411 
 195      3D3BF90C 
 195      7F6F15
 196 0c0c 3DBDE471 		.ascii	"=\275\344q:%\\x\341\306\260\235W\320E\334M\342\222\367"
 196      3A255C78 
 196      E1C6B09D 
 196      57D045DC 
 196      4DE292F7 
 197 0c20 51E18F69 		.ascii	"Q\341\217iV\004.H\257\272\010\364O\310\235\355\026s"
ARM GAS  C:\Users\victo\AppData\Local\Temp\ccFkh5tB.s 			page 16


 197      56042E48 
 197      AFBA08F4 
 197      4FC89DED 
 197      1673
 198 0c32 3B36C60F 		.ascii	";6\306\017\264\323\271\244\232\025\014\247X,\302\376"
 198      B4D3B9A4 
 198      9A150CA7 
 198      582CC2FE 
 199 0c42 87FD6BBD 		.ascii	"\207\375k\275\232qR$\316%\235\"\313\031\204\274\206"
 199      9A715224 
 199      CE259D22 
 199      CB1984BC 
 199      86
 200 0c53 30D06D49 		.ascii	"0\320mI\252P\344,Wd\271\225\"\275y\032(?\\\026\276\224"
 200      AA50E42C 
 200      5764B995 
 200      22BD791A 
 200      283F5C16 
 201 0c69 2B62775F 		.ascii	"+bw_\177\031X\247J\337\017\277\306\001M\304\341sF\232"
 201      7F1958A7 
 201      4ADF0FBF 
 201      C6014DC4 
 201      E173469A 
 202 0c7d 5C14AEA8 		.ascii	"\\\024\256\250o8\250\330>\351\\\225\000\351\350J&\006"
 202      6F38A8D8 
 202      3EE95C95 
 202      00E9E84A 
 202      2606
 203 0c8f 125F1D2E 		.ascii	"\022_\035.6\030\376\257\261\261\353\227\031\322\237"
 203      3618FEAF 
 203      B1B1EB97 
 203      19D29F
 204 0c9e 3275CE6E 		.ascii	"2u\316n&\034H\336\260\030U\205d\265)\221]\223\243\\"
 204      261C48DE 
 204      B0185585 
 204      64B52991 
 204      5D93A35C 
 205 0cb2 47CA66C2 		.ascii	"G\312f\302\334\277:\374\350\333\271\377\015\011\224"
 205      DCBF3AFC 
 205      E8DBB9FF 
 205      0D0994
 206 0cc1 CDB2D295 		.ascii	"\315\262\322\225\242\253\341\350*\236\035\025r\223G"
 206      A2ABE1E8 
 206      2A9E1D15 
 206      729347
 207 0cd0 431F99D9 		.ascii	"C\037\231\331\353\303_p\233\254\2645C.6\015|K\0328G"
 207      EBC35F70 
 207      9BACB435 
 207      432E360D 
 207      7C4B1A38 
 208 0ce5 B77B5A65 		.ascii	"\267{Ze\013\304\366\332\237+A\362\270aCW\026\030\030"
 208      0BC4F6DA 
 208      9F2B41F2 
 208      B8614357 
 208      161818
 209 0cf8 4C20013E 		.ascii	"L \001>\000\327\362b%\020\337\016e\230+oU8\213\226\024"
 209      00D7F262 
ARM GAS  C:\Users\victo\AppData\Local\Temp\ccFkh5tB.s 			page 17


 209      2510DF0E 
 209      65982B6F 
 209      55388B96 
 210 0d0d BAB63E75 		.ascii	"\272\266>u\005.\271\232\263B\362U\341\270}\225D\302"
 210      052EB99A 
 210      B342F255 
 210      E1B87D95 
 210      44C2
 211 0d1f D681BB11 		.ascii	"\326\201\273\021r>\354f\375\333\314^\362j\303@\017|"
 211      723EEC66 
 211      FDDBCC5E 
 211      F26AC340 
 211      0F7C
 212 0d31 FFE5F6EA 		.ascii	"\377\345\366\352\007Ht\344<\363\221\234xW12n\221\331"
 212      074874E4 
 212      3CF3919C 
 212      78573132 
 212      6E91D9
 213 0d44 503ECA38 		.ascii	"P>\3128\276\235\217\213\356\304~_CZ[\353\013t\316\264"
 213      BE9D8F8B 
 213      EEC47E5F 
 213      435A5BEB 
 213      0B74CEB4 
 214 0d58 96F01EFB 		.ascii	"\226\360\036\373\037\335\256\346[c\013u\247BG7\017w"
 214      1FDDAEE6 
 214      5B630B75 
 214      A7424737 
 214      0F77
 215 0d6a D06FD612 		.ascii	"\320o\326\022\244\323_YA\030\237\007\007\370E\325\272"
 215      A4D35F59 
 215      41189F07 
 215      07F845D5 
 215      BA
 216 0d7b 56E9DCD5 		.ascii	"V\351\334\325\321YO\240\007\356\314\035\032\375\036"
 216      D1594FA0 
 216      07EECC1D 
 216      1AFD1E
 217 0d8a 8EBE9E79 		.ascii	"\216\276\236y\355\2652\3577\031\373\2768a\000\333\001"
 217      EDB532EF 
 217      3719FBBE 
 217      386100DB 
 217      01
 218 0d9b D21B6B22 		.ascii	"\322\033k\"D\204nt<B\037H\227/\322i\021B\000\010\357"
 218      44846E74 
 218      3C421F48 
 218      972FD269 
 218      11420008 
 219 0db0 7ADF3E24 		.ascii	"z\337>$\213%l\011*\027\302\224;\\\033\361\226!Y*\201"
 219      8B256C09 
 219      2A17C294 
 219      3B5C1BF1 
 219      9621592A 
 220 0dc5 1E32177B 		.ascii	"\0362\027{nz\234\201\356\352\331A\241\241\311\2140P"
 220      6E7A9C81 
 220      EEEAD941 
 220      A1A1C98C 
 220      3050
ARM GAS  C:\Users\victo\AppData\Local\Temp\ccFkh5tB.s 			page 18


 221 0dd7 2E170D11 		.ascii	".\027\015\021s\337t@{\314\200\012\217og\267\263\206"
 221      73DF7440 
 221      7BCC800A 
 221      8F6F67B7 
 221      B386
 222 0de9 26BAE378 		.ascii	"&\272\343x\"\016l/\016\3619\337\004\215\314\207N\206"
 222      220E6C2F 
 222      0EF139DF 
 222      048DCC87 
 222      4E86
 223 0dfb B103DB65 		.ascii	"\261\003\333eq\205{'*\365\246\3254\376,\247\345\251"
 223      71857B27 
 223      2AF5A6D5 
 223      34FE2CA7 
 223      E5A9
 224 0e0d CE809B09 		.ascii	"\316\200\233\011\200\210\243\2404\240\335\376\317\320"
 224      8088A3A0 
 224      34A0DDFE 
 224      CFD0
 225 0e1b 529B99A5 		.ascii	"R\233\231\245\202S\272\363\3661[+\177d\267\310O\305"
 225      8253BAF3 
 225      F6315B2B 
 225      7F64B7C8 
 225      4FC5
 226 0e2d 7275F5EC 		.ascii	"ru\365\354\375\000\255\031\242LB<\027\313\036\030\305"
 226      FD00AD19 
 226      A24C423C 
 226      17CB1E18 
 226      C5
 227 0e3e 57AEDA99 		.ascii	"W\256\332\231'\30519\002\224\312K\010m`\027\312\351"
 227      27C53139 
 227      0294CA4B 
 227      086D6017 
 227      CAE9
 228 0e50 623BB73D 		.ascii	"b;\267=\350^\246\325\365o\271D\254\320-\200\221\004"
 228      E85EA6D5 
 228      F56FB944 
 228      ACD02D80 
 228      9104
 229 0e62 405E3B2D 		.ascii	"@^;-G\022\2535o\220\274i\313\214\274\301]2\312\361\004"
 229      4712AB35 
 229      6F90BC69 
 229      CB8CBCC1 
 229      5D32CAF1 
 230 0e77 F942E6B6 		.ascii	"\371B\346\266J]\202\334\342x\202\254\222 \325j\313{"
 230      4A5D82DC 
 230      E27882AC 
 230      9220D56A 
 230      CB7B
 231 0e89 C5AD04D8 		.ascii	"\305\255\004\330\324\212c\231\274\214\336F\3407\012"
 231      D48A6399 
 231      BC8CDE46 
 231      E0370A
 232 0e98 5559FA7C 		.ascii	"UY\372|/{/\375\022\277\004\"5T\331\026\231t\033a\227"
 232      2F7B2FFD 
 232      12BF0422 
 232      3554D916 
ARM GAS  C:\Users\victo\AppData\Local\Temp\ccFkh5tB.s 			page 19


 232      99741B61 
 233 0ead C94D05F1 		.ascii	"\311M\005\361N\242\263U>\033\014!\011\037\000\024\226"
 233      4EA2B355 
 233      3E1B0C21 
 233      091F0014 
 233      96
 234 0ebe 5DC69CCC 		.ascii	"]\306\234\314\277\000\220g>\215\236\371j\271\353\016"
 234      BF009067 
 234      3E8D9EF9 
 234      6AB9EB0E 
 235 0ece 016329A5 		.ascii	"\001c)\245d\007\001\224\301\351\225\227\340Uq\336\216"
 235      64070194 
 235      C1E99597 
 235      E05571DE 
 235      8E
 236 0edf A79B3CB1 		.ascii	"\247\233<\261\251\213B^\252\336\203\242\252/\365/%t"
 236      A98B425E 
 236      AADE83A2 
 236      AA2FF52F 
 236      2574
 237 0ef1 AB44FB0D 		.ascii	"\253D\373\015.\2566\302\027\004\203vU\033)\302P%z\012"
 237      2EAE36C2 
 237      17048376 
 237      551B29C2 
 237      50257A0A 
 238 0f05 3BDBDF89 		.ascii	";\333\337\211\214\342\226\212~\315R\362p\257?\315\327"
 238      8CE2968A 
 238      7ECD52F2 
 238      70AF3FCD 
 238      D7
 239 0f16 C9D3FC2F 		.ascii	"\311\323\374/:s\357r\334\334\257\244\271\353u\307\371"
 239      3A73EF72 
 239      DCDCAFA4 
 239      B9EB75C7 
 239      F9
 240 0f27 DD04D800 		.ascii	"\335\004\330\000\030\213/\261c\216!\255\235\337\033"
 240      188B2FB1 
 240      638E21AD 
 240      9DDF1B
 241 0f36 E4F9BD8A 		.ascii	"\344\371\275\212\257U\261\004\372\260\023\374t\033\007"
 241      AF55B104 
 241      FAB013FC 
 241      741B07
 242 0f45 F8DFE301 		.ascii	"\370\337\343\001~7\341\331\242\021\203)\226u\250\270"
 242      7E37E1D9 
 242      A2118329 
 242      9675A8B8 
 243 0f55 137998EB 		.ascii	"\023y\230\353\264\327q\235\232\244N&\255\345\031~\037"
 243      B4D7719D 
 243      9AA44E26 
 243      ADE5197E 
 243      1F
 244 0f66 01A0361E 		.ascii	"\001\2406\036\333\3754\001\353\257\001\307}\334\017"
 244      DBFD3401 
 244      EBAF01C7 
 244      7DDC0F
 245 0f75 33938ABC 		.ascii	"3\223\212\274\031|\034\255\005\232\215\346\354\343\270"
ARM GAS  C:\Users\victo\AppData\Local\Temp\ccFkh5tB.s 			page 20


 245      197C1CAD 
 245      059A8DE6 
 245      ECE3B8
 246 0f84 FBD0D827 		.ascii	"\373\320\330'i\304\254\351\0341\216\255X\303\224\025"
 246      69C4ACE9 
 246      1C318EAD 
 246      58C39415 
 247 0f94 167885E9 		.ascii	"\026x\205\351\337\036\277\326\251\245I\231"
 247      DF1EBFD6 
 247      A9A54999 
 248 0fa0 15B011FF 		.ascii	"\025\260\021\377($\206[@Fj)8\323\0162\204\000\316\320"
 248      2824865B 
 248      40466A29 
 248      38D30E32 
 248      8400CED0 
 249 0fb4 44CF52A2 		.ascii	"D\317R\242\326\252;\261\254\016%\024v8\270&\366\215"
 249      D6AA3BB1 
 249      AC0E2514 
 249      7638B826 
 249      F68D
 250 0fc6 BE231C5D 		.ascii	"\276#\034]\265\212\363\021\315\207\376\323\342\320\177"
 250      B58AF311 
 250      CD87FED3 
 250      E2D07F
 251 0fd5 A0D59532 		.ascii	"\240\325\2252@k\231\"\017\022\350\201o\217\034Z)W\240"
 251      406B9922 
 251      0F12E881 
 251      6F8F1C5A 
 251      2957A0
 252 0fe8 C50EF295 		.ascii	"\305\016\362\225\362\241H\221vW\312\225\232\325\267"
 252      F2A14891 
 252      7657CA95 
 252      9AD5B7
 253 0ff7 1E23E522 		.ascii	"\036#\345\"\361,R\234)"
 253      F12C529C 
 253      29
 254 1000 EC1E4B57 		.ascii	"\354\036KWiVk\354(y\237\320xF(\232@ZK\233\201Z\313\264"
 254      69566BEC 
 254      28799FD0 
 254      7846289A 
 254      405A4B9B 
 255 1018 7984400F 		.ascii	"y\204@\017\334\022\265\270\254;b\2357GK{f\236-\342\007"
 255      DC12B5B8 
 255      AC3B629D 
 255      37474B7B 
 255      669E2DE2 
 256 102d 96A32DC3 		.ascii	"\226\243-\303\304\3172\255e\240\254\206\201\350d\233"
 256      C4CF32AD 
 256      65A0AC86 
 256      81E8649B 
 257 103d BE6BF68A 		.ascii	"\276k\366\212\243\334\353\253\245\327\037s\334\353\327"
 257      A3DCEBAB 
 257      A5D71F73 
 257      DCEBD7
 258 104c 48F75CAB 		.ascii	"H\367\\\253\265L\007\307\035O\341A\022d\235\306>JJ\227"
 258      B54C07C7 
 258      1D4FE141 
ARM GAS  C:\Users\victo\AppData\Local\Temp\ccFkh5tB.s 			page 21


 258      12649DC6 
 258      3E4A4A97 
 259 1060 9724C708 		.ascii	"\227$\307\010@q\225\307\310]fM\244X\270\355\256n\353"
 259      407195C7 
 259      C85D664D 
 259      A458B8ED 
 259      AE6EEB
 260 1073 3579A8A3 		.ascii	"5y\250\243\311\256^&\273D\307\223\335\006M$\273`\235"
 260      C9AE5E26 
 260      BB44C793 
 260      DD064D24 
 260      BB609D
 261 1086 76271D37 		.ascii	"v'\0357\321F\251]\210\3262\331\235\"\300\006\300Z&\257"
 261      D146A95D 
 261      88D632D9 
 261      9D22C006 
 261      C05A26AF 
 262 109a 242267A5 		.ascii	"$\"g\245\225\344uJ$\257\037\321\315\223\3704\326\313"
 262      95E4754A 
 262      24AF1FD1 
 262      CD93F834 
 262      D6CB
 263 10ac 693CE338 		.ascii	"i<\3438\307P\311\361']\362:K\000\250\215\311k\223\204"
 263      C750C9F1 
 263      275DF23A 
 263      4B00A88D 
 263      C96B9384 
 264 10c0 DD8C1CCF 		.ascii	"\335\214\034\317\262\0044VNc\343\233\2471Lk~\325\035"
 264      B2043456 
 264      4E63E39B 
 264      A7314C6B 
 264      7ED51D
 265 10d3 52D11429 		.ascii	"R\321\024)n\307\316;\276k\015\327\304\2560B\227Q\222"
 265      6EC7CE3B 
 265      BE6B0DD7 
 265      C4AE3042 
 265      975192
 266 10e6 0900B5F1 		.ascii	"\011\000\265\361F,R\302F\241v\311L\273q\362\014\237"
 266      462C52C2 
 266      46A176C9 
 266      4CBB71F2 
 266      0C9F
 267 10f8 12F5C6C4 		.ascii	"\022\365\306\304\261\005\264\023G\237\361\315o*\322"
 267      B105B413 
 267      479FF1CD 
 267      6F2AD2
 268 1107 C4162C05 		.ascii	"\304\026,\005\324\274y.\355\377\331\267tb\007V\263\365"
 268      D4BC792E 
 268      EDFFD9B7 
 268      74620756 
 268      B3F5
 269 1119 9A9FA7D5 		.ascii	"\232\237\247\325R\250\311\253l]*\271D\000\243\371\326"
 269      52A8C9AB 
 269      6C5D2AB9 
 269      4400A3F9 
 269      D6
 270 112a 61B9A8B6 		.ascii	"a\271\250\266\312$\357)\001\316x\357?A\011JU\330\361"
ARM GAS  C:\Users\victo\AppData\Local\Temp\ccFkh5tB.s 			page 22


 270      CA24EF29 
 270      01CE78EF 
 270      3F41094A 
 270      55D8F1
 271 113d 20374ADC 		.ascii	" 7J\334O\244\331r#\333\267\001\333\345|\357\320\305"
 271      4FA4D972 
 271      23DBB701 
 271      DBE57CEF 
 271      D0C5
 272 114f CB155B20 		.ascii	"\313\025[ \2566AvJ\220h\231\015\232\271\000\024\247"
 272      AE364176 
 272      4A906899 
 272      0D9AB900 
 272      14A7
 273 1161 3D51B9E4 		.ascii	"=Q\271\344\303v2\205Q\307\271\272Wm\005\267\233\315"
 273      C3763285 
 273      51C7B9BA 
 273      576D05B7 
 273      9BCD
 274 1173 E0DE2583 		.ascii	"\340\336%\203{\267\216l\272\343\032\307H\262\261\272"
 274      7BB78E6C 
 274      BAE31AC7 
 274      48B2B1BA 
 275 1183 E0CE20C0 		.ascii	"\340\316 \300\006\300\254_Mf\222\026\261L0\2223D$\357"
 275      06C0AC5F 
 275      4D669216 
 275      B14C3092 
 275      334424EF 
 276 1197 D1F8BBF4 		.ascii	"\321\370\273\364U\351\034%\213@\037$w\177$w\246c\273"
 276      55E91C25 
 276      8B401F24 
 276      777F2477 
 276      A663BB
 277 11aa 0F36B153 		.ascii	"\0176\261S\206E\274l}Qk\316\360\340\331a28\304^\351"
 277      8645BC6C 
 277      7D516BCE 
 277      F0E0D961 
 277      3238C45E 
 278 11bf 10FBD037 		.ascii	"\020\373\3207\263xv(\224\323z\335q%\367K%\343t\331\341"
 278      B3787628 
 278      94D37ADD 
 278      7125F74B 
 278      25E374D9 
 279 11d4 0601A037 		.ascii	"\006\001\2407f\007\333\260\007$\354A\344x\203\305\317"
 279      6607DBB0 
 279      0724EC41 
 279      E47883C5 
 279      CF
 280 11e5 2436ADF4 		.ascii	"$6\255\364PS\334\203\343\265\242\336!\015\267\371a\221"
 280      5053DC83 
 280      E3B5A2DE 
 280      210DB7F9 
 280      6191
 281 11f7 7567F16D 		.ascii	"ug\361m\217G\023\335-\037\326\030\237\370\222(\356\357"
 281      8F4713DD 
 281      2D1FD618 
 281      9FF89228 
ARM GAS  C:\Users\victo\AppData\Local\Temp\ccFkh5tB.s 			page 23


 281      EEEF
 282 1209 B76C650B 		.ascii	"\267le\013\333/\274\343eX'\350b)\207\000\220\370\236"
 282      DB2FBCE3 
 282      655827E8 
 282      62298700 
 282      90F89E
 283 121c 29CF5C46 		.ascii	")\317\\FD\275\325\247D\223\225\242\016,\204J\243rx\203"
 283      44BDD5A7 
 283      449395A2 
 283      0E2C844A 
 283      A3727883 
 284 1230 5CC7473F 		.ascii	"\\\307G?\"G?\252\263u>\341@\362`\340IU=\246\265\236"
 284      22473FAA 
 284      B3753EE1 
 284      40F260E0 
 284      49553DA6 
 285 1246 BA6C8F72 		.ascii	"\272l\217r\\\216r\002M\237\317L?\005\343\037\236f(\301"
 285      5C8E7202 
 285      4D9FCF4C 
 285      3F05E31F 
 285      9E6628C1 
 286 125a 990A7F31 		.ascii	"\231\012\1771t\245\250\013c\220\212W\357\366>\375I\324"
 286      74A5A80B 
 286      63908A57 
 286      EFF63EFD 
 286      49D4
 287 126c 59EB3281 		.ascii	"Y\3532\201\036\315/\202N\021Qou\370\231JS\017\337e\311"
 287      1ECD2F82 
 287      4E11516F 
 287      75F8994A 
 287      530FDF65 
 288 1281 6499DC14 		.ascii	"d\231\334\024\232\306\336=\231D\272;^\237\237iu:?)\247"
 288      9AC6DE3D 
 288      9944BA3B 
 288      5E9F9F69 
 288      753A3F29 
 289 1296 FF94C6EF 		.ascii	"\377\224\306\357@\001l\232\314\237\227\262\242\371\216"
 289      40016C9A 
 289      CC9F97B2 
 289      A2F98E
 290 12a5 A8003857 		.ascii	"\250\0008WE\2570sD\371\"\365P\203\305*\201&I\304\323"
 290      45AF3073 
 290      44F922F5 
 290      5083C52A 
 290      812649C4 
 291 12ba 3A350A09 		.ascii	":5\012\011\007I\313\316\272\346\304\277\020hjrV\310"
 291      0749CBCE 
 291      BAE6C4BF 
 291      10686A72 
 291      56C8
 292 12cc 199DE9ED 		.ascii	"\031\235\351\355B\236E\033\027\362K\215\206\250yow\313"
 292      429E451B 
 292      17F24B8D 
 292      86A8796F 
 292      77CB
 293 12de 2EE7CAA2 		.ascii	".\347\312\242\361[v\366\271uV4\247x\257\325]\364y\235"
 293      F15B76F6 
ARM GAS  C:\Users\victo\AppData\Local\Temp\ccFkh5tB.s 			page 24


 293      B9755634 
 293      A778AFD5 
 293      5DF4799D 
 294 12f2 42F709F4 		.ascii	"B\367\011\364p\374UY2\262\277\317\017dO\262\370\001"
 294      70FC5559 
 294      32B2BFCF 
 294      0F644FB2 
 294      F801
 295 1304 B8A8D541 		.ascii	"\270\250\325A/\350\006-&\274G\315\221\373\323\230\021"
 295      2FE8062D 
 295      26BC47CD 
 295      91FBD398 
 295      11
 296 1315 EBF09072 		.ascii	"\353\360\220rQoD{\210)H\243\230\323\310\311\027\023"
 296      516F447B 
 296      882948A3 
 296      98D3C8C9 
 296      1713
 297 1327 5C4A5A33 		.ascii	"\\JZ3\375%\335\202\377\220\360\036!\215%\001n\374s\023"
 297      FD25DD82 
 297      FF90F01E 
 297      218D2501 
 297      6EFC7313 
 298 133b BA202824 		.ascii	"\272 ($\325\321\331\274\214D\036\262\210\231\016\337"
 298      D5D1D9BC 
 298      8C441EB2 
 298      88990EDF 
 299 134b 4DDE217E 		.ascii	"M\336!~\226\354\032\027\350\310>a\243\307\241\001t\317"
 299      96EC1A17 
 299      E8C83E61 
 299      A3C7A101 
 299      74CF
 300 135d 3064C4BC 		.ascii	"0d\304\274\337.\\\274p\351\347\313\026.\230?g\311?\226"
 300      DF2E5CBC 
 300      70E9E7CB 
 300      162E983F 
 300      67C93F96 
 301 1371 7EB170DE 		.ascii	"~\261p\336\3549Kf\215\233\367\341\354\217\346\177\364"
 301      EC394B66 
 301      8D9BF7E1 
 301      EC8FE67F 
 301      F4
 302 1382 C1FC8FC6 		.ascii	"\301\374\217\306\314\232\377\321\357\3778\342\013\305"
 302      CC9AFFD1 
 302      EFFF38E2 
 302      0BC5
 303 1390 75C1578B 		.ascii	"u\301W\213\026\315Z\362\217\305\313\334\027.^\360\307"
 303      16CD5AF2 
 303      8FC5CBDC 
 303      172E5EF0 
 303      C7
 304 13a1 A59F2FFE 		.ascii	"\245\237/\376v\321\302\245\377\003\371:\332\277"
 304      76D1C2A5 
 304      FF03F93A 
 304      DABF
 305              		.text
 306              		.section	.gnu.lto_.symbol_nodes.92f66c45,"",%progbits
ARM GAS  C:\Users\victo\AppData\Local\Temp\ccFkh5tB.s 			page 25


 307 0000 789C2DC4 		.ascii	"x\234-\304\271\015\2000\020E\301\347c}\221P \275l\013"
 307      B90D8030 
 307      1045C1E7 
 307      637D9150 
 307      20BD6C0B 
 308 0014 0E881115 		.ascii	"\016\210\021\025\221R\003]\300\227\230`\022\260\361"
 308      9152035D 
 308      C0979860 
 308      12B0F1
 309 0023 8B38CC0B 		.ascii	"\2138\314\013\3349\316\206\005V\307b\320)\352\234\264"
 309      DC39CE86 
 309      0556C762 
 309      D029EA9C 
 309      B4
 310 0034 655D4CD7 		.ascii	"e]L\327\242[\325\275\351\321\3652\2763\354\317\035\340"
 310      A25BD5BD 
 310      E9D1F532 
 310      BE33ECCF 
 310      1DE0
 311 0046 059D550D 		.ascii	"\005\235U\015\261"
 311      B1
 312              		.text
 313              		.section	.gnu.lto_.refs.92f66c45,"",%progbits
 314 0000 789C1D8C 		.ascii	"x\234\035\214\337*\304Q\024\205\277u\36693\277\341B"
 314      DF2AC451 
 314      1485BF75 
 314      F63933BF 
 314      E142
 315 0012 4D4484F2 		.ascii	"MD\204\362\006J\224\360l\314\013\210[.\271\221w0Ea\032"
 315      064A94F0 
 315      6CCC0B88 
 315      5B2EB991 
 315      77304561 
 316 0027 6E302EFC 		.ascii	"n0.\374IIR\206\270E\254\234Z}\273o\235\275\003h\212"
 316      49495286 
 316      B845AC9C 
 316      5A7DBB6F 
 316      9DBD0368 
 317 003c FF77EA28 		.ascii	"\377w\352(\221\032\244!\242\251\030&F\024\243\304\230"
 317      911AA421 
 317      A2A91826 
 317      4614A3C4 
 317      98
 318 004d 629C9850 		.ascii	"b\234\230PL*M\221\246I3\344YbN1O^\240,\252,Q\226U[Q"
 318      4C2A4D91 
 318      A64933E4 
 318      59624E31 
 318      4F5EA02C 
 319 0068 6E431CA3 		.ascii	"nC\034\243\360\271\350\230]\037=\203\372\025T=\347\006"
 319      F0B9E898 
 319      5D1F3D83 
 319      FA15543D 
 319      E706
 320 007a 5577EE9E 		.ascii	"Uw\356\236\335\275\230\257\346\233\371n~\370\357'\324"
 320      DDBD98AF 
 320      E69BF96E 
 320      7EF8EF27 
ARM GAS  C:\Users\victo\AppData\Local\Temp\ccFkh5tB.s 			page 26


 320      D4
 321 008b BE50F9B6 		.ascii	"\276P\371\266\373\261\373\265[\025\2155Q\265D\254K\261"
 321      FBB1FBB5 
 321      5B158D35 
 321      51B544AC 
 321      4BB1
 322 009d 21A54DBB 		.ascii	"!\245M\273-\273mQ\3371w\235=\251\3327\017\334\265\355"
 322      2DBB6D51 
 322      DF31779D 
 322      3DA9DA37 
 322      0FDCB5ED 
 323 00b1 0F3D1F39 		.ascii	"\017=\0379'\366\035\357v\275{.\312\205\030\270\024\203"
 323      27F61DEF 
 323      76BD7B2E 
 323      CA8518B8 
 323      1483
 324 00c3 3DCFD7CE 		.ascii	"=\317\327\316\255T\356E~p\036\245\374\344\373}\361\007"
 324      AD54EE45 
 324      7E701EA5 
 324      FCE4FB7D 
 324      F107
 325 00d5 A9772DCB 		.ascii	"\251w-\313"
 326              		.text
 327              		.section	.gnu.lto_.decls.92f66c45,"",%progbits
 328 0000 789CAD95 		.ascii	"x\234\255\225kH[g\030\307\317{^\257\307\243\326\026"
 328      6B485B67 
 328      18C7CF7B 
 328      5EAFC7A3 
 328      D616
 329 0012 B448194A 		.ascii	"\264H\031JA\330\020\007v\037\366m\243Bk\030tR\335\366"
 329      41D81007 
 329      761FF66D 
 329      A3426B18 
 329      7452DDF6 
 330 0026 618288A6 		.ascii	"a\202\210\246\233`cI\3426\367\351\230H\315\272u\024"
 330      9B606349 
 330      E236F7E9 
 330      9848CDBA 
 330      7514
 331 0038 D16A9559 		.ascii	"\321j\225Ym]\275[\253\306z\211\227\326y\211\361^/\211"
 331      6D5DBD5B 
 331      ABC67A89 
 331      97D67989 
 331      F15E2F89 
 332 004c 06577545 		.ascii	"\006WuE7\347\246(2\3530{\316\373\236\345\352h?\354\300"
 332      37E7A628 
 332      32EB307B 
 332      CEFB9EE5 
 332      EA683FEC 
 333 0061 DFE47DF2 		.ascii	"\337\344}\362<\277\347\362>\211\230a\230\015\220\015"
 333      3CBFE7F2 
 333      3E899861 
 333      980D900D 
 334 0071 9E33BE0C 		.ascii	"\2363\276\014\323\200\030\206\205s\002\343x\300\304"
 334      D3801886 
 334      857302E3 
 334      78C0C4
ARM GAS  C:\Users\victo\AppData\Local\Temp\ccFkh5tB.s 			page 27


 335 0080 34800240 		.ascii	"4\200\002@m \003\250\027\324\017\032\001\215\202\306"
 335      6D2003A8 
 335      17D40F1A 
 335      018D82C6 
 336 0090 4193A069 		.ascii	"A\223\240i\3203\320\034\343\372\210\361!\0227\010\304"
 336      D033D01C 
 336      E3FA88F1 
 336      21123708 
 336      C4
 337 00a1 83064191 		.ascii	"\203\006A\221\240fP(\310\004\232\007=\002\325\202\026"
 337      A0665028 
 337      C8049A07 
 337      3D02D582 
 337      16
 338 00b2 41165017 		.ascii	"A\026P\027h\0114\004\262\376\2175\355\260\310\264\372"
 338      68093404 
 338      B2FE8F35 
 338      EDB0C8B4 
 338      FA
 339 00c3 D72EBFC1 		.ascii	"\327.\277\301\242 \356\204x,]x\261\207\341\310s\254"
 339      A220EE84 
 339      782C5D78 
 339      B187E1C8 
 339      73AC
 340 00d5 786C3FD8 		.ascii	"xl?\330\177\350\023V$\210\217V8\301\242\204PT\215\302"
 340      7FE81356 
 340      24888F56 
 340      38C1A284 
 340      50548DC2 
 341 00e9 510D0A87 		.ascii	"Q\015\012\207\012jQ\030\374\375\324\213\222\032\177"
 341      0A6A5118 
 341      FCFDD48B 
 341      921A7F
 342 00f8 5B2B4498 		.ascii	"[+D\230E\342\373\373%+\263\\t\035D\351\204\376\021\326"
 342      45E2FBFB 
 342      252BB35C 
 342      741D44E9 
 342      84FE11D6 
 343 010c 916EEEE5 		.ascii	"\221n\356\345\334\357\276\021\345BE\363vG\351 /\324"
 343      DCEFBE11 
 343      E54245F3 
 343      7647E920 
 343      2FD4
 344 011e 08FD36DB 		.ascii	"\010\3756\333{\004\205\352\020F\365(\2324\007\357i\227"
 344      7B0485EA 
 344      1046F528 
 344      9A3407EF 
 344      6997
 345 0130 0D2802C2 		.ascii	"\015(\002\302:\233\366\306\003H\225\021\"\245\253`\244"
 345      3A9BF6C6 
 345      03489511 
 345      22A5AB60 
 345      A4
 346 0141 C48754E9 		.ascii	"\304\207T\351%\036;G\364\253\010\307\221\314Vc\367\002"
 346      251E3B47 
 346      F4AB08C7 
 346      91CC5663 
ARM GAS  C:\Users\victo\AppData\Local\Temp\ccFkh5tB.s 			page 28


 346      F702
 347 0153 C7DF1004 		.ascii	"\307\337\020\004\215pK+\370\307\023r#\224\334DJnF\274"
 347      8D704B2B 
 347      F8C71372 
 347      2394DC44 
 347      4A6E46BC 
 348 0167 94638765 		.ascii	"\224c\207e\247\232\226\015>\210\217\372\017o\324\202"
 348      A79A960D 
 348      3E888FFA 
 348      0F6FD482 
 349 0177 A29C02AA 		.ascii	"\242\234\002\252\240\233\355\032\355&\337(\010~\350"
 349      A09BED1A 
 349      ED26DF28 
 349      087EE8
 350 0186 11D81FDA 		.ascii	"\021\330\037\332\013\026\335\354=\326\347\377\361k\020"
 350      0B16DDEC 
 350      3DD6E7FF 
 350      F16B10
 351 0195 56927266 		.ascii	"V\222rf\207f\377\366>[)Th\266\313\006\227\317\334\021"
 351      8766FFF6 
 351      3E5B2954 
 351      68B6CB06 
 351      97CFDC11 
 352 01a9 2A351A01 		.ascii	"*5\032\001:F\004\320J\001N\365\265\322\276Q\033:\013"
 352      3A4604D0 
 352      4A014EF5 
 352      B5D2BE51 
 352      1B3A0B
 353 01bc D1B90FBA 		.ascii	"\321\271\017\272\277\363\205>C9\002\376\336T\372\004"
 353      BFF3853E 
 353      433902FE 
 353      DE54FA04 
 354 01cc 93A38DC0 		.ascii	"\223\243\215\300\347\373\362\363\375p\013\022\017\254"
 354      E7FBF2F3 
 354      FD700B12 
 354      0FAC
 355 01da C5527880 		.ascii	"\305Rx\200\021\027\245\023\233\331.\020\360i\006E\207"
 355      1117A513 
 355      9BD92E10 
 355      F0690645 
 355      87
 356 01eb A337A18F 		.ascii	"\2437\241\217N\350#\224#\245\"=\244j\207Tb7\3155\332"
 356      4EE82394 
 356      23A5223D 
 356      A46A8754 
 356      6237CD35 
 357 0200 262C085E 		.ascii	"&,\010^\250\003q\350\261\243\0311\235\324\213~\377F"
 357      A80371E8 
 357      B1A31931 
 357      9DD48B7E 
 357      FF46
 358 0212 6720A713 		.ascii	"g \247\023o\377\325L\360\337\235)\321\"\334AJBmK\017"
 358      6FFFD54C 
 358      F0DF9D29 
 358      D122DC41 
 358      4A426D4B 
 359 0227 F65868BE 		.ascii	"\366Xh\276J\273}\263z2\254XX\021\244\346\273 a\267\324"
ARM GAS  C:\Users\victo\AppData\Local\Temp\ccFkh5tB.s 			page 29


 359      4ABB7DB3 
 359      7A32AC58 
 359      5811A4E6 
 359      BB2061B7 
 360 023c 3C0532E2 		.ascii	"<\0052\342\231\264n \255/\3373\336f\3616\005\351W\327"
 360      99B46E20 
 360      AD2FDF33 
 360      DE66F136 
 360      05E957D7 
 361 0250 A731013D 		.ascii	"\2471\001=\037\331O~\232\233'\034\331l\224\322\343F"
 361      1FD94F7E 
 361      9A9B271C 
 361      D96C94D2 
 361      E346
 362 0262 E99128BD 		.ascii	"\351\221(\275\2042q\375\366\200\037\026\350R\256\225"
 362      843271FD 
 362      F6801F16 
 362      E852AE95 
 363 0272 99CBBD29 		.ascii	"\231\313\275)\305\372\322\225\322\347F\351\223(\375"
 363      C5FAD295 
 363      D2E746E9 
 363      9328FD
 364 0281 2ED71049 		.ascii	".\327\020I\257\341\347\262\203*\177r\024\1773\202E\323"
 364      AFE1E7B2 
 364      832A7F72 
 364      147F3382 
 364      45D3
 365 0293 8A79C1E0 		.ascii	"\212y\301\340\213\213I\036v\253Pc\013@Q\034]\230\201"
 365      8B8B491E 
 365      76AB5063 
 365      0B40511C 
 365      5D9881
 366 02a6 A60FB4C2 		.ascii	"\246\017\264\302\373h\020\262\0148F\034)\215Xg_=\306"
 366      FB6810B2 
 366      0C38461C 
 366      298D5867 
 366      5F3DC6
 367 02b9 B1773FC1 		.ascii	"\261w?\301l#\245\331>\001\343S:\333\316\242\351a\216"
 367      6C23A5D9 
 367      3E01E353 
 367      3ADBCEA2 
 367      E9618E
 368 02cc DEC56B46 		.ascii	"\336\305kF\030l{\206\000\\N\333\277\276V\370#/\335\306"
 368      186C7B86 
 368      005C4EDB 
 368      BFBE56F8 
 368      232FDDC6 
 369 02e0 FAFC1B4E 		.ascii	"\372\374\033N\2538\004\265\015{\254\342\2604\203\021"
 369      AB3804B5 
 369      0D7BACE2 
 369      B0348311 
 370 02f0 328349AB 		.ascii	"2\203I\2536\027c=E\025\366\015\334\014&\250\212\305"
 370      3617633D 
 370      4515F60D 
 370      DC0C26A8 
 370      8AC5
 371 0302 16E17C9E 		.ascii	"\026\341|\2364I\221c\364\340\030%\316(\341h\017\007"
ARM GAS  C:\Users\victo\AppData\Local\Temp\ccFkh5tB.s 			page 30


 371      34499163 
 371      F4E01825 
 371      CE28E168 
 371      0F07
 372 0314 26039DBF 		.ascii	"&\003\235\277\237\342\370\035\316&\372=\002\307\273"
 372      9FE2F81D 
 372      CE26FA3D 
 372      02C7BB
 373 0323 1BBBEB1C 		.ascii	"\033\273\353\0346\322\204\367\362\327-\376\344kTarJ"
 373      36D284F7 
 373      F2D72DFE 
 373      E46B5461 
 373      724A
 374 0335 08DE68CC 		.ascii	"\010\336h\314#\341\230\224p\234$\314\3332\352\374\360"
 374      23E19894 
 374      709C24CC 
 374      DB32EAFC 
 374      F0
 375 0346 12E5D8B6 		.ascii	"\022\345\330\266v\036\007\320\302\307\335\012\237\360"
 375      761E07D0 
 375      C2C7DD0A 
 375      9FF0
 376 0354 E04C489C 		.ascii	"\340LH\234I\272J\365\326:?\374'\345\350\1770/\007R\316"
 376      49BA4AF5 
 376      D63A3FFC 
 376      27E5E87F 
 376      302F0752 
 377 0369 981B67CA 		.ascii	"\230\033g\312\2033%q\246\011\247w\363\233#o\254\301"
 377      83332571 
 377      A609A777 
 377      F39B236F 
 377      ACC1
 378 037b 845369D6 		.ascii	"\204Si\326l\372R\216\305\2153\343\301\231\2218\317\010"
 378      6CFA528E 
 378      C58D33E3 
 378      C1999138 
 378      CF08
 379 038d 674ED732 		.ascii	"gN\3272\316\342\"\312\351\351\030\255\345\350|\314n"
 379      CEE222CA 
 379      E9E918AD 
 379      E5E87CCC 
 379      6E
 380 039e F399F5E0 		.ascii	"\363\231\365\340\314J\2349\30290w=g\235/D\374ar8\317"
 380      CC4A9C39 
 380      C2393077 
 380      3D679D2F 
 380      44FC6172 
 381 03b4 D30B115F 		.ascii	"\323\013\021_\301YW\320\276\351\215\253IR\266\277\365"
 381      C15957D0 
 381      BEE98DAB 
 381      4952B6BF 
 381      F5
 382 03c5 D6216FDF 		.ascii	"\326!o\337s\355\032o\024\177\030-P\373\202c\321\241"
 382      73ED1A6F 
 382      147F182D 
 382      50FB8263 
 382      D1A1
ARM GAS  C:\Users\victo\AppData\Local\Temp\ccFkh5tB.s 			page 31


 383 03d7 15FBA67B 		.ascii	"\025\373\246{\356\255\371\370\275}\361\313\335C\037"
 383      EEADF9F8 
 383      BD7DF1CB 
 383      DD431F
 384 03e6 E79A2C2E 		.ascii	"\347\232,.K\262(\325\264Hj\272stX\354\322\300\220\213"
 384      4BB228D5 
 384      B4486ABA 
 384      737458EC 
 384      D2C0908B 
 385 03fa F392E4BC 		.ascii	"\363\222\344\274D\234\357\033\276\325\272\374{0\271"
 385      449CEF1B 
 385      BED5BAFC 
 385      7B30B9
 386 0409 746B959C 		.ascii	"tk\225\234\305\327\240\370\004Y\212\354B\212,6.E\226"
 386      C5D7A0F8 
 386      04598AEC 
 386      428A2C36 
 386      2E4596
 387 041c 78D9E7E2 		.ascii	"x\331\347\342\245\217\"\342\230\267b\222/\312\025re"
 387      A58F22E2 
 387      98B76292 
 387      2FCA1572 
 387      65
 388 042d AA5A9E9E 		.ascii	"\252Z\236\236\222\230\225\255L\223''$f\305\275\223\354"
 388      929895AD 
 388      4C932727 
 388      2466C5BD 
 388      93EC
 389 043f EC7E2929 		.ascii	"\354~))&\215\341\323r2T\312\324\364t\245\\\245\212<"
 389      268DE1D3 
 389      723254CA 
 389      D4F474A5 
 389      5CA58A3C 
 390 0453 3EEAEDB4 		.ascii	">\352\355\264\034u\3165\271*\346s\346\264\004H\313V"
 390      1C75CE35 
 390      B92AE673 
 390      E6B40448 
 390      CB56
 391 0465 A9B3AECA 		.ascii	"\251\263\256\312\024je|\252\"=S\256\214zU\312\204\217"
 391      146A657C 
 391      AA223D53 
 391      AE8C7A55 
 391      CA848F
 392 0478 9320DE3B 		.ascii	"\223 \336;;C\241~\227\227l*5\270\277V\2614:\370\337"
 392      3B43A17E 
 392      97976C2A 
 392      35B8BF56 
 392      B1343AF8 
 393 048d B8CC4488 		.ascii	"\270\314D\210\314V\205\332\317\037~!W^\310\314\3722"
 393      CC5685DA 
 393      CF1F7E21 
 393      575EC8CC 
 393      FA32
 394 049f 2E2B5BA1 		.ascii	".+[\241\366\021\223\234\213u|z9\375|\366\025\231\"]"
 394      F611939C 
 394      8B757C7A 
 394      39FD7CF6 
ARM GAS  C:\Users\victo\AppData\Local\Temp\ccFkh5tB.s 			page 32


 394      1599225D 
 395 04b3 FE55D2D5 		.ascii	"\376U\322\325k\247\2161\207\330m\237(\301\226\240V\236"
 395      6BA78E31 
 395      87D86D9F 
 395      28C196A0 
 395      569E
 396 04c5 72B510AF 		.ascii	"r\265\020\257\223\256\266\304\214\257\345']a\242)\304"
 396      93AEB6C4 
 396      8CAFE527 
 396      5D61A229 
 396      C4
 397 04d6 D5042C6F 		.ascii	"\325\004,o\245\374\263s\261\377\000\0025\356<"
 397      A5FCB373 
 397      B1FF0002 
 397      35EE3C
 398              		.text
 399              		.section	.gnu.lto_.symtab.92f66c45,"",%progbits
 400 0000 4850495F 		.ascii	"HPI_IF_I2C_ISR\000\000\000\000\000\000\000\000\000\000"
 400      49465F49 
 400      32435F49 
 400      53520000 
 400      00000000 
 401 0018 0000AC00 		.ascii	"\000\000\254\000\000\000HPI_IF_customIntrHandler\000"
 401      00004850 
 401      495F4946 
 401      5F637573 
 401      746F6D49 
 402 0037 00020000 		.ascii	"\000\002\000\000\000\000\000\000\000\000\000\264\000"
 402      00000000 
 402      000000B4 
 402      00
 403 0044 00004850 		.ascii	"\000\000HPI_IF_state\000\000\002\000\000\000\000\000"
 403      495F4946 
 403      5F737461 
 403      74650000 
 403      02000000 
 404 005a 00000000 		.ascii	"\000\000\000\000\274\000\000\000HPI_IF_slStatus\000"
 404      BC000000 
 404      4850495F 
 404      49465F73 
 404      6C537461 
 405 0072 00020000 		.ascii	"\000\002\000\000\000\000\000\000\000\000\000\276\000"
 405      00000000 
 405      000000BE 
 405      00
 406 007f 00004850 		.ascii	"\000\000HPI_IF_slOverFlowCount\000\000\002\000\000\000"
 406      495F4946 
 406      5F736C4F 
 406      76657246 
 406      6C6F7743 
 407 009d 00000000 		.ascii	"\000\000\000\000\000\000\300\000\000\000HPI_IF_slRd"
 407      0000C000 
 407      00004850 
 407      495F4946 
 407      5F736C52 
 408 00b2 42756649 		.ascii	"BufIndexTmp\000\000\002\000\000\000\000\000\000\000"
 408      6E646578 
ARM GAS  C:\Users\victo\AppData\Local\Temp\ccFkh5tB.s 			page 33


 408      546D7000 
 408      00020000 
 408      00000000 
 409 00c7 0000C800 		.ascii	"\000\000\310\000\000\000HPI_IF_slRdBufIndex\000\000"
 409      00004850 
 409      495F4946 
 409      5F736C52 
 409      64427566 
 410 00e2 02000000 		.ascii	"\002\000\000\000\000\000\000\000\000\000\312\000\000"
 410      00000000 
 410      0000CA00 
 410      00
 411 00ef 00485049 		.ascii	"\000HPI_IF_slWrBufPtr\000\000\002\000\000\000\000\000"
 411      5F49465F 
 411      736C5772 
 411      42756650 
 411      74720000 
 412 0109 00000000 		.ascii	"\000\000\000\000\315\000\000\000HPI_IF_slWrBufIndex"
 412      CD000000 
 412      4850495F 
 412      49465F73 
 412      6C577242 
 413 0124 00000200 		.ascii	"\000\000\002\000\000\000\000\000\000\000\000\000\317"
 413      00000000 
 413      00000000 
 413      CF
 414 0131 00000048 		.ascii	"\000\000\000HPI_IF_slWrBufSize\000\000\002\000\000\000"
 414      50495F49 
 414      465F736C 
 414      57724275 
 414      6653697A 
 415 014c 00000000 		.ascii	"\000\000\000\000\000\000\321\000\000\000HPI_IF_slRd"
 415      0000D100 
 415      00004850 
 415      495F4946 
 415      5F736C52 
 416 0161 42756653 		.ascii	"BufSize\000\000\002\000\000\000\000\000\000\000\000"
 416      697A6500 
 416      00020000 
 416      00000000 
 416      0000
 417 0173 00D30000 		.ascii	"\000\323\000\000\000HPI_IF_slRdBufPtr\000\000\002\000"
 417      00485049 
 417      5F49465F 
 417      736C5264 
 417      42756650 
 418 018d 00000000 		.ascii	"\000\000\000\000\000\000\000\000\325\000\000\000"
 418      00000000 
 418      D5000000 
 419              		.text
 420              		.section	.gnu.lto_.opts,"",%progbits
 421 0000 272D666E 		.ascii	"'-fno-trapv' '-mcpu=cortex-m0' '-mthumb' '-g' '-Os'"
 421      6F2D7472 
 421      61707627 
 421      20272D6D 
 421      6370753D 
 422 0033 20272D57 		.ascii	" '-Werror' '-ffunction-sections' '-finline-function"
ARM GAS  C:\Users\victo\AppData\Local\Temp\ccFkh5tB.s 			page 34


 422      6572726F 
 422      72272027 
 422      2D666675 
 422      6E637469 
 423 0066 73272027 		.ascii	"s' '-flto' '-ffat-lto-objects' '-fno-strict-aliasin"
 423      2D666C74 
 423      6F272027 
 423      2D666661 
 423      742D6C74 
 424 0099 672700   		.ascii	"g'\000"
 425              		.text
 426              		.cfi_sections	.debug_frame
 427              		.section	.text.HPI_IF_I2C_ISR,"ax",%progbits
 428              		.align	1
 429              		.global	HPI_IF_I2C_ISR
 430              		.code	16
 431              		.thumb_func
 432              		.type	HPI_IF_I2C_ISR, %function
 433              	HPI_IF_I2C_ISR:
 434              	.LFB0:
 435              		.file 1 ".\\Generated_Source\\PSoC4\\HPI_IF_I2C_INT.c"
   1:.\Generated_Source\PSoC4/HPI_IF_I2C_INT.c **** /*******************************************************************************
   2:.\Generated_Source\PSoC4/HPI_IF_I2C_INT.c **** * File Name: HPI_IF_I2C_INT.c
   3:.\Generated_Source\PSoC4/HPI_IF_I2C_INT.c **** * Version 3.10
   4:.\Generated_Source\PSoC4/HPI_IF_I2C_INT.c **** *
   5:.\Generated_Source\PSoC4/HPI_IF_I2C_INT.c **** * Description:
   6:.\Generated_Source\PSoC4/HPI_IF_I2C_INT.c **** *  This file provides the source code to the Interrupt Service Routine for
   7:.\Generated_Source\PSoC4/HPI_IF_I2C_INT.c **** *  the SCB Component in I2C mode.
   8:.\Generated_Source\PSoC4/HPI_IF_I2C_INT.c **** *
   9:.\Generated_Source\PSoC4/HPI_IF_I2C_INT.c **** * Note:
  10:.\Generated_Source\PSoC4/HPI_IF_I2C_INT.c **** *
  11:.\Generated_Source\PSoC4/HPI_IF_I2C_INT.c **** ********************************************************************************
  12:.\Generated_Source\PSoC4/HPI_IF_I2C_INT.c **** * Copyright 2013-2015, Cypress Semiconductor Corporation.  All rights reserved.
  13:.\Generated_Source\PSoC4/HPI_IF_I2C_INT.c **** * You may use this file only in accordance with the license, terms, conditions,
  14:.\Generated_Source\PSoC4/HPI_IF_I2C_INT.c **** * disclaimers, and limitations in the end user license agreement accompanying
  15:.\Generated_Source\PSoC4/HPI_IF_I2C_INT.c **** * the software package with which this file was provided.
  16:.\Generated_Source\PSoC4/HPI_IF_I2C_INT.c **** *******************************************************************************/
  17:.\Generated_Source\PSoC4/HPI_IF_I2C_INT.c **** 
  18:.\Generated_Source\PSoC4/HPI_IF_I2C_INT.c **** #include "HPI_IF_PVT.h"
  19:.\Generated_Source\PSoC4/HPI_IF_I2C_INT.c **** #include "HPI_IF_I2C_PVT.h"
  20:.\Generated_Source\PSoC4/HPI_IF_I2C_INT.c **** #include "cyapicallbacks.h"
  21:.\Generated_Source\PSoC4/HPI_IF_I2C_INT.c **** 
  22:.\Generated_Source\PSoC4/HPI_IF_I2C_INT.c **** 
  23:.\Generated_Source\PSoC4/HPI_IF_I2C_INT.c **** /*******************************************************************************
  24:.\Generated_Source\PSoC4/HPI_IF_I2C_INT.c **** * Function Name: HPI_IF_I2C_ISR
  25:.\Generated_Source\PSoC4/HPI_IF_I2C_INT.c **** ********************************************************************************
  26:.\Generated_Source\PSoC4/HPI_IF_I2C_INT.c **** *
  27:.\Generated_Source\PSoC4/HPI_IF_I2C_INT.c **** * Summary:
  28:.\Generated_Source\PSoC4/HPI_IF_I2C_INT.c **** *  Handles the Interrupt Service Routine for the SCB I2C mode.
  29:.\Generated_Source\PSoC4/HPI_IF_I2C_INT.c **** *
  30:.\Generated_Source\PSoC4/HPI_IF_I2C_INT.c **** * Parameters:
  31:.\Generated_Source\PSoC4/HPI_IF_I2C_INT.c **** *  None
  32:.\Generated_Source\PSoC4/HPI_IF_I2C_INT.c **** *
  33:.\Generated_Source\PSoC4/HPI_IF_I2C_INT.c **** * Return:
  34:.\Generated_Source\PSoC4/HPI_IF_I2C_INT.c **** *  None
  35:.\Generated_Source\PSoC4/HPI_IF_I2C_INT.c **** *
  36:.\Generated_Source\PSoC4/HPI_IF_I2C_INT.c **** *******************************************************************************/
ARM GAS  C:\Users\victo\AppData\Local\Temp\ccFkh5tB.s 			page 35


  37:.\Generated_Source\PSoC4/HPI_IF_I2C_INT.c **** CY_ISR(HPI_IF_I2C_ISR)
  38:.\Generated_Source\PSoC4/HPI_IF_I2C_INT.c **** {
 436              		.loc 1 38 0
 437              		.cfi_startproc
 438              	.LVL0:
 439 0000 F8B5     		push	{r3, r4, r5, r6, r7, lr}
 440              		.cfi_def_cfa_offset 24
 441              		.cfi_offset 3, -24
 442              		.cfi_offset 4, -20
 443              		.cfi_offset 5, -16
 444              		.cfi_offset 6, -12
 445              		.cfi_offset 7, -8
 446              		.cfi_offset 14, -4
  39:.\Generated_Source\PSoC4/HPI_IF_I2C_INT.c ****     uint32 diffCount;
  40:.\Generated_Source\PSoC4/HPI_IF_I2C_INT.c ****     uint32 endTransfer;
  41:.\Generated_Source\PSoC4/HPI_IF_I2C_INT.c **** 
  42:.\Generated_Source\PSoC4/HPI_IF_I2C_INT.c **** #ifdef HPI_IF_I2C_ISR_ENTRY_CALLBACK
  43:.\Generated_Source\PSoC4/HPI_IF_I2C_INT.c ****     HPI_IF_I2C_ISR_EntryCallback();
  44:.\Generated_Source\PSoC4/HPI_IF_I2C_INT.c **** #endif /* HPI_IF_I2C_ISR_ENTRY_CALLBACK */
  45:.\Generated_Source\PSoC4/HPI_IF_I2C_INT.c ****     
  46:.\Generated_Source\PSoC4/HPI_IF_I2C_INT.c **** #if (HPI_IF_I2C_CUSTOM_ADDRESS_HANDLER_CONST)
  47:.\Generated_Source\PSoC4/HPI_IF_I2C_INT.c ****     uint32 response;
  48:.\Generated_Source\PSoC4/HPI_IF_I2C_INT.c **** 
  49:.\Generated_Source\PSoC4/HPI_IF_I2C_INT.c ****     response = HPI_IF_I2C_ACK_ADDR;
  50:.\Generated_Source\PSoC4/HPI_IF_I2C_INT.c **** #endif /* (HPI_IF_I2C_CUSTOM_ADDRESS_HANDLER_CONST) */
  51:.\Generated_Source\PSoC4/HPI_IF_I2C_INT.c **** 
  52:.\Generated_Source\PSoC4/HPI_IF_I2C_INT.c ****     endTransfer = 0u; /* Continue active transfer */
  53:.\Generated_Source\PSoC4/HPI_IF_I2C_INT.c **** 
  54:.\Generated_Source\PSoC4/HPI_IF_I2C_INT.c ****     /* Calls customer routine if registered */
  55:.\Generated_Source\PSoC4/HPI_IF_I2C_INT.c ****     if(NULL != HPI_IF_customIntrHandler)
 447              		.loc 1 55 0
 448 0002 BA4B     		ldr	r3, .L73
 449 0004 1B68     		ldr	r3, [r3]
 450 0006 002B     		cmp	r3, #0
 451 0008 00D0     		beq	.L2
  56:.\Generated_Source\PSoC4/HPI_IF_I2C_INT.c ****     {
  57:.\Generated_Source\PSoC4/HPI_IF_I2C_INT.c ****         HPI_IF_customIntrHandler();
 452              		.loc 1 57 0
 453 000a 9847     		blx	r3
 454              	.LVL1:
 455              	.L2:
  58:.\Generated_Source\PSoC4/HPI_IF_I2C_INT.c ****     }
  59:.\Generated_Source\PSoC4/HPI_IF_I2C_INT.c **** 
  60:.\Generated_Source\PSoC4/HPI_IF_I2C_INT.c ****     if(HPI_IF_CHECK_INTR_I2C_EC_MASKED(HPI_IF_INTR_I2C_EC_WAKE_UP))
 456              		.loc 1 60 0
 457 000c B84B     		ldr	r3, .L73+4
 458 000e 1B68     		ldr	r3, [r3]
 459 0010 DB07     		lsl	r3, r3, #31
 460 0012 02D5     		bpl	.L3
  61:.\Generated_Source\PSoC4/HPI_IF_I2C_INT.c ****     {
  62:.\Generated_Source\PSoC4/HPI_IF_I2C_INT.c ****         /* Mask-off after wakeup */
  63:.\Generated_Source\PSoC4/HPI_IF_I2C_INT.c ****         HPI_IF_SetI2CExtClkInterruptMode(HPI_IF_NO_INTR_SOURCES);
 461              		.loc 1 63 0
 462 0014 0022     		mov	r2, #0
 463 0016 B74B     		ldr	r3, .L73+8
 464 0018 1A60     		str	r2, [r3]
 465              	.L3:
ARM GAS  C:\Users\victo\AppData\Local\Temp\ccFkh5tB.s 			page 36


  64:.\Generated_Source\PSoC4/HPI_IF_I2C_INT.c ****     }
  65:.\Generated_Source\PSoC4/HPI_IF_I2C_INT.c **** 
  66:.\Generated_Source\PSoC4/HPI_IF_I2C_INT.c ****     /* Master and Slave error tracking:
  67:.\Generated_Source\PSoC4/HPI_IF_I2C_INT.c ****     * Add the master state check to track only the master errors when the master is active or
  68:.\Generated_Source\PSoC4/HPI_IF_I2C_INT.c ****     * track slave errors when the slave is active or idle.
  69:.\Generated_Source\PSoC4/HPI_IF_I2C_INT.c ****     * A special MMS case: in the address phase with misplaced Start: the master sets the LOST_ARB a
  70:.\Generated_Source\PSoC4/HPI_IF_I2C_INT.c ****     * slave BUS_ERR. The valid event is LOST_ARB comes from the master.
  71:.\Generated_Source\PSoC4/HPI_IF_I2C_INT.c ****     */
  72:.\Generated_Source\PSoC4/HPI_IF_I2C_INT.c ****     if(HPI_IF_CHECK_I2C_FSM_MASTER)
 466              		.loc 1 72 0
 467 001a 2020     		mov	r0, #32
 468 001c B64B     		ldr	r3, .L73+12
 469 001e 1A78     		ldrb	r2, [r3]
 470 0020 0242     		tst	r2, r0
 471 0022 19D1     		bne	.L4
  73:.\Generated_Source\PSoC4/HPI_IF_I2C_INT.c ****     {
  74:.\Generated_Source\PSoC4/HPI_IF_I2C_INT.c ****         #if(HPI_IF_I2C_MASTER)
  75:.\Generated_Source\PSoC4/HPI_IF_I2C_INT.c ****         {
  76:.\Generated_Source\PSoC4/HPI_IF_I2C_INT.c ****             /* INTR_MASTER_I2C_BUS_ERROR:
  77:.\Generated_Source\PSoC4/HPI_IF_I2C_INT.c ****             * A misplaced Start or Stop condition occurred on the bus: complete the transaction.
  78:.\Generated_Source\PSoC4/HPI_IF_I2C_INT.c ****             * The interrupt is cleared in I2C_FSM_EXIT_IDLE.
  79:.\Generated_Source\PSoC4/HPI_IF_I2C_INT.c ****             */
  80:.\Generated_Source\PSoC4/HPI_IF_I2C_INT.c ****             if(HPI_IF_CHECK_INTR_MASTER_MASKED(HPI_IF_INTR_MASTER_I2C_BUS_ERROR))
  81:.\Generated_Source\PSoC4/HPI_IF_I2C_INT.c ****             {
  82:.\Generated_Source\PSoC4/HPI_IF_I2C_INT.c ****                 HPI_IF_mstrStatus |= (uint16) (HPI_IF_I2C_MSTAT_ERR_XFER |
  83:.\Generated_Source\PSoC4/HPI_IF_I2C_INT.c ****                                                          HPI_IF_I2C_MSTAT_ERR_BUS_ERROR);
  84:.\Generated_Source\PSoC4/HPI_IF_I2C_INT.c **** 
  85:.\Generated_Source\PSoC4/HPI_IF_I2C_INT.c ****                 endTransfer = HPI_IF_I2C_CMPLT_ANY_TRANSFER;
  86:.\Generated_Source\PSoC4/HPI_IF_I2C_INT.c ****             }
  87:.\Generated_Source\PSoC4/HPI_IF_I2C_INT.c **** 
  88:.\Generated_Source\PSoC4/HPI_IF_I2C_INT.c ****             /* INTR_MASTER_I2C_ARB_LOST:
  89:.\Generated_Source\PSoC4/HPI_IF_I2C_INT.c ****             * The MultiMaster lost arbitrage during transaction.
  90:.\Generated_Source\PSoC4/HPI_IF_I2C_INT.c ****             * A Misplaced Start or Stop condition is treated as lost arbitration when the master dr
  91:.\Generated_Source\PSoC4/HPI_IF_I2C_INT.c ****             * The interrupt source is cleared in I2C_FSM_EXIT_IDLE.
  92:.\Generated_Source\PSoC4/HPI_IF_I2C_INT.c ****             */
  93:.\Generated_Source\PSoC4/HPI_IF_I2C_INT.c ****             if(HPI_IF_CHECK_INTR_MASTER_MASKED(HPI_IF_INTR_MASTER_I2C_ARB_LOST))
  94:.\Generated_Source\PSoC4/HPI_IF_I2C_INT.c ****             {
  95:.\Generated_Source\PSoC4/HPI_IF_I2C_INT.c ****                 HPI_IF_mstrStatus |= (uint16) (HPI_IF_I2C_MSTAT_ERR_XFER |
  96:.\Generated_Source\PSoC4/HPI_IF_I2C_INT.c ****                                                          HPI_IF_I2C_MSTAT_ERR_ARB_LOST);
  97:.\Generated_Source\PSoC4/HPI_IF_I2C_INT.c **** 
  98:.\Generated_Source\PSoC4/HPI_IF_I2C_INT.c ****                 endTransfer = HPI_IF_I2C_CMPLT_ANY_TRANSFER;
  99:.\Generated_Source\PSoC4/HPI_IF_I2C_INT.c ****             }
 100:.\Generated_Source\PSoC4/HPI_IF_I2C_INT.c **** 
 101:.\Generated_Source\PSoC4/HPI_IF_I2C_INT.c ****             #if(HPI_IF_I2C_MULTI_MASTER_SLAVE)
 102:.\Generated_Source\PSoC4/HPI_IF_I2C_INT.c ****             {
 103:.\Generated_Source\PSoC4/HPI_IF_I2C_INT.c ****                 /* I2C_MASTER_CMD_M_START_ON_IDLE:
 104:.\Generated_Source\PSoC4/HPI_IF_I2C_INT.c ****                 * MultiMaster-Slave does not generate start, because Slave was addressed.
 105:.\Generated_Source\PSoC4/HPI_IF_I2C_INT.c ****                 * Pass control to slave.
 106:.\Generated_Source\PSoC4/HPI_IF_I2C_INT.c ****                 */
 107:.\Generated_Source\PSoC4/HPI_IF_I2C_INT.c ****                 if(HPI_IF_CHECK_I2C_MASTER_CMD(HPI_IF_I2C_MASTER_CMD_M_START_ON_IDLE))
 108:.\Generated_Source\PSoC4/HPI_IF_I2C_INT.c ****                 {
 109:.\Generated_Source\PSoC4/HPI_IF_I2C_INT.c ****                     HPI_IF_mstrStatus |= (uint16) (HPI_IF_I2C_MSTAT_ERR_XFER |
 110:.\Generated_Source\PSoC4/HPI_IF_I2C_INT.c ****                                                              HPI_IF_I2C_MSTAT_ERR_ABORT_XFER);
 111:.\Generated_Source\PSoC4/HPI_IF_I2C_INT.c **** 
 112:.\Generated_Source\PSoC4/HPI_IF_I2C_INT.c ****                     endTransfer = HPI_IF_I2C_CMPLT_ANY_TRANSFER;
 113:.\Generated_Source\PSoC4/HPI_IF_I2C_INT.c ****                 }
 114:.\Generated_Source\PSoC4/HPI_IF_I2C_INT.c ****             }
ARM GAS  C:\Users\victo\AppData\Local\Temp\ccFkh5tB.s 			page 37


 115:.\Generated_Source\PSoC4/HPI_IF_I2C_INT.c ****             #endif
 116:.\Generated_Source\PSoC4/HPI_IF_I2C_INT.c **** 
 117:.\Generated_Source\PSoC4/HPI_IF_I2C_INT.c ****             /* The error handling common part:
 118:.\Generated_Source\PSoC4/HPI_IF_I2C_INT.c ****             * Sets a completion flag of the master transaction and passes control to:
 119:.\Generated_Source\PSoC4/HPI_IF_I2C_INT.c ****             *  - I2C_FSM_EXIT_IDLE - to complete transaction in case of: ARB_LOST or BUS_ERR.
 120:.\Generated_Source\PSoC4/HPI_IF_I2C_INT.c ****             *  - I2C_FSM_IDLE      - to take chance for the slave to process incoming transaction.
 121:.\Generated_Source\PSoC4/HPI_IF_I2C_INT.c ****             */
 122:.\Generated_Source\PSoC4/HPI_IF_I2C_INT.c ****             if(0u != endTransfer)
 123:.\Generated_Source\PSoC4/HPI_IF_I2C_INT.c ****             {
 124:.\Generated_Source\PSoC4/HPI_IF_I2C_INT.c ****                 /* Set completion flags for master */
 125:.\Generated_Source\PSoC4/HPI_IF_I2C_INT.c ****                 HPI_IF_mstrStatus |= (uint16) HPI_IF_GET_I2C_MSTAT_CMPLT;
 126:.\Generated_Source\PSoC4/HPI_IF_I2C_INT.c **** 
 127:.\Generated_Source\PSoC4/HPI_IF_I2C_INT.c ****                 #if(HPI_IF_I2C_MULTI_MASTER_SLAVE)
 128:.\Generated_Source\PSoC4/HPI_IF_I2C_INT.c ****                 {
 129:.\Generated_Source\PSoC4/HPI_IF_I2C_INT.c ****                     if(HPI_IF_CHECK_I2C_FSM_ADDR)
 130:.\Generated_Source\PSoC4/HPI_IF_I2C_INT.c ****                     {
 131:.\Generated_Source\PSoC4/HPI_IF_I2C_INT.c ****                         /* Start generation is set after another master starts accessing Slave.
 132:.\Generated_Source\PSoC4/HPI_IF_I2C_INT.c ****                         * Clean-up master and turn to slave. Set state to IDLE.
 133:.\Generated_Source\PSoC4/HPI_IF_I2C_INT.c ****                         */
 134:.\Generated_Source\PSoC4/HPI_IF_I2C_INT.c ****                         if(HPI_IF_CHECK_I2C_MASTER_CMD(HPI_IF_I2C_MASTER_CMD_M_START_ON_IDLE))
 135:.\Generated_Source\PSoC4/HPI_IF_I2C_INT.c ****                         {
 136:.\Generated_Source\PSoC4/HPI_IF_I2C_INT.c ****                             HPI_IF_I2C_MASTER_CLEAR_START;
 137:.\Generated_Source\PSoC4/HPI_IF_I2C_INT.c **** 
 138:.\Generated_Source\PSoC4/HPI_IF_I2C_INT.c ****                             endTransfer = HPI_IF_I2C_CMPLT_ANY_TRANSFER; /* Pass control to Slave *
 139:.\Generated_Source\PSoC4/HPI_IF_I2C_INT.c ****                         }
 140:.\Generated_Source\PSoC4/HPI_IF_I2C_INT.c ****                         /* Valid arbitration lost on the address phase happens only when: master LO
 141:.\Generated_Source\PSoC4/HPI_IF_I2C_INT.c ****                         * slave BUS_ERR is cleared. Only in that case set the state to IDLE without
 142:.\Generated_Source\PSoC4/HPI_IF_I2C_INT.c ****                         */
 143:.\Generated_Source\PSoC4/HPI_IF_I2C_INT.c ****                         else if((!HPI_IF_CHECK_INTR_SLAVE_MASKED(HPI_IF_INTR_SLAVE_I2C_BUS_ERROR))
 144:.\Generated_Source\PSoC4/HPI_IF_I2C_INT.c ****                                && HPI_IF_CHECK_INTR_MASTER_MASKED(HPI_IF_INTR_MASTER_I2C_ARB_LOST))
 145:.\Generated_Source\PSoC4/HPI_IF_I2C_INT.c ****                         {
 146:.\Generated_Source\PSoC4/HPI_IF_I2C_INT.c ****                             endTransfer = HPI_IF_I2C_CMPLT_ANY_TRANSFER; /* Pass control to Slave *
 147:.\Generated_Source\PSoC4/HPI_IF_I2C_INT.c ****                         }
 148:.\Generated_Source\PSoC4/HPI_IF_I2C_INT.c ****                         else
 149:.\Generated_Source\PSoC4/HPI_IF_I2C_INT.c ****                         {
 150:.\Generated_Source\PSoC4/HPI_IF_I2C_INT.c ****                             endTransfer = 0u; /* Causes I2C_FSM_EXIT_IDLE to be set below */
 151:.\Generated_Source\PSoC4/HPI_IF_I2C_INT.c ****                         }
 152:.\Generated_Source\PSoC4/HPI_IF_I2C_INT.c **** 
 153:.\Generated_Source\PSoC4/HPI_IF_I2C_INT.c ****                         if(0u != endTransfer) /* Clean-up master to proceed with slave */
 154:.\Generated_Source\PSoC4/HPI_IF_I2C_INT.c ****                         {
 155:.\Generated_Source\PSoC4/HPI_IF_I2C_INT.c ****                             HPI_IF_CLEAR_TX_FIFO; /* Shifter keeps address, clear it */
 156:.\Generated_Source\PSoC4/HPI_IF_I2C_INT.c **** 
 157:.\Generated_Source\PSoC4/HPI_IF_I2C_INT.c ****                             HPI_IF_DISABLE_MASTER_AUTO_DATA_ACK; /* In case of reading disable auto
 158:.\Generated_Source\PSoC4/HPI_IF_I2C_INT.c **** 
 159:.\Generated_Source\PSoC4/HPI_IF_I2C_INT.c ****                             /* Clean-up master interrupt sources */
 160:.\Generated_Source\PSoC4/HPI_IF_I2C_INT.c ****                             HPI_IF_ClearMasterInterruptSource(HPI_IF_INTR_MASTER_ALL);
 161:.\Generated_Source\PSoC4/HPI_IF_I2C_INT.c **** 
 162:.\Generated_Source\PSoC4/HPI_IF_I2C_INT.c ****                             /* Disable data processing interrupts: they have to be cleared before *
 163:.\Generated_Source\PSoC4/HPI_IF_I2C_INT.c ****                             HPI_IF_SetRxInterruptMode(HPI_IF_NO_INTR_SOURCES);
 164:.\Generated_Source\PSoC4/HPI_IF_I2C_INT.c ****                             HPI_IF_SetTxInterruptMode(HPI_IF_NO_INTR_SOURCES);
 165:.\Generated_Source\PSoC4/HPI_IF_I2C_INT.c **** 
 166:.\Generated_Source\PSoC4/HPI_IF_I2C_INT.c ****                             HPI_IF_state = HPI_IF_I2C_FSM_IDLE;
 167:.\Generated_Source\PSoC4/HPI_IF_I2C_INT.c ****                         }
 168:.\Generated_Source\PSoC4/HPI_IF_I2C_INT.c ****                         else
 169:.\Generated_Source\PSoC4/HPI_IF_I2C_INT.c ****                         {
 170:.\Generated_Source\PSoC4/HPI_IF_I2C_INT.c ****                             /* Set I2C_FSM_EXIT_IDLE for BUS_ERR and ARB_LOST (that is really bus e
 171:.\Generated_Source\PSoC4/HPI_IF_I2C_INT.c ****                             HPI_IF_state = HPI_IF_I2C_FSM_EXIT_IDLE;
ARM GAS  C:\Users\victo\AppData\Local\Temp\ccFkh5tB.s 			page 38


 172:.\Generated_Source\PSoC4/HPI_IF_I2C_INT.c ****                         }
 173:.\Generated_Source\PSoC4/HPI_IF_I2C_INT.c ****                     }
 174:.\Generated_Source\PSoC4/HPI_IF_I2C_INT.c ****                     else
 175:.\Generated_Source\PSoC4/HPI_IF_I2C_INT.c ****                     {
 176:.\Generated_Source\PSoC4/HPI_IF_I2C_INT.c ****                         /* Set I2C_FSM_EXIT_IDLE if any other state than address */
 177:.\Generated_Source\PSoC4/HPI_IF_I2C_INT.c ****                         HPI_IF_state = HPI_IF_I2C_FSM_EXIT_IDLE;
 178:.\Generated_Source\PSoC4/HPI_IF_I2C_INT.c ****                     }
 179:.\Generated_Source\PSoC4/HPI_IF_I2C_INT.c ****                 }
 180:.\Generated_Source\PSoC4/HPI_IF_I2C_INT.c ****                 #else
 181:.\Generated_Source\PSoC4/HPI_IF_I2C_INT.c ****                 {
 182:.\Generated_Source\PSoC4/HPI_IF_I2C_INT.c ****                     /* In case of LOST*/
 183:.\Generated_Source\PSoC4/HPI_IF_I2C_INT.c ****                     HPI_IF_state = HPI_IF_I2C_FSM_EXIT_IDLE;
 184:.\Generated_Source\PSoC4/HPI_IF_I2C_INT.c ****                 }
 185:.\Generated_Source\PSoC4/HPI_IF_I2C_INT.c ****                 #endif
 186:.\Generated_Source\PSoC4/HPI_IF_I2C_INT.c ****             }
 187:.\Generated_Source\PSoC4/HPI_IF_I2C_INT.c ****         }
 188:.\Generated_Source\PSoC4/HPI_IF_I2C_INT.c ****         #endif
 189:.\Generated_Source\PSoC4/HPI_IF_I2C_INT.c ****     }
 190:.\Generated_Source\PSoC4/HPI_IF_I2C_INT.c ****     else /* (HPI_IF_CHECK_I2C_FSM_SLAVE) */
 191:.\Generated_Source\PSoC4/HPI_IF_I2C_INT.c ****     {
 192:.\Generated_Source\PSoC4/HPI_IF_I2C_INT.c ****         #if(HPI_IF_I2C_SLAVE)
 193:.\Generated_Source\PSoC4/HPI_IF_I2C_INT.c ****         {
 194:.\Generated_Source\PSoC4/HPI_IF_I2C_INT.c ****             /* INTR_SLAVE_I2C_BUS_ERROR or HPI_IF_INTR_SLAVE_I2C_ARB_LOST:
 195:.\Generated_Source\PSoC4/HPI_IF_I2C_INT.c ****             * A Misplaced Start or Stop condition occurred on the bus: set a flag
 196:.\Generated_Source\PSoC4/HPI_IF_I2C_INT.c ****             * to notify an error condition.
 197:.\Generated_Source\PSoC4/HPI_IF_I2C_INT.c ****             */
 198:.\Generated_Source\PSoC4/HPI_IF_I2C_INT.c ****             if(HPI_IF_CHECK_INTR_SLAVE_MASKED(HPI_IF_INTR_SLAVE_I2C_BUS_ERROR |
 472              		.loc 1 198 0
 473 0024 B54A     		ldr	r2, .L73+16
 474 0026 1168     		ldr	r1, [r2]
 475 0028 0222     		mov	r2, #2
 476 002a FF32     		add	r2, r2, #255
 477 002c 1142     		tst	r1, r2
 478 002e 13D0     		beq	.L4
 199:.\Generated_Source\PSoC4/HPI_IF_I2C_INT.c ****                                                         HPI_IF_INTR_SLAVE_I2C_ARB_LOST))
 200:.\Generated_Source\PSoC4/HPI_IF_I2C_INT.c ****             {
 201:.\Generated_Source\PSoC4/HPI_IF_I2C_INT.c ****                 if(HPI_IF_CHECK_I2C_FSM_RD)
 479              		.loc 1 201 0
 480 0030 1978     		ldrb	r1, [r3]
 481 0032 B34A     		ldr	r2, .L73+20
 482 0034 C907     		lsl	r1, r1, #31
 483 0036 06D5     		bpl	.L5
 202:.\Generated_Source\PSoC4/HPI_IF_I2C_INT.c ****                 {
 203:.\Generated_Source\PSoC4/HPI_IF_I2C_INT.c ****                     /* TX direction: master reads from slave */
 204:.\Generated_Source\PSoC4/HPI_IF_I2C_INT.c ****                     HPI_IF_slStatus &= (uint8) ~HPI_IF_I2C_SSTAT_RD_BUSY;
 484              		.loc 1 204 0
 485 0038 1178     		ldrb	r1, [r2]
 486 003a 1E38     		sub	r0, r0, #30
 487 003c 8143     		bic	r1, r0
 488 003e 1170     		strb	r1, [r2]
 205:.\Generated_Source\PSoC4/HPI_IF_I2C_INT.c ****                     HPI_IF_slStatus |= (uint8) (HPI_IF_I2C_SSTAT_RD_ERR |
 489              		.loc 1 205 0
 490 0040 1178     		ldrb	r1, [r2]
 491 0042 0730     		add	r0, r0, #7
 492 0044 04E0     		b	.L65
 493              	.L5:
 206:.\Generated_Source\PSoC4/HPI_IF_I2C_INT.c ****                                                           HPI_IF_I2C_SSTAT_RD_CMPLT);
ARM GAS  C:\Users\victo\AppData\Local\Temp\ccFkh5tB.s 			page 39


 207:.\Generated_Source\PSoC4/HPI_IF_I2C_INT.c ****                 }
 208:.\Generated_Source\PSoC4/HPI_IF_I2C_INT.c ****                 else
 209:.\Generated_Source\PSoC4/HPI_IF_I2C_INT.c ****                 {
 210:.\Generated_Source\PSoC4/HPI_IF_I2C_INT.c ****                     /* RX direction: master writes into slave */
 211:.\Generated_Source\PSoC4/HPI_IF_I2C_INT.c ****                     HPI_IF_slStatus &= (uint8) ~HPI_IF_I2C_SSTAT_WR_BUSY;
 494              		.loc 1 211 0
 495 0046 1178     		ldrb	r1, [r2]
 496 0048 8143     		bic	r1, r0
 497 004a 1170     		strb	r1, [r2]
 212:.\Generated_Source\PSoC4/HPI_IF_I2C_INT.c ****                     HPI_IF_slStatus |= (uint8) (HPI_IF_I2C_SSTAT_WR_ERR |
 498              		.loc 1 212 0
 499 004c 9021     		mov	r1, #144
 500 004e 1078     		ldrb	r0, [r2]
 501              	.L65:
 502 0050 0143     		orr	r1, r0
 503 0052 1170     		strb	r1, [r2]
 213:.\Generated_Source\PSoC4/HPI_IF_I2C_INT.c ****                                                           HPI_IF_I2C_SSTAT_WR_CMPLT);
 214:.\Generated_Source\PSoC4/HPI_IF_I2C_INT.c ****                 }
 215:.\Generated_Source\PSoC4/HPI_IF_I2C_INT.c **** 
 216:.\Generated_Source\PSoC4/HPI_IF_I2C_INT.c ****                 HPI_IF_state = HPI_IF_I2C_FSM_EXIT_IDLE;
 504              		.loc 1 216 0
 505 0054 0022     		mov	r2, #0
 506 0056 1A70     		strb	r2, [r3]
 507              	.L4:
 217:.\Generated_Source\PSoC4/HPI_IF_I2C_INT.c ****             }
 218:.\Generated_Source\PSoC4/HPI_IF_I2C_INT.c ****         }
 219:.\Generated_Source\PSoC4/HPI_IF_I2C_INT.c ****         #endif
 220:.\Generated_Source\PSoC4/HPI_IF_I2C_INT.c ****     }
 221:.\Generated_Source\PSoC4/HPI_IF_I2C_INT.c **** 
 222:.\Generated_Source\PSoC4/HPI_IF_I2C_INT.c ****     /* States description:
 223:.\Generated_Source\PSoC4/HPI_IF_I2C_INT.c ****     * Any Master operation starts from: the ADDR_RD/WR state as the master generates traffic on the
 224:.\Generated_Source\PSoC4/HPI_IF_I2C_INT.c ****     * Any Slave operation starts from: the IDLE state as the slave always waits for actions from th
 225:.\Generated_Source\PSoC4/HPI_IF_I2C_INT.c ****     */
 226:.\Generated_Source\PSoC4/HPI_IF_I2C_INT.c **** 
 227:.\Generated_Source\PSoC4/HPI_IF_I2C_INT.c ****     /* FSM Master */
 228:.\Generated_Source\PSoC4/HPI_IF_I2C_INT.c ****     if(HPI_IF_CHECK_I2C_FSM_MASTER)
 508              		.loc 1 228 0
 509 0058 1A78     		ldrb	r2, [r3]
 510 005a 9206     		lsl	r2, r2, #26
 511 005c 00D5     		bpl	.LCB92
 512 005e 43E1     		b	.L1	@long jump
 513              	.LCB92:
 229:.\Generated_Source\PSoC4/HPI_IF_I2C_INT.c ****     {
 230:.\Generated_Source\PSoC4/HPI_IF_I2C_INT.c ****         #if(HPI_IF_I2C_MASTER)
 231:.\Generated_Source\PSoC4/HPI_IF_I2C_INT.c ****         {
 232:.\Generated_Source\PSoC4/HPI_IF_I2C_INT.c ****             /* INTR_MASTER_I2C_STOP:
 233:.\Generated_Source\PSoC4/HPI_IF_I2C_INT.c ****             * A Stop condition was generated by the master: the end of the transaction.
 234:.\Generated_Source\PSoC4/HPI_IF_I2C_INT.c ****             * Set completion flags to notify the API.
 235:.\Generated_Source\PSoC4/HPI_IF_I2C_INT.c ****             */
 236:.\Generated_Source\PSoC4/HPI_IF_I2C_INT.c ****             if(HPI_IF_CHECK_INTR_MASTER_MASKED(HPI_IF_INTR_MASTER_I2C_STOP))
 237:.\Generated_Source\PSoC4/HPI_IF_I2C_INT.c ****             {
 238:.\Generated_Source\PSoC4/HPI_IF_I2C_INT.c ****                 HPI_IF_ClearMasterInterruptSource(HPI_IF_INTR_MASTER_I2C_STOP);
 239:.\Generated_Source\PSoC4/HPI_IF_I2C_INT.c **** 
 240:.\Generated_Source\PSoC4/HPI_IF_I2C_INT.c ****                 HPI_IF_mstrStatus |= (uint16) HPI_IF_GET_I2C_MSTAT_CMPLT;
 241:.\Generated_Source\PSoC4/HPI_IF_I2C_INT.c ****                 HPI_IF_state       = HPI_IF_I2C_FSM_IDLE;
 242:.\Generated_Source\PSoC4/HPI_IF_I2C_INT.c ****             }
 243:.\Generated_Source\PSoC4/HPI_IF_I2C_INT.c ****             else
ARM GAS  C:\Users\victo\AppData\Local\Temp\ccFkh5tB.s 			page 40


 244:.\Generated_Source\PSoC4/HPI_IF_I2C_INT.c ****             {
 245:.\Generated_Source\PSoC4/HPI_IF_I2C_INT.c ****                 if(HPI_IF_CHECK_I2C_FSM_ADDR) /* Address stage */
 246:.\Generated_Source\PSoC4/HPI_IF_I2C_INT.c ****                 {
 247:.\Generated_Source\PSoC4/HPI_IF_I2C_INT.c ****                     /* INTR_MASTER_I2C_NACK:
 248:.\Generated_Source\PSoC4/HPI_IF_I2C_INT.c ****                     * The master sent an address but it was NACKed by the slave. Complete transacti
 249:.\Generated_Source\PSoC4/HPI_IF_I2C_INT.c ****                     */
 250:.\Generated_Source\PSoC4/HPI_IF_I2C_INT.c ****                     if(HPI_IF_CHECK_INTR_MASTER_MASKED(HPI_IF_INTR_MASTER_I2C_NACK))
 251:.\Generated_Source\PSoC4/HPI_IF_I2C_INT.c ****                     {
 252:.\Generated_Source\PSoC4/HPI_IF_I2C_INT.c ****                         HPI_IF_ClearMasterInterruptSource(HPI_IF_INTR_MASTER_I2C_NACK);
 253:.\Generated_Source\PSoC4/HPI_IF_I2C_INT.c **** 
 254:.\Generated_Source\PSoC4/HPI_IF_I2C_INT.c ****                         HPI_IF_mstrStatus |= (uint16) (HPI_IF_I2C_MSTAT_ERR_XFER |
 255:.\Generated_Source\PSoC4/HPI_IF_I2C_INT.c ****                                                                  HPI_IF_I2C_MSTAT_ERR_ADDR_NAK);
 256:.\Generated_Source\PSoC4/HPI_IF_I2C_INT.c **** 
 257:.\Generated_Source\PSoC4/HPI_IF_I2C_INT.c ****                         endTransfer = HPI_IF_I2C_CMPLT_ANY_TRANSFER;
 258:.\Generated_Source\PSoC4/HPI_IF_I2C_INT.c ****                     }
 259:.\Generated_Source\PSoC4/HPI_IF_I2C_INT.c ****                     /* INTR_TX_UNDERFLOW. The master sent an address:
 260:.\Generated_Source\PSoC4/HPI_IF_I2C_INT.c ****                     *  - TX direction: the clock is stretched after the ACK phase, because the TX F
 261:.\Generated_Source\PSoC4/HPI_IF_I2C_INT.c ****                     *    EMPTY. The TX EMPTY cleans all the TX interrupt sources.
 262:.\Generated_Source\PSoC4/HPI_IF_I2C_INT.c ****                     *  - RX direction: the 1st byte is received, but there is no ACK permission,
 263:.\Generated_Source\PSoC4/HPI_IF_I2C_INT.c ****                     *    the clock is stretched after 1 byte is received.
 264:.\Generated_Source\PSoC4/HPI_IF_I2C_INT.c ****                     */
 265:.\Generated_Source\PSoC4/HPI_IF_I2C_INT.c ****                     else
 266:.\Generated_Source\PSoC4/HPI_IF_I2C_INT.c ****                     {
 267:.\Generated_Source\PSoC4/HPI_IF_I2C_INT.c ****                         if(HPI_IF_CHECK_I2C_FSM_RD) /* Reading */
 268:.\Generated_Source\PSoC4/HPI_IF_I2C_INT.c ****                         {
 269:.\Generated_Source\PSoC4/HPI_IF_I2C_INT.c ****                             HPI_IF_state = HPI_IF_I2C_FSM_MSTR_RD_DATA;
 270:.\Generated_Source\PSoC4/HPI_IF_I2C_INT.c ****                         }
 271:.\Generated_Source\PSoC4/HPI_IF_I2C_INT.c ****                         else /* Writing */
 272:.\Generated_Source\PSoC4/HPI_IF_I2C_INT.c ****                         {
 273:.\Generated_Source\PSoC4/HPI_IF_I2C_INT.c ****                             HPI_IF_state = HPI_IF_I2C_FSM_MSTR_WR_DATA;
 274:.\Generated_Source\PSoC4/HPI_IF_I2C_INT.c ****                             if(0u != HPI_IF_mstrWrBufSize)
 275:.\Generated_Source\PSoC4/HPI_IF_I2C_INT.c ****                             {
 276:.\Generated_Source\PSoC4/HPI_IF_I2C_INT.c ****                                 /* Enable INTR.TX_EMPTY if there is data to transmit */
 277:.\Generated_Source\PSoC4/HPI_IF_I2C_INT.c ****                                 HPI_IF_SetTxInterruptMode(HPI_IF_INTR_TX_EMPTY);
 278:.\Generated_Source\PSoC4/HPI_IF_I2C_INT.c ****                             }
 279:.\Generated_Source\PSoC4/HPI_IF_I2C_INT.c ****                         }
 280:.\Generated_Source\PSoC4/HPI_IF_I2C_INT.c ****                     }
 281:.\Generated_Source\PSoC4/HPI_IF_I2C_INT.c ****                 }
 282:.\Generated_Source\PSoC4/HPI_IF_I2C_INT.c **** 
 283:.\Generated_Source\PSoC4/HPI_IF_I2C_INT.c ****                 if(HPI_IF_CHECK_I2C_FSM_DATA) /* Data phase */
 284:.\Generated_Source\PSoC4/HPI_IF_I2C_INT.c ****                 {
 285:.\Generated_Source\PSoC4/HPI_IF_I2C_INT.c ****                     if(HPI_IF_CHECK_I2C_FSM_RD) /* Reading */
 286:.\Generated_Source\PSoC4/HPI_IF_I2C_INT.c ****                     {
 287:.\Generated_Source\PSoC4/HPI_IF_I2C_INT.c ****                         /* INTR_RX_FULL:
 288:.\Generated_Source\PSoC4/HPI_IF_I2C_INT.c ****                         * RX direction: the master received 8 bytes.
 289:.\Generated_Source\PSoC4/HPI_IF_I2C_INT.c ****                         * Get data from RX FIFO and decide whether to ACK or  NACK the following by
 290:.\Generated_Source\PSoC4/HPI_IF_I2C_INT.c ****                         */
 291:.\Generated_Source\PSoC4/HPI_IF_I2C_INT.c ****                         if(HPI_IF_CHECK_INTR_RX_MASKED(HPI_IF_INTR_RX_FULL))
 292:.\Generated_Source\PSoC4/HPI_IF_I2C_INT.c ****                         {
 293:.\Generated_Source\PSoC4/HPI_IF_I2C_INT.c ****                             /* Calculate difference */
 294:.\Generated_Source\PSoC4/HPI_IF_I2C_INT.c ****                             diffCount =  HPI_IF_mstrRdBufSize -
 295:.\Generated_Source\PSoC4/HPI_IF_I2C_INT.c ****                                         (HPI_IF_mstrRdBufIndex + HPI_IF_GET_RX_FIFO_ENTRIES);
 296:.\Generated_Source\PSoC4/HPI_IF_I2C_INT.c **** 
 297:.\Generated_Source\PSoC4/HPI_IF_I2C_INT.c ****                             /* Proceed transaction or end it when RX FIFO becomes FULL again */
 298:.\Generated_Source\PSoC4/HPI_IF_I2C_INT.c ****                             if(diffCount > HPI_IF_I2C_FIFO_SIZE)
 299:.\Generated_Source\PSoC4/HPI_IF_I2C_INT.c ****                             {
 300:.\Generated_Source\PSoC4/HPI_IF_I2C_INT.c ****                                 diffCount = HPI_IF_I2C_FIFO_SIZE;
ARM GAS  C:\Users\victo\AppData\Local\Temp\ccFkh5tB.s 			page 41


 301:.\Generated_Source\PSoC4/HPI_IF_I2C_INT.c ****                             }
 302:.\Generated_Source\PSoC4/HPI_IF_I2C_INT.c ****                             else
 303:.\Generated_Source\PSoC4/HPI_IF_I2C_INT.c ****                             {
 304:.\Generated_Source\PSoC4/HPI_IF_I2C_INT.c ****                                 if(0u == diffCount)
 305:.\Generated_Source\PSoC4/HPI_IF_I2C_INT.c ****                                 {
 306:.\Generated_Source\PSoC4/HPI_IF_I2C_INT.c ****                                     HPI_IF_DISABLE_MASTER_AUTO_DATA_ACK;
 307:.\Generated_Source\PSoC4/HPI_IF_I2C_INT.c **** 
 308:.\Generated_Source\PSoC4/HPI_IF_I2C_INT.c ****                                     diffCount   = HPI_IF_I2C_FIFO_SIZE;
 309:.\Generated_Source\PSoC4/HPI_IF_I2C_INT.c ****                                     endTransfer = HPI_IF_I2C_CMPLT_ANY_TRANSFER;
 310:.\Generated_Source\PSoC4/HPI_IF_I2C_INT.c ****                                 }
 311:.\Generated_Source\PSoC4/HPI_IF_I2C_INT.c ****                             }
 312:.\Generated_Source\PSoC4/HPI_IF_I2C_INT.c **** 
 313:.\Generated_Source\PSoC4/HPI_IF_I2C_INT.c ****                             for(; (0u != diffCount); diffCount--)
 314:.\Generated_Source\PSoC4/HPI_IF_I2C_INT.c ****                             {
 315:.\Generated_Source\PSoC4/HPI_IF_I2C_INT.c ****                                 HPI_IF_mstrRdBufPtr[HPI_IF_mstrRdBufIndex] = (uint8)
 316:.\Generated_Source\PSoC4/HPI_IF_I2C_INT.c ****                                                                                         HPI_IF_RX_F
 317:.\Generated_Source\PSoC4/HPI_IF_I2C_INT.c ****                                 HPI_IF_mstrRdBufIndex++;
 318:.\Generated_Source\PSoC4/HPI_IF_I2C_INT.c ****                             }
 319:.\Generated_Source\PSoC4/HPI_IF_I2C_INT.c ****                         }
 320:.\Generated_Source\PSoC4/HPI_IF_I2C_INT.c ****                         /* INTR_RX_NOT_EMPTY:
 321:.\Generated_Source\PSoC4/HPI_IF_I2C_INT.c ****                         * RX direction: the master received one data byte, ACK or NACK it.
 322:.\Generated_Source\PSoC4/HPI_IF_I2C_INT.c ****                         * The last byte is stored and NACKed by the master. The NACK and Stop is
 323:.\Generated_Source\PSoC4/HPI_IF_I2C_INT.c ****                         * generated by one command generate Stop.
 324:.\Generated_Source\PSoC4/HPI_IF_I2C_INT.c ****                         */
 325:.\Generated_Source\PSoC4/HPI_IF_I2C_INT.c ****                         else if(HPI_IF_CHECK_INTR_RX_MASKED(HPI_IF_INTR_RX_NOT_EMPTY))
 326:.\Generated_Source\PSoC4/HPI_IF_I2C_INT.c ****                         {
 327:.\Generated_Source\PSoC4/HPI_IF_I2C_INT.c ****                             /* Put data in component buffer */
 328:.\Generated_Source\PSoC4/HPI_IF_I2C_INT.c ****                             HPI_IF_mstrRdBufPtr[HPI_IF_mstrRdBufIndex] = (uint8) HPI_IF_RX_FIFO_RD_
 329:.\Generated_Source\PSoC4/HPI_IF_I2C_INT.c ****                             HPI_IF_mstrRdBufIndex++;
 330:.\Generated_Source\PSoC4/HPI_IF_I2C_INT.c **** 
 331:.\Generated_Source\PSoC4/HPI_IF_I2C_INT.c ****                             if(HPI_IF_mstrRdBufIndex < HPI_IF_mstrRdBufSize)
 332:.\Generated_Source\PSoC4/HPI_IF_I2C_INT.c ****                             {
 333:.\Generated_Source\PSoC4/HPI_IF_I2C_INT.c ****                                 HPI_IF_I2C_MASTER_GENERATE_ACK;
 334:.\Generated_Source\PSoC4/HPI_IF_I2C_INT.c ****                             }
 335:.\Generated_Source\PSoC4/HPI_IF_I2C_INT.c ****                             else
 336:.\Generated_Source\PSoC4/HPI_IF_I2C_INT.c ****                             {
 337:.\Generated_Source\PSoC4/HPI_IF_I2C_INT.c ****                                endTransfer = HPI_IF_I2C_CMPLT_ANY_TRANSFER;
 338:.\Generated_Source\PSoC4/HPI_IF_I2C_INT.c ****                             }
 339:.\Generated_Source\PSoC4/HPI_IF_I2C_INT.c ****                         }
 340:.\Generated_Source\PSoC4/HPI_IF_I2C_INT.c ****                         else
 341:.\Generated_Source\PSoC4/HPI_IF_I2C_INT.c ****                         {
 342:.\Generated_Source\PSoC4/HPI_IF_I2C_INT.c ****                             /* Do nothing */
 343:.\Generated_Source\PSoC4/HPI_IF_I2C_INT.c ****                         }
 344:.\Generated_Source\PSoC4/HPI_IF_I2C_INT.c **** 
 345:.\Generated_Source\PSoC4/HPI_IF_I2C_INT.c ****                         HPI_IF_ClearRxInterruptSource(HPI_IF_INTR_RX_ALL);
 346:.\Generated_Source\PSoC4/HPI_IF_I2C_INT.c ****                     }
 347:.\Generated_Source\PSoC4/HPI_IF_I2C_INT.c ****                     else /* Writing */
 348:.\Generated_Source\PSoC4/HPI_IF_I2C_INT.c ****                     {
 349:.\Generated_Source\PSoC4/HPI_IF_I2C_INT.c ****                         /* INTR_MASTER_I2C_NACK :
 350:.\Generated_Source\PSoC4/HPI_IF_I2C_INT.c ****                         * The master writes data to the slave and NACK was received: not all the by
 351:.\Generated_Source\PSoC4/HPI_IF_I2C_INT.c ****                         * written to the slave from the TX FIFO. Revert the index if there is data 
 352:.\Generated_Source\PSoC4/HPI_IF_I2C_INT.c ****                         * the TX FIFO and pass control to a complete transfer.
 353:.\Generated_Source\PSoC4/HPI_IF_I2C_INT.c ****                         */
 354:.\Generated_Source\PSoC4/HPI_IF_I2C_INT.c ****                         if(HPI_IF_CHECK_INTR_MASTER_MASKED(HPI_IF_INTR_MASTER_I2C_NACK))
 355:.\Generated_Source\PSoC4/HPI_IF_I2C_INT.c ****                         {
 356:.\Generated_Source\PSoC4/HPI_IF_I2C_INT.c ****                             HPI_IF_ClearMasterInterruptSource(HPI_IF_INTR_MASTER_I2C_NACK);
 357:.\Generated_Source\PSoC4/HPI_IF_I2C_INT.c **** 
ARM GAS  C:\Users\victo\AppData\Local\Temp\ccFkh5tB.s 			page 42


 358:.\Generated_Source\PSoC4/HPI_IF_I2C_INT.c ****                             /* Rollback write buffer index: NACKed byte remains in shifter */
 359:.\Generated_Source\PSoC4/HPI_IF_I2C_INT.c ****                             HPI_IF_mstrWrBufIndexTmp -= (HPI_IF_GET_TX_FIFO_ENTRIES +
 360:.\Generated_Source\PSoC4/HPI_IF_I2C_INT.c ****                                                                    HPI_IF_GET_TX_FIFO_SR_VALID);
 361:.\Generated_Source\PSoC4/HPI_IF_I2C_INT.c **** 
 362:.\Generated_Source\PSoC4/HPI_IF_I2C_INT.c ****                             /* Update number of transferred bytes */
 363:.\Generated_Source\PSoC4/HPI_IF_I2C_INT.c ****                             HPI_IF_mstrWrBufIndex = HPI_IF_mstrWrBufIndexTmp;
 364:.\Generated_Source\PSoC4/HPI_IF_I2C_INT.c **** 
 365:.\Generated_Source\PSoC4/HPI_IF_I2C_INT.c ****                             HPI_IF_mstrStatus |= (uint16) (HPI_IF_I2C_MSTAT_ERR_XFER |
 366:.\Generated_Source\PSoC4/HPI_IF_I2C_INT.c ****                                                                      HPI_IF_I2C_MSTAT_ERR_SHORT_XFE
 367:.\Generated_Source\PSoC4/HPI_IF_I2C_INT.c **** 
 368:.\Generated_Source\PSoC4/HPI_IF_I2C_INT.c ****                             HPI_IF_CLEAR_TX_FIFO;
 369:.\Generated_Source\PSoC4/HPI_IF_I2C_INT.c **** 
 370:.\Generated_Source\PSoC4/HPI_IF_I2C_INT.c ****                             endTransfer = HPI_IF_I2C_CMPLT_ANY_TRANSFER;
 371:.\Generated_Source\PSoC4/HPI_IF_I2C_INT.c ****                         }
 372:.\Generated_Source\PSoC4/HPI_IF_I2C_INT.c ****                         /* INTR_TX_EMPTY :
 373:.\Generated_Source\PSoC4/HPI_IF_I2C_INT.c ****                         * TX direction: the TX FIFO is EMPTY, the data from the buffer needs to be 
 374:.\Generated_Source\PSoC4/HPI_IF_I2C_INT.c ****                         * When there is no data in the component buffer, the underflow interrupt is
 375:.\Generated_Source\PSoC4/HPI_IF_I2C_INT.c ****                         * enabled to catch when all the data has been transferred.
 376:.\Generated_Source\PSoC4/HPI_IF_I2C_INT.c ****                         */
 377:.\Generated_Source\PSoC4/HPI_IF_I2C_INT.c ****                         else if(HPI_IF_CHECK_INTR_TX_MASKED(HPI_IF_INTR_TX_EMPTY))
 378:.\Generated_Source\PSoC4/HPI_IF_I2C_INT.c ****                         {
 379:.\Generated_Source\PSoC4/HPI_IF_I2C_INT.c ****                             while(HPI_IF_I2C_FIFO_SIZE != HPI_IF_GET_TX_FIFO_ENTRIES)
 380:.\Generated_Source\PSoC4/HPI_IF_I2C_INT.c ****                             {
 381:.\Generated_Source\PSoC4/HPI_IF_I2C_INT.c ****                                 /* The temporary mstrWrBufIndexTmp is used because slave could NACK
 382:.\Generated_Source\PSoC4/HPI_IF_I2C_INT.c ****                                 * roll-back required in this case. The mstrWrBufIndex is updated at
 383:.\Generated_Source\PSoC4/HPI_IF_I2C_INT.c ****                                 */
 384:.\Generated_Source\PSoC4/HPI_IF_I2C_INT.c ****                                 if(HPI_IF_mstrWrBufIndexTmp < HPI_IF_mstrWrBufSize)
 385:.\Generated_Source\PSoC4/HPI_IF_I2C_INT.c ****                                 {
 386:.\Generated_Source\PSoC4/HPI_IF_I2C_INT.c ****                                 #if(!HPI_IF_CY_SCBIP_V0)
 387:.\Generated_Source\PSoC4/HPI_IF_I2C_INT.c ****                                    /* Clear INTR_TX.UNDERFLOW before putting the last byte into TX 
 388:.\Generated_Source\PSoC4/HPI_IF_I2C_INT.c ****                                     * a proper trigger at the end of transaction when INTR_TX.UNDER
 389:.\Generated_Source\PSoC4/HPI_IF_I2C_INT.c ****                                     * event. Ticket ID# 156735.
 390:.\Generated_Source\PSoC4/HPI_IF_I2C_INT.c ****                                     */
 391:.\Generated_Source\PSoC4/HPI_IF_I2C_INT.c ****                                     if(HPI_IF_mstrWrBufIndexTmp == (HPI_IF_mstrWrBufSize - 1u))
 392:.\Generated_Source\PSoC4/HPI_IF_I2C_INT.c ****                                     {
 393:.\Generated_Source\PSoC4/HPI_IF_I2C_INT.c ****                                         HPI_IF_ClearTxInterruptSource(HPI_IF_INTR_TX_UNDERFLOW);
 394:.\Generated_Source\PSoC4/HPI_IF_I2C_INT.c ****                                         HPI_IF_SetTxInterruptMode(HPI_IF_INTR_TX_UNDERFLOW);
 395:.\Generated_Source\PSoC4/HPI_IF_I2C_INT.c ****                                     }
 396:.\Generated_Source\PSoC4/HPI_IF_I2C_INT.c ****                                  #endif /* (!HPI_IF_CY_SCBIP_V0) */
 397:.\Generated_Source\PSoC4/HPI_IF_I2C_INT.c **** 
 398:.\Generated_Source\PSoC4/HPI_IF_I2C_INT.c ****                                     /* Put data into TX FIFO */
 399:.\Generated_Source\PSoC4/HPI_IF_I2C_INT.c ****                                     HPI_IF_TX_FIFO_WR_REG = (uint32) HPI_IF_mstrWrBufPtr[HPI_IF_mst
 400:.\Generated_Source\PSoC4/HPI_IF_I2C_INT.c ****                                     HPI_IF_mstrWrBufIndexTmp++;
 401:.\Generated_Source\PSoC4/HPI_IF_I2C_INT.c ****                                 }
 402:.\Generated_Source\PSoC4/HPI_IF_I2C_INT.c ****                                 else
 403:.\Generated_Source\PSoC4/HPI_IF_I2C_INT.c ****                                 {
 404:.\Generated_Source\PSoC4/HPI_IF_I2C_INT.c ****                                     break; /* No more data to put */
 405:.\Generated_Source\PSoC4/HPI_IF_I2C_INT.c ****                                 }
 406:.\Generated_Source\PSoC4/HPI_IF_I2C_INT.c ****                             }
 407:.\Generated_Source\PSoC4/HPI_IF_I2C_INT.c **** 
 408:.\Generated_Source\PSoC4/HPI_IF_I2C_INT.c ****                         #if(HPI_IF_CY_SCBIP_V0)
 409:.\Generated_Source\PSoC4/HPI_IF_I2C_INT.c ****                             if(HPI_IF_mstrWrBufIndexTmp == HPI_IF_mstrWrBufSize)
 410:.\Generated_Source\PSoC4/HPI_IF_I2C_INT.c ****                             {
 411:.\Generated_Source\PSoC4/HPI_IF_I2C_INT.c ****                                 HPI_IF_SetTxInterruptMode(HPI_IF_INTR_TX_UNDERFLOW);
 412:.\Generated_Source\PSoC4/HPI_IF_I2C_INT.c ****                             }
 413:.\Generated_Source\PSoC4/HPI_IF_I2C_INT.c **** 
 414:.\Generated_Source\PSoC4/HPI_IF_I2C_INT.c ****                             HPI_IF_ClearTxInterruptSource(HPI_IF_INTR_TX_ALL);
ARM GAS  C:\Users\victo\AppData\Local\Temp\ccFkh5tB.s 			page 43


 415:.\Generated_Source\PSoC4/HPI_IF_I2C_INT.c ****                         #else
 416:.\Generated_Source\PSoC4/HPI_IF_I2C_INT.c ****                             HPI_IF_ClearTxInterruptSource(HPI_IF_INTR_TX_EMPTY);
 417:.\Generated_Source\PSoC4/HPI_IF_I2C_INT.c ****                         #endif /* (HPI_IF_CY_SCBIP_V0) */
 418:.\Generated_Source\PSoC4/HPI_IF_I2C_INT.c ****                         }
 419:.\Generated_Source\PSoC4/HPI_IF_I2C_INT.c ****                         /* INTR_TX_UNDERFLOW:
 420:.\Generated_Source\PSoC4/HPI_IF_I2C_INT.c ****                         * TX direction: all data from the TX FIFO was transferred to the slave.
 421:.\Generated_Source\PSoC4/HPI_IF_I2C_INT.c ****                         * The transaction needs to be completed.
 422:.\Generated_Source\PSoC4/HPI_IF_I2C_INT.c ****                         */
 423:.\Generated_Source\PSoC4/HPI_IF_I2C_INT.c ****                         else if(HPI_IF_CHECK_INTR_TX_MASKED(HPI_IF_INTR_TX_UNDERFLOW))
 424:.\Generated_Source\PSoC4/HPI_IF_I2C_INT.c ****                         {
 425:.\Generated_Source\PSoC4/HPI_IF_I2C_INT.c ****                             /* Update number of transferred bytes */
 426:.\Generated_Source\PSoC4/HPI_IF_I2C_INT.c ****                             HPI_IF_mstrWrBufIndex = HPI_IF_mstrWrBufIndexTmp;
 427:.\Generated_Source\PSoC4/HPI_IF_I2C_INT.c **** 
 428:.\Generated_Source\PSoC4/HPI_IF_I2C_INT.c ****                             endTransfer = HPI_IF_I2C_CMPLT_ANY_TRANSFER;
 429:.\Generated_Source\PSoC4/HPI_IF_I2C_INT.c ****                         }
 430:.\Generated_Source\PSoC4/HPI_IF_I2C_INT.c ****                         else
 431:.\Generated_Source\PSoC4/HPI_IF_I2C_INT.c ****                         {
 432:.\Generated_Source\PSoC4/HPI_IF_I2C_INT.c ****                             /* Do nothing */
 433:.\Generated_Source\PSoC4/HPI_IF_I2C_INT.c ****                         }
 434:.\Generated_Source\PSoC4/HPI_IF_I2C_INT.c ****                     }
 435:.\Generated_Source\PSoC4/HPI_IF_I2C_INT.c ****                 }
 436:.\Generated_Source\PSoC4/HPI_IF_I2C_INT.c **** 
 437:.\Generated_Source\PSoC4/HPI_IF_I2C_INT.c ****                 if(0u != endTransfer) /* Complete transfer */
 438:.\Generated_Source\PSoC4/HPI_IF_I2C_INT.c ****                 {
 439:.\Generated_Source\PSoC4/HPI_IF_I2C_INT.c ****                     /* Clean-up master after reading: only in case of NACK */
 440:.\Generated_Source\PSoC4/HPI_IF_I2C_INT.c ****                     HPI_IF_DISABLE_MASTER_AUTO_DATA_ACK;
 441:.\Generated_Source\PSoC4/HPI_IF_I2C_INT.c **** 
 442:.\Generated_Source\PSoC4/HPI_IF_I2C_INT.c ****                     /* Disable data processing interrupts: they have to be cleared before */
 443:.\Generated_Source\PSoC4/HPI_IF_I2C_INT.c ****                     HPI_IF_SetRxInterruptMode(HPI_IF_NO_INTR_SOURCES);
 444:.\Generated_Source\PSoC4/HPI_IF_I2C_INT.c ****                     HPI_IF_SetTxInterruptMode(HPI_IF_NO_INTR_SOURCES);
 445:.\Generated_Source\PSoC4/HPI_IF_I2C_INT.c **** 
 446:.\Generated_Source\PSoC4/HPI_IF_I2C_INT.c ****                     if(HPI_IF_CHECK_I2C_MODE_NO_STOP(HPI_IF_mstrControl))
 447:.\Generated_Source\PSoC4/HPI_IF_I2C_INT.c ****                     {
 448:.\Generated_Source\PSoC4/HPI_IF_I2C_INT.c ****                         /* On-going transaction is suspended: the ReStart is generated by the API r
 449:.\Generated_Source\PSoC4/HPI_IF_I2C_INT.c ****                         HPI_IF_mstrStatus |= (uint16) (HPI_IF_I2C_MSTAT_XFER_HALT |
 450:.\Generated_Source\PSoC4/HPI_IF_I2C_INT.c ****                                                                  HPI_IF_GET_I2C_MSTAT_CMPLT);
 451:.\Generated_Source\PSoC4/HPI_IF_I2C_INT.c **** 
 452:.\Generated_Source\PSoC4/HPI_IF_I2C_INT.c ****                         HPI_IF_state = HPI_IF_I2C_FSM_MSTR_HALT;
 453:.\Generated_Source\PSoC4/HPI_IF_I2C_INT.c ****                     }
 454:.\Generated_Source\PSoC4/HPI_IF_I2C_INT.c ****                     else
 455:.\Generated_Source\PSoC4/HPI_IF_I2C_INT.c ****                     {
 456:.\Generated_Source\PSoC4/HPI_IF_I2C_INT.c ****                         /* Complete transaction: exclude the data processing state and generate Sto
 457:.\Generated_Source\PSoC4/HPI_IF_I2C_INT.c ****                         * The completion status will be set after Stop generation.
 458:.\Generated_Source\PSoC4/HPI_IF_I2C_INT.c ****                         * A special case is read: because NACK and Stop are generated by the comman
 459:.\Generated_Source\PSoC4/HPI_IF_I2C_INT.c ****                         * Lost arbitration can occur during NACK generation when
 460:.\Generated_Source\PSoC4/HPI_IF_I2C_INT.c ****                         * the other master is still reading from the slave.
 461:.\Generated_Source\PSoC4/HPI_IF_I2C_INT.c ****                         */
 462:.\Generated_Source\PSoC4/HPI_IF_I2C_INT.c ****                         HPI_IF_I2C_MASTER_GENERATE_STOP;
 463:.\Generated_Source\PSoC4/HPI_IF_I2C_INT.c ****                     }
 464:.\Generated_Source\PSoC4/HPI_IF_I2C_INT.c ****                 }
 465:.\Generated_Source\PSoC4/HPI_IF_I2C_INT.c ****             }
 466:.\Generated_Source\PSoC4/HPI_IF_I2C_INT.c **** 
 467:.\Generated_Source\PSoC4/HPI_IF_I2C_INT.c ****         } /* (HPI_IF_I2C_MASTER) */
 468:.\Generated_Source\PSoC4/HPI_IF_I2C_INT.c ****         #endif
 469:.\Generated_Source\PSoC4/HPI_IF_I2C_INT.c **** 
 470:.\Generated_Source\PSoC4/HPI_IF_I2C_INT.c ****     } /* (HPI_IF_CHECK_I2C_FSM_MASTER) */
 471:.\Generated_Source\PSoC4/HPI_IF_I2C_INT.c **** 
ARM GAS  C:\Users\victo\AppData\Local\Temp\ccFkh5tB.s 			page 44


 472:.\Generated_Source\PSoC4/HPI_IF_I2C_INT.c **** 
 473:.\Generated_Source\PSoC4/HPI_IF_I2C_INT.c ****     /* FSM Slave */
 474:.\Generated_Source\PSoC4/HPI_IF_I2C_INT.c ****     else if(HPI_IF_CHECK_I2C_FSM_SLAVE)
 514              		.loc 1 474 0
 515 0060 1020     		mov	r0, #16
 516 0062 1A78     		ldrb	r2, [r3]
 517 0064 0242     		tst	r2, r0
 518 0066 00D1     		bne	.LCB99
 519 0068 2AE1     		b	.L9	@long jump
 520              	.LCB99:
 475:.\Generated_Source\PSoC4/HPI_IF_I2C_INT.c ****     {
 476:.\Generated_Source\PSoC4/HPI_IF_I2C_INT.c ****         #if(HPI_IF_I2C_SLAVE)
 477:.\Generated_Source\PSoC4/HPI_IF_I2C_INT.c ****         {
 478:.\Generated_Source\PSoC4/HPI_IF_I2C_INT.c ****             /* INTR_SLAVE_NACK:
 479:.\Generated_Source\PSoC4/HPI_IF_I2C_INT.c ****             * The master completes reading the slave: the appropriate flags have to be set.
 480:.\Generated_Source\PSoC4/HPI_IF_I2C_INT.c ****             * The TX FIFO is cleared after an overflow condition is set.
 481:.\Generated_Source\PSoC4/HPI_IF_I2C_INT.c ****             */
 482:.\Generated_Source\PSoC4/HPI_IF_I2C_INT.c ****             if(HPI_IF_CHECK_INTR_SLAVE_MASKED(HPI_IF_INTR_SLAVE_I2C_NACK))
 521              		.loc 1 482 0
 522 006a 0222     		mov	r2, #2
 523 006c A348     		ldr	r0, .L73+16
 524 006e 0168     		ldr	r1, [r0]
 525 0070 1142     		tst	r1, r2
 526 0072 34D0     		beq	.L10
 483:.\Generated_Source\PSoC4/HPI_IF_I2C_INT.c ****             {
 484:.\Generated_Source\PSoC4/HPI_IF_I2C_INT.c ****                 HPI_IF_ClearSlaveInterruptSource(HPI_IF_INTR_SLAVE_I2C_NACK);
 527              		.loc 1 484 0
 528 0074 A349     		ldr	r1, .L73+24
 529 0076 A44D     		ldr	r5, .L73+28
 530 0078 0A60     		str	r2, [r1]
 485:.\Generated_Source\PSoC4/HPI_IF_I2C_INT.c **** 
 486:.\Generated_Source\PSoC4/HPI_IF_I2C_INT.c ****                 /* All entries that remain in TX FIFO max value is 9: 8 (FIFO) + 1 (SHIFTER) */
 487:.\Generated_Source\PSoC4/HPI_IF_I2C_INT.c ****                 diffCount = (HPI_IF_GET_TX_FIFO_ENTRIES + HPI_IF_GET_TX_FIFO_SR_VALID);
 531              		.loc 1 487 0
 532 007a A449     		ldr	r1, .L73+32
 533 007c 1D32     		add	r2, r2, #29
 534 007e 0C68     		ldr	r4, [r1]
 535 0080 0968     		ldr	r1, [r1]
 536 0082 2240     		and	r2, r4
 488:.\Generated_Source\PSoC4/HPI_IF_I2C_INT.c **** 
 489:.\Generated_Source\PSoC4/HPI_IF_I2C_INT.c ****                 if(HPI_IF_slOverFlowCount > diffCount) /* Overflow */
 537              		.loc 1 489 0
 538 0084 A24C     		ldr	r4, .L73+36
 487:.\Generated_Source\PSoC4/HPI_IF_I2C_INT.c **** 
 539              		.loc 1 487 0
 540 0086 0904     		lsl	r1, r1, #16
 541 0088 C90F     		lsr	r1, r1, #31
 542              		.loc 1 489 0
 543 008a 2678     		ldrb	r6, [r4]
 487:.\Generated_Source\PSoC4/HPI_IF_I2C_INT.c **** 
 544              		.loc 1 487 0
 545 008c 8A18     		add	r2, r1, r2
 546              	.LVL2:
 547 008e 9C49     		ldr	r1, .L73+20
 548              		.loc 1 489 0
 549 0090 9642     		cmp	r6, r2
 550 0092 04D9     		bls	.L11
ARM GAS  C:\Users\victo\AppData\Local\Temp\ccFkh5tB.s 			page 45


 490:.\Generated_Source\PSoC4/HPI_IF_I2C_INT.c ****                 {
 491:.\Generated_Source\PSoC4/HPI_IF_I2C_INT.c ****                     HPI_IF_slStatus |= (uint8) HPI_IF_I2C_SSTAT_RD_OVFL;
 551              		.loc 1 491 0
 552 0094 0426     		mov	r6, #4
 553 0096 0A78     		ldrb	r2, [r1]
 554              	.LVL3:
 555 0098 3243     		orr	r2, r6
 556 009a 0A70     		strb	r2, [r1]
 557 009c 04E0     		b	.L12
 558              	.LVL4:
 559              	.L11:
 492:.\Generated_Source\PSoC4/HPI_IF_I2C_INT.c ****                 }
 493:.\Generated_Source\PSoC4/HPI_IF_I2C_INT.c ****                 else /* No Overflow */
 494:.\Generated_Source\PSoC4/HPI_IF_I2C_INT.c ****                 {
 495:.\Generated_Source\PSoC4/HPI_IF_I2C_INT.c ****                     /* Roll-back temporary index */
 496:.\Generated_Source\PSoC4/HPI_IF_I2C_INT.c ****                     HPI_IF_slRdBufIndexTmp -= (diffCount - HPI_IF_slOverFlowCount);
 560              		.loc 1 496 0
 561 009e 2778     		ldrb	r7, [r4]
 562 00a0 2E68     		ldr	r6, [r5]
 563 00a2 D21B     		sub	r2, r2, r7
 564              	.LVL5:
 565 00a4 B21A     		sub	r2, r6, r2
 566 00a6 2A60     		str	r2, [r5]
 567              	.L12:
 497:.\Generated_Source\PSoC4/HPI_IF_I2C_INT.c ****                 }
 498:.\Generated_Source\PSoC4/HPI_IF_I2C_INT.c **** 
 499:.\Generated_Source\PSoC4/HPI_IF_I2C_INT.c ****                 /* Update slave of transferred bytes */
 500:.\Generated_Source\PSoC4/HPI_IF_I2C_INT.c ****                 HPI_IF_slRdBufIndex = HPI_IF_slRdBufIndexTmp;
 568              		.loc 1 500 0
 569 00a8 2D68     		ldr	r5, [r5]
 570 00aa 9A4A     		ldr	r2, .L73+40
 571 00ac 1560     		str	r5, [r2]
 501:.\Generated_Source\PSoC4/HPI_IF_I2C_INT.c **** 
 502:.\Generated_Source\PSoC4/HPI_IF_I2C_INT.c ****                 /* Clean-up TX FIFO */
 503:.\Generated_Source\PSoC4/HPI_IF_I2C_INT.c ****                 HPI_IF_SetTxInterruptMode(HPI_IF_NO_INTR_SOURCES);
 572              		.loc 1 503 0
 573 00ae 0022     		mov	r2, #0
 574 00b0 994D     		ldr	r5, .L73+44
 575 00b2 2A60     		str	r2, [r5]
 504:.\Generated_Source\PSoC4/HPI_IF_I2C_INT.c ****                 HPI_IF_slOverFlowCount = 0u;
 505:.\Generated_Source\PSoC4/HPI_IF_I2C_INT.c ****                 HPI_IF_CLEAR_TX_FIFO;
 576              		.loc 1 505 0
 577 00b4 8025     		mov	r5, #128
 504:.\Generated_Source\PSoC4/HPI_IF_I2C_INT.c ****                 HPI_IF_slOverFlowCount = 0u;
 578              		.loc 1 504 0
 579 00b6 2270     		strb	r2, [r4]
 580              		.loc 1 505 0
 581 00b8 984C     		ldr	r4, .L73+48
 582 00ba 6D02     		lsl	r5, r5, #9
 583 00bc 2268     		ldr	r2, [r4]
 584 00be 2A43     		orr	r2, r5
 585 00c0 2260     		str	r2, [r4]
 586 00c2 2568     		ldr	r5, [r4]
 587 00c4 964A     		ldr	r2, .L73+52
 588 00c6 2A40     		and	r2, r5
 589 00c8 2260     		str	r2, [r4]
 506:.\Generated_Source\PSoC4/HPI_IF_I2C_INT.c **** 
ARM GAS  C:\Users\victo\AppData\Local\Temp\ccFkh5tB.s 			page 46


 507:.\Generated_Source\PSoC4/HPI_IF_I2C_INT.c ****                 /* Complete master reading */
 508:.\Generated_Source\PSoC4/HPI_IF_I2C_INT.c ****                 HPI_IF_slStatus &= (uint8) ~HPI_IF_I2C_SSTAT_RD_BUSY;
 590              		.loc 1 508 0
 591 00ca 0224     		mov	r4, #2
 592 00cc 0A78     		ldrb	r2, [r1]
 593 00ce A243     		bic	r2, r4
 594 00d0 0A70     		strb	r2, [r1]
 509:.\Generated_Source\PSoC4/HPI_IF_I2C_INT.c ****                 HPI_IF_slStatus |= (uint8)  HPI_IF_I2C_SSTAT_RD_CMPLT;
 595              		.loc 1 509 0
 596 00d2 0A78     		ldrb	r2, [r1]
 597 00d4 013C     		sub	r4, r4, #1
 598 00d6 2243     		orr	r2, r4
 599 00d8 0A70     		strb	r2, [r1]
 510:.\Generated_Source\PSoC4/HPI_IF_I2C_INT.c ****                 HPI_IF_state     =  HPI_IF_I2C_FSM_IDLE;
 600              		.loc 1 510 0
 601 00da 1022     		mov	r2, #16
 602 00dc 1A70     		strb	r2, [r3]
 603              	.L10:
 511:.\Generated_Source\PSoC4/HPI_IF_I2C_INT.c ****             }
 512:.\Generated_Source\PSoC4/HPI_IF_I2C_INT.c **** 
 513:.\Generated_Source\PSoC4/HPI_IF_I2C_INT.c **** 
 514:.\Generated_Source\PSoC4/HPI_IF_I2C_INT.c ****             /* INTR_SLAVE_I2C_WRITE_STOP:
 515:.\Generated_Source\PSoC4/HPI_IF_I2C_INT.c ****             * The master completes writing to the slave: the appropriate flags have to be set.
 516:.\Generated_Source\PSoC4/HPI_IF_I2C_INT.c ****             * The RX FIFO contains 1-8 bytes from the previous transaction which needs to be read.
 517:.\Generated_Source\PSoC4/HPI_IF_I2C_INT.c ****             * There is a possibility that RX FIFO contains an address, it needs to leave it there.
 518:.\Generated_Source\PSoC4/HPI_IF_I2C_INT.c ****             */
 519:.\Generated_Source\PSoC4/HPI_IF_I2C_INT.c ****             if(HPI_IF_CHECK_INTR_SLAVE_MASKED(HPI_IF_INTR_SLAVE_I2C_WRITE_STOP))
 604              		.loc 1 519 0
 605 00de 0822     		mov	r2, #8
 606 00e0 0168     		ldr	r1, [r0]
 607 00e2 1142     		tst	r1, r2
 608 00e4 32D0     		beq	.L13
 520:.\Generated_Source\PSoC4/HPI_IF_I2C_INT.c ****             {
 521:.\Generated_Source\PSoC4/HPI_IF_I2C_INT.c ****                 HPI_IF_ClearSlaveInterruptSource(HPI_IF_INTR_SLAVE_I2C_WRITE_STOP);
 609              		.loc 1 521 0
 610 00e6 8749     		ldr	r1, .L73+24
 611 00e8 0A60     		str	r2, [r1]
 522:.\Generated_Source\PSoC4/HPI_IF_I2C_INT.c **** 
 523:.\Generated_Source\PSoC4/HPI_IF_I2C_INT.c ****                 /* Read bytes from RX FIFO when auto data ACK receive logic is enabled. Otherwise a
 524:.\Generated_Source\PSoC4/HPI_IF_I2C_INT.c ****                 * were already read from the RX FIFO except for address byte which has to stay here
 525:.\Generated_Source\PSoC4/HPI_IF_I2C_INT.c ****                 * I2C_ADDR_MATCH.
 526:.\Generated_Source\PSoC4/HPI_IF_I2C_INT.c ****                 */
 527:.\Generated_Source\PSoC4/HPI_IF_I2C_INT.c ****                 if (0u != (HPI_IF_I2C_CTRL_REG & HPI_IF_I2C_CTRL_S_READY_DATA_ACK))
 612              		.loc 1 527 0
 613 00ea 8E4A     		ldr	r2, .L73+56
 614 00ec 1168     		ldr	r1, [r2]
 615 00ee 8904     		lsl	r1, r1, #18
 616 00f0 14D5     		bpl	.L15
 617              	.L14:
 528:.\Generated_Source\PSoC4/HPI_IF_I2C_INT.c ****                 {
 529:.\Generated_Source\PSoC4/HPI_IF_I2C_INT.c ****                     while(0u != HPI_IF_GET_RX_FIFO_ENTRIES)
 618              		.loc 1 529 0
 619 00f2 8D49     		ldr	r1, .L73+60
 620 00f4 0968     		ldr	r1, [r1]
 621 00f6 C906     		lsl	r1, r1, #27
 622 00f8 0CD0     		beq	.L70
 530:.\Generated_Source\PSoC4/HPI_IF_I2C_INT.c ****                     {
ARM GAS  C:\Users\victo\AppData\Local\Temp\ccFkh5tB.s 			page 47


 531:.\Generated_Source\PSoC4/HPI_IF_I2C_INT.c ****                         #if(HPI_IF_CHECK_I2C_ACCEPT_ADDRESS)
 532:.\Generated_Source\PSoC4/HPI_IF_I2C_INT.c ****                         {
 533:.\Generated_Source\PSoC4/HPI_IF_I2C_INT.c ****                             if((1u == HPI_IF_GET_RX_FIFO_ENTRIES) &&
 534:.\Generated_Source\PSoC4/HPI_IF_I2C_INT.c ****                                (HPI_IF_CHECK_INTR_SLAVE_MASKED(HPI_IF_INTR_SLAVE_I2C_ADDR_MATCH)))
 535:.\Generated_Source\PSoC4/HPI_IF_I2C_INT.c ****                             {
 536:.\Generated_Source\PSoC4/HPI_IF_I2C_INT.c ****                                 break; /* Leave address in RX FIFO */
 537:.\Generated_Source\PSoC4/HPI_IF_I2C_INT.c ****                             }
 538:.\Generated_Source\PSoC4/HPI_IF_I2C_INT.c ****                         }
 539:.\Generated_Source\PSoC4/HPI_IF_I2C_INT.c ****                         #endif
 540:.\Generated_Source\PSoC4/HPI_IF_I2C_INT.c **** 
 541:.\Generated_Source\PSoC4/HPI_IF_I2C_INT.c ****                         /* Put data in component buffer */
 542:.\Generated_Source\PSoC4/HPI_IF_I2C_INT.c ****                         HPI_IF_slWrBufPtr[HPI_IF_slWrBufIndex] = (uint8) HPI_IF_RX_FIFO_RD_REG;
 623              		.loc 1 542 0
 624 00fa 8C49     		ldr	r1, .L73+64
 625 00fc 8C4D     		ldr	r5, .L73+68
 626 00fe 0C68     		ldr	r4, [r1]
 627 0100 2D68     		ldr	r5, [r5]
 628 0102 2C19     		add	r4, r5, r4
 629 0104 8B4D     		ldr	r5, .L73+72
 630 0106 2D68     		ldr	r5, [r5]
 631 0108 EDB2     		uxtb	r5, r5
 632 010a 2570     		strb	r5, [r4]
 543:.\Generated_Source\PSoC4/HPI_IF_I2C_INT.c ****                         HPI_IF_slWrBufIndex++;
 633              		.loc 1 543 0
 634 010c 0C68     		ldr	r4, [r1]
 635 010e 0134     		add	r4, r4, #1
 636 0110 0C60     		str	r4, [r1]
 637 0112 EEE7     		b	.L14
 638              	.L70:
 544:.\Generated_Source\PSoC4/HPI_IF_I2C_INT.c ****                     }
 545:.\Generated_Source\PSoC4/HPI_IF_I2C_INT.c **** 
 546:.\Generated_Source\PSoC4/HPI_IF_I2C_INT.c ****                     HPI_IF_DISABLE_SLAVE_AUTO_DATA;
 639              		.loc 1 546 0
 640 0114 1468     		ldr	r4, [r2]
 641 0116 8849     		ldr	r1, .L73+76
 642 0118 2140     		and	r1, r4
 643 011a 1160     		str	r1, [r2]
 644              	.L15:
 547:.\Generated_Source\PSoC4/HPI_IF_I2C_INT.c ****                 }
 548:.\Generated_Source\PSoC4/HPI_IF_I2C_INT.c **** 
 549:.\Generated_Source\PSoC4/HPI_IF_I2C_INT.c ****                 if(HPI_IF_CHECK_INTR_RX(HPI_IF_INTR_RX_OVERFLOW))
 645              		.loc 1 549 0
 646 011c 874A     		ldr	r2, .L73+80
 647 011e 7849     		ldr	r1, .L73+20
 648 0120 1568     		ldr	r5, [r2]
 649 0122 141C     		mov	r4, r2
 650 0124 AA06     		lsl	r2, r5, #26
 651 0126 03D5     		bpl	.L17
 550:.\Generated_Source\PSoC4/HPI_IF_I2C_INT.c ****                 {
 551:.\Generated_Source\PSoC4/HPI_IF_I2C_INT.c ****                     HPI_IF_slStatus |= (uint8) HPI_IF_I2C_SSTAT_WR_OVFL;
 652              		.loc 1 551 0
 653 0128 4025     		mov	r5, #64
 654 012a 0A78     		ldrb	r2, [r1]
 655 012c 2A43     		orr	r2, r5
 656 012e 0A70     		strb	r2, [r1]
 657              	.L17:
 552:.\Generated_Source\PSoC4/HPI_IF_I2C_INT.c ****                 }
ARM GAS  C:\Users\victo\AppData\Local\Temp\ccFkh5tB.s 			page 48


 553:.\Generated_Source\PSoC4/HPI_IF_I2C_INT.c **** 
 554:.\Generated_Source\PSoC4/HPI_IF_I2C_INT.c ****                 /* Clears RX interrupt sources triggered on data receiving */
 555:.\Generated_Source\PSoC4/HPI_IF_I2C_INT.c ****                 HPI_IF_SetRxInterruptMode(HPI_IF_NO_INTR_SOURCES);
 658              		.loc 1 555 0
 659 0130 0025     		mov	r5, #0
 660 0132 834A     		ldr	r2, .L73+84
 661 0134 1560     		str	r5, [r2]
 556:.\Generated_Source\PSoC4/HPI_IF_I2C_INT.c ****                 HPI_IF_ClearRxInterruptSource(HPI_IF_INTR_RX_ALL);
 662              		.loc 1 556 0
 663 0136 834A     		ldr	r2, .L73+88
 664 0138 2260     		str	r2, [r4]
 557:.\Generated_Source\PSoC4/HPI_IF_I2C_INT.c **** 
 558:.\Generated_Source\PSoC4/HPI_IF_I2C_INT.c ****                 /* Complete master writing */
 559:.\Generated_Source\PSoC4/HPI_IF_I2C_INT.c ****                 HPI_IF_slStatus &= (uint8) ~HPI_IF_I2C_SSTAT_WR_BUSY;
 665              		.loc 1 559 0
 666 013a 2024     		mov	r4, #32
 667 013c 0A78     		ldrb	r2, [r1]
 668 013e A243     		bic	r2, r4
 669 0140 0A70     		strb	r2, [r1]
 560:.\Generated_Source\PSoC4/HPI_IF_I2C_INT.c ****                 HPI_IF_slStatus |= (uint8)  HPI_IF_I2C_SSTAT_WR_CMPLT;
 670              		.loc 1 560 0
 671 0142 0A78     		ldrb	r2, [r1]
 672 0144 103C     		sub	r4, r4, #16
 673 0146 2243     		orr	r2, r4
 674 0148 0A70     		strb	r2, [r1]
 561:.\Generated_Source\PSoC4/HPI_IF_I2C_INT.c ****                 HPI_IF_state     =  HPI_IF_I2C_FSM_IDLE;
 675              		.loc 1 561 0
 676 014a 1C70     		strb	r4, [r3]
 677              	.L13:
 562:.\Generated_Source\PSoC4/HPI_IF_I2C_INT.c ****             }
 563:.\Generated_Source\PSoC4/HPI_IF_I2C_INT.c **** 
 564:.\Generated_Source\PSoC4/HPI_IF_I2C_INT.c **** 
 565:.\Generated_Source\PSoC4/HPI_IF_I2C_INT.c ****             /* INTR_SLAVE_I2C_ADDR_MATCH or INTR_SLAVE_I2C_GENERAL:
 566:.\Generated_Source\PSoC4/HPI_IF_I2C_INT.c ****             * The address match or general call address event starts the slave operation:
 567:.\Generated_Source\PSoC4/HPI_IF_I2C_INT.c ****             * after leaving the TX or RX direction has to be chosen.
 568:.\Generated_Source\PSoC4/HPI_IF_I2C_INT.c ****             * The wakeup interrupt must be cleared only after an address match is set.
 569:.\Generated_Source\PSoC4/HPI_IF_I2C_INT.c ****             */
 570:.\Generated_Source\PSoC4/HPI_IF_I2C_INT.c ****         #if (HPI_IF_I2C_CUSTOM_ADDRESS_HANDLER_CONST)
 571:.\Generated_Source\PSoC4/HPI_IF_I2C_INT.c ****             if (HPI_IF_CHECK_INTR_SLAVE_MASKED(HPI_IF_INTR_SLAVE_I2C_ADDR_MATCH |
 572:.\Generated_Source\PSoC4/HPI_IF_I2C_INT.c ****                                                          HPI_IF_INTR_SLAVE_I2C_GENERAL))
 573:.\Generated_Source\PSoC4/HPI_IF_I2C_INT.c ****         #else
 574:.\Generated_Source\PSoC4/HPI_IF_I2C_INT.c ****             if (HPI_IF_CHECK_INTR_SLAVE_MASKED(HPI_IF_INTR_SLAVE_I2C_ADDR_MATCH))
 678              		.loc 1 574 0
 679 014c 0268     		ldr	r2, [r0]
 680 014e 5206     		lsl	r2, r2, #25
 681 0150 3ED5     		bpl	.L18
 575:.\Generated_Source\PSoC4/HPI_IF_I2C_INT.c ****         #endif /* (HPI_IF_I2C_CUSTOM_ADDRESS_HANDLER_CONST) */
 576:.\Generated_Source\PSoC4/HPI_IF_I2C_INT.c ****             {
 577:.\Generated_Source\PSoC4/HPI_IF_I2C_INT.c ****                 /* Clear externally clocked address match interrupt source when internally clocked 
 578:.\Generated_Source\PSoC4/HPI_IF_I2C_INT.c ****                 HPI_IF_ClearI2CExtClkInterruptSource(HPI_IF_INTR_I2C_EC_WAKE_UP);
 682              		.loc 1 578 0
 683 0152 0121     		mov	r1, #1
 684 0154 7C4A     		ldr	r2, .L73+92
 685 0156 1160     		str	r1, [r2]
 579:.\Generated_Source\PSoC4/HPI_IF_I2C_INT.c **** 
 580:.\Generated_Source\PSoC4/HPI_IF_I2C_INT.c ****                 #if (HPI_IF_I2C_CUSTOM_ADDRESS_HANDLER)
 581:.\Generated_Source\PSoC4/HPI_IF_I2C_INT.c ****                 {
ARM GAS  C:\Users\victo\AppData\Local\Temp\ccFkh5tB.s 			page 49


 582:.\Generated_Source\PSoC4/HPI_IF_I2C_INT.c ****                     if (NULL != HPI_IF_customAddressHandler)
 583:.\Generated_Source\PSoC4/HPI_IF_I2C_INT.c ****                     {
 584:.\Generated_Source\PSoC4/HPI_IF_I2C_INT.c ****                         /* Call custom address handler */
 585:.\Generated_Source\PSoC4/HPI_IF_I2C_INT.c ****                         response = HPI_IF_customAddressHandler();
 586:.\Generated_Source\PSoC4/HPI_IF_I2C_INT.c ****                     }
 587:.\Generated_Source\PSoC4/HPI_IF_I2C_INT.c ****                     else
 588:.\Generated_Source\PSoC4/HPI_IF_I2C_INT.c ****                     {
 589:.\Generated_Source\PSoC4/HPI_IF_I2C_INT.c ****                         /* Read address from the RX FIFO. If there is no address underflow triggers
 590:.\Generated_Source\PSoC4/HPI_IF_I2C_INT.c ****                         * componnet does not use that source. */
 591:.\Generated_Source\PSoC4/HPI_IF_I2C_INT.c ****                         (void) HPI_IF_RX_FIFO_RD_REG;
 592:.\Generated_Source\PSoC4/HPI_IF_I2C_INT.c ****                         response = HPI_IF_I2C_ACK_ADDR;
 593:.\Generated_Source\PSoC4/HPI_IF_I2C_INT.c ****                     }
 594:.\Generated_Source\PSoC4/HPI_IF_I2C_INT.c **** 
 595:.\Generated_Source\PSoC4/HPI_IF_I2C_INT.c ****                     /* Clears RX sources after address was received in the RX FIFO */
 596:.\Generated_Source\PSoC4/HPI_IF_I2C_INT.c ****                     HPI_IF_ClearRxInterruptSource(HPI_IF_INTR_RX_ALL);
 597:.\Generated_Source\PSoC4/HPI_IF_I2C_INT.c ****                 }
 598:.\Generated_Source\PSoC4/HPI_IF_I2C_INT.c ****                 #endif
 599:.\Generated_Source\PSoC4/HPI_IF_I2C_INT.c **** 
 600:.\Generated_Source\PSoC4/HPI_IF_I2C_INT.c ****             #if (HPI_IF_I2C_CUSTOM_ADDRESS_HANDLER_CONST)
 601:.\Generated_Source\PSoC4/HPI_IF_I2C_INT.c ****                 if (response == HPI_IF_I2C_NAK_ADDR)
 602:.\Generated_Source\PSoC4/HPI_IF_I2C_INT.c ****                 {
 603:.\Generated_Source\PSoC4/HPI_IF_I2C_INT.c ****                 #if (!HPI_IF_CY_SCBIP_V0)
 604:.\Generated_Source\PSoC4/HPI_IF_I2C_INT.c ****                     /* Disable write stop interrupt source as it triggers after address was NACKed.
 605:.\Generated_Source\PSoC4/HPI_IF_I2C_INT.c ****                     HPI_IF_DISABLE_INTR_SLAVE(HPI_IF_INTR_SLAVE_I2C_WRITE_STOP);
 606:.\Generated_Source\PSoC4/HPI_IF_I2C_INT.c ****                 #endif /* (!HPI_IF_CY_SCBIP_V0) */
 607:.\Generated_Source\PSoC4/HPI_IF_I2C_INT.c **** 
 608:.\Generated_Source\PSoC4/HPI_IF_I2C_INT.c ****                     /* Clear address match and stop history */
 609:.\Generated_Source\PSoC4/HPI_IF_I2C_INT.c ****                     HPI_IF_ClearSlaveInterruptSource(HPI_IF_INTR_SLAVE_ALL);
 610:.\Generated_Source\PSoC4/HPI_IF_I2C_INT.c **** 
 611:.\Generated_Source\PSoC4/HPI_IF_I2C_INT.c ****                     /* ACK the address byte */
 612:.\Generated_Source\PSoC4/HPI_IF_I2C_INT.c ****                     HPI_IF_I2C_SLAVE_GENERATE_NACK;
 613:.\Generated_Source\PSoC4/HPI_IF_I2C_INT.c ****                 }
 614:.\Generated_Source\PSoC4/HPI_IF_I2C_INT.c ****                 else
 615:.\Generated_Source\PSoC4/HPI_IF_I2C_INT.c ****             #endif /* (HPI_IF_I2C_CUSTOM_ADDRESS_HANDLER_CONST) */
 616:.\Generated_Source\PSoC4/HPI_IF_I2C_INT.c ****                 {
 617:.\Generated_Source\PSoC4/HPI_IF_I2C_INT.c ****                     if(HPI_IF_CHECK_I2C_STATUS(HPI_IF_I2C_STATUS_S_READ))
 686              		.loc 1 617 0
 687 0158 7C4A     		ldr	r2, .L73+96
 688 015a 6949     		ldr	r1, .L73+20
 689 015c 1068     		ldr	r0, [r2]
 690 015e 1022     		mov	r2, #16
 691 0160 1042     		tst	r0, r2
 692 0162 0BD0     		beq	.L19
 618:.\Generated_Source\PSoC4/HPI_IF_I2C_INT.c ****                     /* TX direction: master reads from slave */
 619:.\Generated_Source\PSoC4/HPI_IF_I2C_INT.c ****                     {
 620:.\Generated_Source\PSoC4/HPI_IF_I2C_INT.c ****                         HPI_IF_SetTxInterruptMode(HPI_IF_INTR_TX_EMPTY);
 693              		.loc 1 620 0
 694 0164 6C48     		ldr	r0, .L73+44
 695 0166 0260     		str	r2, [r0]
 621:.\Generated_Source\PSoC4/HPI_IF_I2C_INT.c **** 
 622:.\Generated_Source\PSoC4/HPI_IF_I2C_INT.c ****                         /* Set temporary index to address buffer clear from API */
 623:.\Generated_Source\PSoC4/HPI_IF_I2C_INT.c ****                         HPI_IF_slRdBufIndexTmp = HPI_IF_slRdBufIndex;
 696              		.loc 1 623 0
 697 0168 6A4A     		ldr	r2, .L73+40
 698 016a 1068     		ldr	r0, [r2]
 699 016c 664A     		ldr	r2, .L73+28
 700 016e 1060     		str	r0, [r2]
ARM GAS  C:\Users\victo\AppData\Local\Temp\ccFkh5tB.s 			page 50


 624:.\Generated_Source\PSoC4/HPI_IF_I2C_INT.c **** 
 625:.\Generated_Source\PSoC4/HPI_IF_I2C_INT.c ****                         /* Start master reading */
 626:.\Generated_Source\PSoC4/HPI_IF_I2C_INT.c ****                         HPI_IF_slStatus |= (uint8) HPI_IF_I2C_SSTAT_RD_BUSY;
 701              		.loc 1 626 0
 702 0170 0220     		mov	r0, #2
 703 0172 0A78     		ldrb	r2, [r1]
 704 0174 0243     		orr	r2, r0
 705 0176 0A70     		strb	r2, [r1]
 627:.\Generated_Source\PSoC4/HPI_IF_I2C_INT.c ****                         HPI_IF_state     = HPI_IF_I2C_FSM_SL_RD;
 706              		.loc 1 627 0
 707 0178 1222     		mov	r2, #18
 708 017a 1DE0     		b	.L67
 709              	.L19:
 628:.\Generated_Source\PSoC4/HPI_IF_I2C_INT.c ****                     }
 629:.\Generated_Source\PSoC4/HPI_IF_I2C_INT.c ****                     else
 630:.\Generated_Source\PSoC4/HPI_IF_I2C_INT.c ****                     /* RX direction: master writes into slave */
 631:.\Generated_Source\PSoC4/HPI_IF_I2C_INT.c ****                     {
 632:.\Generated_Source\PSoC4/HPI_IF_I2C_INT.c ****                         /* Calculate available buffer size */
 633:.\Generated_Source\PSoC4/HPI_IF_I2C_INT.c ****                         diffCount = (HPI_IF_slWrBufSize - HPI_IF_slWrBufIndex);
 710              		.loc 1 633 0
 711 017c 744A     		ldr	r2, .L73+100
 712 017e 6B48     		ldr	r0, .L73+64
 713 0180 1268     		ldr	r2, [r2]
 714 0182 0068     		ldr	r0, [r0]
 715 0184 121A     		sub	r2, r2, r0
 716              	.LVL6:
 634:.\Generated_Source\PSoC4/HPI_IF_I2C_INT.c **** 
 635:.\Generated_Source\PSoC4/HPI_IF_I2C_INT.c ****                     #if (HPI_IF_CY_SCBIP_V0)
 636:.\Generated_Source\PSoC4/HPI_IF_I2C_INT.c ****                         if(diffCount < HPI_IF_I2C_FIFO_SIZE)
 637:.\Generated_Source\PSoC4/HPI_IF_I2C_INT.c ****                         /* Receive data: byte-by-byte */
 638:.\Generated_Source\PSoC4/HPI_IF_I2C_INT.c ****                         {
 639:.\Generated_Source\PSoC4/HPI_IF_I2C_INT.c ****                             HPI_IF_SetRxInterruptMode(HPI_IF_INTR_RX_NOT_EMPTY);
 640:.\Generated_Source\PSoC4/HPI_IF_I2C_INT.c ****                         }
 641:.\Generated_Source\PSoC4/HPI_IF_I2C_INT.c ****                         else
 642:.\Generated_Source\PSoC4/HPI_IF_I2C_INT.c ****                         /* Receive data: into RX FIFO */
 643:.\Generated_Source\PSoC4/HPI_IF_I2C_INT.c ****                         {
 644:.\Generated_Source\PSoC4/HPI_IF_I2C_INT.c ****                             if(diffCount == HPI_IF_I2C_FIFO_SIZE)
 645:.\Generated_Source\PSoC4/HPI_IF_I2C_INT.c ****                             {
 646:.\Generated_Source\PSoC4/HPI_IF_I2C_INT.c ****                                 /* NACK when RX FIFO become FULL */
 647:.\Generated_Source\PSoC4/HPI_IF_I2C_INT.c ****                                 HPI_IF_ENABLE_SLAVE_AUTO_DATA;
 648:.\Generated_Source\PSoC4/HPI_IF_I2C_INT.c ****                             }
 649:.\Generated_Source\PSoC4/HPI_IF_I2C_INT.c ****                             else
 650:.\Generated_Source\PSoC4/HPI_IF_I2C_INT.c ****                             {
 651:.\Generated_Source\PSoC4/HPI_IF_I2C_INT.c ****                                 /* Stretch clock when RX FIFO becomes FULL */
 652:.\Generated_Source\PSoC4/HPI_IF_I2C_INT.c ****                                 HPI_IF_ENABLE_SLAVE_AUTO_DATA_ACK;
 653:.\Generated_Source\PSoC4/HPI_IF_I2C_INT.c ****                                 HPI_IF_SetRxInterruptMode(HPI_IF_INTR_RX_FULL);
 654:.\Generated_Source\PSoC4/HPI_IF_I2C_INT.c ****                             }
 655:.\Generated_Source\PSoC4/HPI_IF_I2C_INT.c ****                         }
 656:.\Generated_Source\PSoC4/HPI_IF_I2C_INT.c **** 
 657:.\Generated_Source\PSoC4/HPI_IF_I2C_INT.c ****                     #else
 658:.\Generated_Source\PSoC4/HPI_IF_I2C_INT.c ****                         #if(HPI_IF_CHECK_I2C_ACCEPT_ADDRESS)
 659:.\Generated_Source\PSoC4/HPI_IF_I2C_INT.c ****                         {
 660:.\Generated_Source\PSoC4/HPI_IF_I2C_INT.c ****                             /* Enable RX.NOT_EMPTY interrupt source to receive byte by byte.
 661:.\Generated_Source\PSoC4/HPI_IF_I2C_INT.c ****                             * The byte by byte receive is always chosen for the case when an addres
 662:.\Generated_Source\PSoC4/HPI_IF_I2C_INT.c ****                             * in RX FIFO. Ticket ID#175559.
 663:.\Generated_Source\PSoC4/HPI_IF_I2C_INT.c ****                             */
 664:.\Generated_Source\PSoC4/HPI_IF_I2C_INT.c ****                             HPI_IF_SetRxInterruptMode(HPI_IF_INTR_RX_NOT_EMPTY);
ARM GAS  C:\Users\victo\AppData\Local\Temp\ccFkh5tB.s 			page 51


 665:.\Generated_Source\PSoC4/HPI_IF_I2C_INT.c ****                         }
 666:.\Generated_Source\PSoC4/HPI_IF_I2C_INT.c ****                         #else
 667:.\Generated_Source\PSoC4/HPI_IF_I2C_INT.c ****                         {
 668:.\Generated_Source\PSoC4/HPI_IF_I2C_INT.c ****                             if(diffCount < HPI_IF_I2C_FIFO_SIZE)
 669:.\Generated_Source\PSoC4/HPI_IF_I2C_INT.c ****                             /* Receive data: byte-by-byte */
 670:.\Generated_Source\PSoC4/HPI_IF_I2C_INT.c ****                             {
 671:.\Generated_Source\PSoC4/HPI_IF_I2C_INT.c ****                                 HPI_IF_SetRxInterruptMode(HPI_IF_INTR_RX_NOT_EMPTY);
 717              		.loc 1 671 0
 718 0186 0420     		mov	r0, #4
 668:.\Generated_Source\PSoC4/HPI_IF_I2C_INT.c ****                             /* Receive data: byte-by-byte */
 719              		.loc 1 668 0
 720 0188 072A     		cmp	r2, #7
 721 018a 0ED9     		bls	.L66
 722 018c 6548     		ldr	r0, .L73+56
 672:.\Generated_Source\PSoC4/HPI_IF_I2C_INT.c ****                             }
 673:.\Generated_Source\PSoC4/HPI_IF_I2C_INT.c ****                             else
 674:.\Generated_Source\PSoC4/HPI_IF_I2C_INT.c ****                             /* Receive data: into RX FIFO */
 675:.\Generated_Source\PSoC4/HPI_IF_I2C_INT.c ****                             {
 676:.\Generated_Source\PSoC4/HPI_IF_I2C_INT.c ****                                 if(diffCount == HPI_IF_I2C_FIFO_SIZE)
 723              		.loc 1 676 0
 724 018e 082A     		cmp	r2, #8
 725 0190 05D1     		bne	.L23
 677:.\Generated_Source\PSoC4/HPI_IF_I2C_INT.c ****                                 {
 678:.\Generated_Source\PSoC4/HPI_IF_I2C_INT.c ****                                     /* NACK when RX FIFO become FULL */
 679:.\Generated_Source\PSoC4/HPI_IF_I2C_INT.c ****                                     HPI_IF_ENABLE_SLAVE_AUTO_DATA;
 726              		.loc 1 679 0
 727 0192 A024     		mov	r4, #160
 728 0194 0268     		ldr	r2, [r0]
 729              	.LVL7:
 730 0196 2402     		lsl	r4, r4, #8
 731 0198 2243     		orr	r2, r4
 732 019a 0260     		str	r2, [r0]
 733 019c 07E0     		b	.L22
 734              	.LVL8:
 735              	.L23:
 680:.\Generated_Source\PSoC4/HPI_IF_I2C_INT.c ****                                 }
 681:.\Generated_Source\PSoC4/HPI_IF_I2C_INT.c ****                                 else
 682:.\Generated_Source\PSoC4/HPI_IF_I2C_INT.c ****                                 {
 683:.\Generated_Source\PSoC4/HPI_IF_I2C_INT.c ****                                     /* Stretch clock when RX FIFO becomes FULL */
 684:.\Generated_Source\PSoC4/HPI_IF_I2C_INT.c ****                                     HPI_IF_ENABLE_SLAVE_AUTO_DATA_ACK;
 736              		.loc 1 684 0
 737 019e 8024     		mov	r4, #128
 738 01a0 0268     		ldr	r2, [r0]
 739              	.LVL9:
 740 01a2 A401     		lsl	r4, r4, #6
 741 01a4 2243     		orr	r2, r4
 742 01a6 0260     		str	r2, [r0]
 685:.\Generated_Source\PSoC4/HPI_IF_I2C_INT.c ****                                     HPI_IF_SetRxInterruptMode(HPI_IF_INTR_RX_FULL);
 743              		.loc 1 685 0
 744 01a8 0820     		mov	r0, #8
 745              	.L66:
 746 01aa 654A     		ldr	r2, .L73+84
 747 01ac 1060     		str	r0, [r2]
 748              	.L22:
 686:.\Generated_Source\PSoC4/HPI_IF_I2C_INT.c ****                                 }
 687:.\Generated_Source\PSoC4/HPI_IF_I2C_INT.c ****                             }
 688:.\Generated_Source\PSoC4/HPI_IF_I2C_INT.c ****                         }
ARM GAS  C:\Users\victo\AppData\Local\Temp\ccFkh5tB.s 			page 52


 689:.\Generated_Source\PSoC4/HPI_IF_I2C_INT.c ****                         #endif
 690:.\Generated_Source\PSoC4/HPI_IF_I2C_INT.c ****                     #endif /* (HPI_IF_CY_SCBIP_V0) */
 691:.\Generated_Source\PSoC4/HPI_IF_I2C_INT.c **** 
 692:.\Generated_Source\PSoC4/HPI_IF_I2C_INT.c ****                         /* Start master reading */
 693:.\Generated_Source\PSoC4/HPI_IF_I2C_INT.c ****                         HPI_IF_slStatus |= (uint8) HPI_IF_I2C_SSTAT_WR_BUSY;
 749              		.loc 1 693 0
 750 01ae 2020     		mov	r0, #32
 751 01b0 0A78     		ldrb	r2, [r1]
 752 01b2 0243     		orr	r2, r0
 753 01b4 0A70     		strb	r2, [r1]
 694:.\Generated_Source\PSoC4/HPI_IF_I2C_INT.c ****                         HPI_IF_state     = HPI_IF_I2C_FSM_SL_WR;
 754              		.loc 1 694 0
 755 01b6 1122     		mov	r2, #17
 756              	.L67:
 695:.\Generated_Source\PSoC4/HPI_IF_I2C_INT.c ****                     }
 696:.\Generated_Source\PSoC4/HPI_IF_I2C_INT.c **** 
 697:.\Generated_Source\PSoC4/HPI_IF_I2C_INT.c ****                     /* Clear address match and stop history */
 698:.\Generated_Source\PSoC4/HPI_IF_I2C_INT.c ****                     HPI_IF_ClearSlaveInterruptSource(HPI_IF_INTR_SLAVE_ALL);
 699:.\Generated_Source\PSoC4/HPI_IF_I2C_INT.c **** 
 700:.\Generated_Source\PSoC4/HPI_IF_I2C_INT.c ****                 #if (!HPI_IF_CY_SCBIP_V0)
 701:.\Generated_Source\PSoC4/HPI_IF_I2C_INT.c ****                     /* Enable write stop interrupt source as it triggers after address was NACKed. 
 702:.\Generated_Source\PSoC4/HPI_IF_I2C_INT.c ****                     HPI_IF_ENABLE_INTR_SLAVE(HPI_IF_INTR_SLAVE_I2C_WRITE_STOP);
 757              		.loc 1 702 0
 758 01b8 0821     		mov	r1, #8
 694:.\Generated_Source\PSoC4/HPI_IF_I2C_INT.c ****                         HPI_IF_state     = HPI_IF_I2C_FSM_SL_WR;
 759              		.loc 1 694 0
 760 01ba 1A70     		strb	r2, [r3]
 698:.\Generated_Source\PSoC4/HPI_IF_I2C_INT.c **** 
 761              		.loc 1 698 0
 762 01bc 654A     		ldr	r2, .L73+104
 763 01be 514B     		ldr	r3, .L73+24
 764 01c0 1A60     		str	r2, [r3]
 765              		.loc 1 702 0
 766 01c2 654A     		ldr	r2, .L73+108
 767 01c4 1368     		ldr	r3, [r2]
 768 01c6 0B43     		orr	r3, r1
 769 01c8 1360     		str	r3, [r2]
 703:.\Generated_Source\PSoC4/HPI_IF_I2C_INT.c ****                 #endif /* (!HPI_IF_CY_SCBIP_V0) */
 704:.\Generated_Source\PSoC4/HPI_IF_I2C_INT.c **** 
 705:.\Generated_Source\PSoC4/HPI_IF_I2C_INT.c ****                     /* ACK the address byte */
 706:.\Generated_Source\PSoC4/HPI_IF_I2C_INT.c ****                     HPI_IF_I2C_SLAVE_GENERATE_ACK;
 770              		.loc 1 706 0
 771 01ca 0122     		mov	r2, #1
 772 01cc 634B     		ldr	r3, .L73+112
 773 01ce 1A60     		str	r2, [r3]
 774              	.L18:
 707:.\Generated_Source\PSoC4/HPI_IF_I2C_INT.c ****                 }
 708:.\Generated_Source\PSoC4/HPI_IF_I2C_INT.c ****             }
 709:.\Generated_Source\PSoC4/HPI_IF_I2C_INT.c **** 
 710:.\Generated_Source\PSoC4/HPI_IF_I2C_INT.c ****             /* HPI_IF_INTR_RX_FULL:
 711:.\Generated_Source\PSoC4/HPI_IF_I2C_INT.c ****             * Get data from the RX FIFO and decide whether to ACK or NACK the following bytes
 712:.\Generated_Source\PSoC4/HPI_IF_I2C_INT.c ****             */
 713:.\Generated_Source\PSoC4/HPI_IF_I2C_INT.c ****             if(HPI_IF_CHECK_INTR_RX_MASKED(HPI_IF_INTR_RX_FULL))
 775              		.loc 1 713 0
 776 01d0 0822     		mov	r2, #8
 777 01d2 634B     		ldr	r3, .L73+116
 778 01d4 1968     		ldr	r1, [r3]
ARM GAS  C:\Users\victo\AppData\Local\Temp\ccFkh5tB.s 			page 53


 779 01d6 1142     		tst	r1, r2
 780 01d8 25D0     		beq	.L24
 714:.\Generated_Source\PSoC4/HPI_IF_I2C_INT.c ****             {
 715:.\Generated_Source\PSoC4/HPI_IF_I2C_INT.c ****                 /* Calculate available buffer size to take into account that RX FIFO is FULL */
 716:.\Generated_Source\PSoC4/HPI_IF_I2C_INT.c ****                 diffCount =  HPI_IF_slWrBufSize -
 781              		.loc 1 716 0
 782 01da 5D4B     		ldr	r3, .L73+100
 783 01dc 5348     		ldr	r0, .L73+64
 784 01de 1B68     		ldr	r3, [r3]
 785 01e0 0168     		ldr	r1, [r0]
 786 01e2 083B     		sub	r3, r3, #8
 787 01e4 5B1A     		sub	r3, r3, r1
 788              	.LVL10:
 717:.\Generated_Source\PSoC4/HPI_IF_I2C_INT.c ****                             (HPI_IF_slWrBufIndex + HPI_IF_I2C_FIFO_SIZE);
 718:.\Generated_Source\PSoC4/HPI_IF_I2C_INT.c **** 
 719:.\Generated_Source\PSoC4/HPI_IF_I2C_INT.c ****                 if(diffCount > HPI_IF_I2C_FIFO_SIZE) /* Proceed transaction */
 720:.\Generated_Source\PSoC4/HPI_IF_I2C_INT.c ****                 {
 721:.\Generated_Source\PSoC4/HPI_IF_I2C_INT.c ****                     diffCount   = HPI_IF_I2C_FIFO_SIZE;
 722:.\Generated_Source\PSoC4/HPI_IF_I2C_INT.c ****                     endTransfer = 0u;  /* Continue active transfer */
 723:.\Generated_Source\PSoC4/HPI_IF_I2C_INT.c ****                 }
 724:.\Generated_Source\PSoC4/HPI_IF_I2C_INT.c ****                 else /* End when FIFO becomes FULL again */
 725:.\Generated_Source\PSoC4/HPI_IF_I2C_INT.c ****                 {
 726:.\Generated_Source\PSoC4/HPI_IF_I2C_INT.c ****                     endTransfer = HPI_IF_I2C_CMPLT_ANY_TRANSFER;
 789              		.loc 1 726 0
 790 01e6 0124     		mov	r4, #1
 719:.\Generated_Source\PSoC4/HPI_IF_I2C_INT.c ****                 {
 791              		.loc 1 719 0
 792 01e8 9342     		cmp	r3, r2
 793 01ea 01D9     		bls	.L26
 722:.\Generated_Source\PSoC4/HPI_IF_I2C_INT.c ****                 }
 794              		.loc 1 722 0
 795 01ec 0024     		mov	r4, #0
 721:.\Generated_Source\PSoC4/HPI_IF_I2C_INT.c ****                     endTransfer = 0u;  /* Continue active transfer */
 796              		.loc 1 721 0
 797 01ee 131C     		mov	r3, r2
 798              	.LVL11:
 799              	.L26:
 727:.\Generated_Source\PSoC4/HPI_IF_I2C_INT.c ****                 }
 728:.\Generated_Source\PSoC4/HPI_IF_I2C_INT.c **** 
 729:.\Generated_Source\PSoC4/HPI_IF_I2C_INT.c ****                 for(; (0u != diffCount); diffCount--)
 800              		.loc 1 729 0 discriminator 1
 801 01f0 002B     		cmp	r3, #0
 802 01f2 0CD0     		beq	.L71
 730:.\Generated_Source\PSoC4/HPI_IF_I2C_INT.c ****                 {
 731:.\Generated_Source\PSoC4/HPI_IF_I2C_INT.c ****                     /* Put data in component buffer */
 732:.\Generated_Source\PSoC4/HPI_IF_I2C_INT.c ****                     HPI_IF_slWrBufPtr[HPI_IF_slWrBufIndex] = (uint8) HPI_IF_RX_FIFO_RD_REG;
 803              		.loc 1 732 0 discriminator 2
 804 01f4 4E49     		ldr	r1, .L73+68
 805 01f6 0268     		ldr	r2, [r0]
 806 01f8 0968     		ldr	r1, [r1]
 729:.\Generated_Source\PSoC4/HPI_IF_I2C_INT.c ****                 {
 807              		.loc 1 729 0 discriminator 2
 808 01fa 013B     		sub	r3, r3, #1
 809              	.LVL12:
 810              		.loc 1 732 0 discriminator 2
 811 01fc 8A18     		add	r2, r1, r2
 812 01fe 4D49     		ldr	r1, .L73+72
ARM GAS  C:\Users\victo\AppData\Local\Temp\ccFkh5tB.s 			page 54


 813 0200 0968     		ldr	r1, [r1]
 814 0202 C9B2     		uxtb	r1, r1
 815 0204 1170     		strb	r1, [r2]
 733:.\Generated_Source\PSoC4/HPI_IF_I2C_INT.c ****                     HPI_IF_slWrBufIndex++;
 816              		.loc 1 733 0 discriminator 2
 817 0206 0268     		ldr	r2, [r0]
 818 0208 0132     		add	r2, r2, #1
 819 020a 0260     		str	r2, [r0]
 820 020c F0E7     		b	.L26
 821              	.L71:
 734:.\Generated_Source\PSoC4/HPI_IF_I2C_INT.c ****                 }
 735:.\Generated_Source\PSoC4/HPI_IF_I2C_INT.c **** 
 736:.\Generated_Source\PSoC4/HPI_IF_I2C_INT.c ****                 if(0u != endTransfer) /* End transfer sending NACK */
 822              		.loc 1 736 0
 823 020e 002C     		cmp	r4, #0
 824 0210 07D0     		beq	.L28
 737:.\Generated_Source\PSoC4/HPI_IF_I2C_INT.c ****                 {
 738:.\Generated_Source\PSoC4/HPI_IF_I2C_INT.c ****                     HPI_IF_ENABLE_SLAVE_AUTO_DATA_NACK;
 825              		.loc 1 738 0
 826 0212 8020     		mov	r0, #128
 827 0214 4349     		ldr	r1, .L73+56
 828 0216 0002     		lsl	r0, r0, #8
 829 0218 0A68     		ldr	r2, [r1]
 830 021a 0243     		orr	r2, r0
 831 021c 0A60     		str	r2, [r1]
 739:.\Generated_Source\PSoC4/HPI_IF_I2C_INT.c **** 
 740:.\Generated_Source\PSoC4/HPI_IF_I2C_INT.c ****                     /* INTR_RX_FULL triggers earlier than INTR_SLAVE_I2C_STOP:
 741:.\Generated_Source\PSoC4/HPI_IF_I2C_INT.c ****                     * disable all RX interrupt sources.
 742:.\Generated_Source\PSoC4/HPI_IF_I2C_INT.c ****                     */
 743:.\Generated_Source\PSoC4/HPI_IF_I2C_INT.c ****                     HPI_IF_SetRxInterruptMode(HPI_IF_NO_INTR_SOURCES);
 832              		.loc 1 743 0
 833 021e 484A     		ldr	r2, .L73+84
 834 0220 1360     		str	r3, [r2]
 835              	.L28:
 744:.\Generated_Source\PSoC4/HPI_IF_I2C_INT.c ****                 }
 745:.\Generated_Source\PSoC4/HPI_IF_I2C_INT.c **** 
 746:.\Generated_Source\PSoC4/HPI_IF_I2C_INT.c ****                 HPI_IF_ClearRxInterruptSource(HPI_IF_INTR_RX_FULL);
 836              		.loc 1 746 0
 837 0222 0822     		mov	r2, #8
 838 0224 1FE0     		b	.L68
 839              	.LVL13:
 840              	.L24:
 747:.\Generated_Source\PSoC4/HPI_IF_I2C_INT.c ****             }
 748:.\Generated_Source\PSoC4/HPI_IF_I2C_INT.c ****             /* HPI_IF_INTR_RX_NOT_EMPTY:
 749:.\Generated_Source\PSoC4/HPI_IF_I2C_INT.c ****             * The buffer size is less than 8: it requires processing in byte-by-byte mode.
 750:.\Generated_Source\PSoC4/HPI_IF_I2C_INT.c ****             */
 751:.\Generated_Source\PSoC4/HPI_IF_I2C_INT.c ****             else if(HPI_IF_CHECK_INTR_RX_MASKED(HPI_IF_INTR_RX_NOT_EMPTY))
 841              		.loc 1 751 0
 842 0226 1B68     		ldr	r3, [r3]
 843 0228 5B07     		lsl	r3, r3, #29
 844 022a 1ED5     		bpl	.L29
 752:.\Generated_Source\PSoC4/HPI_IF_I2C_INT.c ****             {
 753:.\Generated_Source\PSoC4/HPI_IF_I2C_INT.c ****                 diffCount = HPI_IF_RX_FIFO_RD_REG;
 845              		.loc 1 753 0
 846 022c 414B     		ldr	r3, .L73+72
 754:.\Generated_Source\PSoC4/HPI_IF_I2C_INT.c **** 
 755:.\Generated_Source\PSoC4/HPI_IF_I2C_INT.c ****                 if(HPI_IF_slWrBufIndex < HPI_IF_slWrBufSize)
ARM GAS  C:\Users\victo\AppData\Local\Temp\ccFkh5tB.s 			page 55


 847              		.loc 1 755 0
 848 022e 3F49     		ldr	r1, .L73+64
 753:.\Generated_Source\PSoC4/HPI_IF_I2C_INT.c **** 
 849              		.loc 1 753 0
 850 0230 1A68     		ldr	r2, [r3]
 851              	.LVL14:
 852              		.loc 1 755 0
 853 0232 474B     		ldr	r3, .L73+100
 854 0234 0C68     		ldr	r4, [r1]
 855 0236 1868     		ldr	r0, [r3]
 856 0238 484B     		ldr	r3, .L73+112
 857 023a 8442     		cmp	r4, r0
 858 023c 0BD2     		bcs	.L30
 756:.\Generated_Source\PSoC4/HPI_IF_I2C_INT.c ****                 {
 757:.\Generated_Source\PSoC4/HPI_IF_I2C_INT.c ****                     HPI_IF_I2C_SLAVE_GENERATE_ACK;
 859              		.loc 1 757 0
 860 023e 0120     		mov	r0, #1
 861 0240 1860     		str	r0, [r3]
 758:.\Generated_Source\PSoC4/HPI_IF_I2C_INT.c **** 
 759:.\Generated_Source\PSoC4/HPI_IF_I2C_INT.c ****                     /* Put data into component buffer */
 760:.\Generated_Source\PSoC4/HPI_IF_I2C_INT.c ****                     HPI_IF_slWrBufPtr[HPI_IF_slWrBufIndex] = (uint8) diffCount;
 862              		.loc 1 760 0
 863 0242 3B48     		ldr	r0, .L73+68
 864 0244 0B68     		ldr	r3, [r1]
 865 0246 0068     		ldr	r0, [r0]
 866 0248 D2B2     		uxtb	r2, r2
 867              	.LVL15:
 868 024a C318     		add	r3, r0, r3
 869 024c 1A70     		strb	r2, [r3]
 761:.\Generated_Source\PSoC4/HPI_IF_I2C_INT.c ****                     HPI_IF_slWrBufIndex++;
 870              		.loc 1 761 0
 871 024e 0B68     		ldr	r3, [r1]
 872 0250 0133     		add	r3, r3, #1
 873 0252 0B60     		str	r3, [r1]
 874 0254 06E0     		b	.L31
 875              	.LVL16:
 876              	.L30:
 762:.\Generated_Source\PSoC4/HPI_IF_I2C_INT.c ****                 }
 763:.\Generated_Source\PSoC4/HPI_IF_I2C_INT.c ****                 else /* Overflow: there is no space in write buffer */
 764:.\Generated_Source\PSoC4/HPI_IF_I2C_INT.c ****                 {
 765:.\Generated_Source\PSoC4/HPI_IF_I2C_INT.c ****                     HPI_IF_I2C_SLAVE_GENERATE_NACK;
 877              		.loc 1 765 0
 878 0256 0222     		mov	r2, #2
 879              	.LVL17:
 766:.\Generated_Source\PSoC4/HPI_IF_I2C_INT.c **** 
 767:.\Generated_Source\PSoC4/HPI_IF_I2C_INT.c ****                     HPI_IF_slStatus |= (uint8) HPI_IF_I2C_SSTAT_WR_OVFL;
 880              		.loc 1 767 0
 881 0258 4021     		mov	r1, #64
 765:.\Generated_Source\PSoC4/HPI_IF_I2C_INT.c **** 
 882              		.loc 1 765 0
 883 025a 1A60     		str	r2, [r3]
 884              		.loc 1 767 0
 885 025c 284A     		ldr	r2, .L73+20
 886 025e 1378     		ldrb	r3, [r2]
 887 0260 0B43     		orr	r3, r1
 888 0262 1370     		strb	r3, [r2]
 889              	.L31:
ARM GAS  C:\Users\victo\AppData\Local\Temp\ccFkh5tB.s 			page 56


 768:.\Generated_Source\PSoC4/HPI_IF_I2C_INT.c ****                 }
 769:.\Generated_Source\PSoC4/HPI_IF_I2C_INT.c **** 
 770:.\Generated_Source\PSoC4/HPI_IF_I2C_INT.c ****                 HPI_IF_ClearRxInterruptSource(HPI_IF_INTR_RX_NOT_EMPTY);
 890              		.loc 1 770 0
 891 0264 0422     		mov	r2, #4
 892              	.LVL18:
 893              	.L68:
 894 0266 354B     		ldr	r3, .L73+80
 895 0268 1A60     		str	r2, [r3]
 896              	.L29:
 771:.\Generated_Source\PSoC4/HPI_IF_I2C_INT.c ****             }
 772:.\Generated_Source\PSoC4/HPI_IF_I2C_INT.c ****             else
 773:.\Generated_Source\PSoC4/HPI_IF_I2C_INT.c ****             {
 774:.\Generated_Source\PSoC4/HPI_IF_I2C_INT.c ****                 /* Does nothing */
 775:.\Generated_Source\PSoC4/HPI_IF_I2C_INT.c ****             }
 776:.\Generated_Source\PSoC4/HPI_IF_I2C_INT.c **** 
 777:.\Generated_Source\PSoC4/HPI_IF_I2C_INT.c **** 
 778:.\Generated_Source\PSoC4/HPI_IF_I2C_INT.c ****             /* HPI_IF_INTR_TX_EMPTY:
 779:.\Generated_Source\PSoC4/HPI_IF_I2C_INT.c ****             * The master reads the slave: provide data to read or 0xFF in the case of the end of th
 780:.\Generated_Source\PSoC4/HPI_IF_I2C_INT.c ****             * The overflow condition must be captured, but not set until the end of transaction.
 781:.\Generated_Source\PSoC4/HPI_IF_I2C_INT.c ****             * There is a possibility of a false overflow due to TX FIFO utilization.
 782:.\Generated_Source\PSoC4/HPI_IF_I2C_INT.c ****             */
 783:.\Generated_Source\PSoC4/HPI_IF_I2C_INT.c ****             if(HPI_IF_CHECK_INTR_TX_MASKED(HPI_IF_INTR_TX_EMPTY))
 897              		.loc 1 783 0
 898 026a 3E4B     		ldr	r3, .L73+120
 899 026c 1B68     		ldr	r3, [r3]
 900 026e DB06     		lsl	r3, r3, #27
 901 0270 3AD5     		bpl	.L1
 902              	.L32:
 784:.\Generated_Source\PSoC4/HPI_IF_I2C_INT.c ****             {
 785:.\Generated_Source\PSoC4/HPI_IF_I2C_INT.c ****                 while(HPI_IF_I2C_FIFO_SIZE != HPI_IF_GET_TX_FIFO_ENTRIES)
 903              		.loc 1 785 0
 904 0272 264B     		ldr	r3, .L73+32
 905 0274 1A68     		ldr	r2, [r3]
 906 0276 1F23     		mov	r3, #31
 907 0278 1340     		and	r3, r2
 908 027a 082B     		cmp	r3, #8
 909 027c 1CD0     		beq	.L72
 786:.\Generated_Source\PSoC4/HPI_IF_I2C_INT.c ****                 {
 787:.\Generated_Source\PSoC4/HPI_IF_I2C_INT.c ****                     /* Temporary slRdBufIndexTmp is used because the master can NACK the byte and
 788:.\Generated_Source\PSoC4/HPI_IF_I2C_INT.c ****                     * index roll-back is required in this case. The slRdBufIndex is updated at the 
 789:.\Generated_Source\PSoC4/HPI_IF_I2C_INT.c ****                     * of the read transfer.
 790:.\Generated_Source\PSoC4/HPI_IF_I2C_INT.c ****                     */
 791:.\Generated_Source\PSoC4/HPI_IF_I2C_INT.c ****                     if(HPI_IF_slRdBufIndexTmp < HPI_IF_slRdBufSize)
 910              		.loc 1 791 0
 911 027e 224A     		ldr	r2, .L73+28
 912 0280 394B     		ldr	r3, .L73+124
 913 0282 1068     		ldr	r0, [r2]
 914 0284 1B68     		ldr	r3, [r3]
 915 0286 3949     		ldr	r1, .L73+128
 916 0288 9842     		cmp	r0, r3
 917 028a 0AD2     		bcs	.L34
 792:.\Generated_Source\PSoC4/HPI_IF_I2C_INT.c ****                     /* Data from buffer */
 793:.\Generated_Source\PSoC4/HPI_IF_I2C_INT.c ****                     {
 794:.\Generated_Source\PSoC4/HPI_IF_I2C_INT.c ****                         HPI_IF_TX_FIFO_WR_REG = (uint32) HPI_IF_slRdBufPtr[HPI_IF_slRdBufIndexTmp];
 918              		.loc 1 794 0
 919 028c 3848     		ldr	r0, .L73+132
ARM GAS  C:\Users\victo\AppData\Local\Temp\ccFkh5tB.s 			page 57


 920 028e 1368     		ldr	r3, [r2]
 921 0290 0068     		ldr	r0, [r0]
 922 0292 C318     		add	r3, r0, r3
 923 0294 1B78     		ldrb	r3, [r3]
 924 0296 DBB2     		uxtb	r3, r3
 925 0298 0B60     		str	r3, [r1]
 795:.\Generated_Source\PSoC4/HPI_IF_I2C_INT.c ****                         HPI_IF_slRdBufIndexTmp++;
 926              		.loc 1 795 0
 927 029a 1368     		ldr	r3, [r2]
 928 029c 0133     		add	r3, r3, #1
 929 029e 1360     		str	r3, [r2]
 930 02a0 E7E7     		b	.L32
 931              	.L34:
 796:.\Generated_Source\PSoC4/HPI_IF_I2C_INT.c ****                     }
 797:.\Generated_Source\PSoC4/HPI_IF_I2C_INT.c ****                     else
 798:.\Generated_Source\PSoC4/HPI_IF_I2C_INT.c ****                     /* Probably Overflow */
 799:.\Generated_Source\PSoC4/HPI_IF_I2C_INT.c ****                     {
 800:.\Generated_Source\PSoC4/HPI_IF_I2C_INT.c ****                         HPI_IF_TX_FIFO_WR_REG = HPI_IF_I2C_SLAVE_OVFL_RETURN;
 932              		.loc 1 800 0
 933 02a2 FF23     		mov	r3, #255
 801:.\Generated_Source\PSoC4/HPI_IF_I2C_INT.c **** 
 802:.\Generated_Source\PSoC4/HPI_IF_I2C_INT.c ****                         if(0u == (HPI_IF_INTR_TX_OVERFLOW & HPI_IF_slOverFlowCount))
 934              		.loc 1 802 0
 935 02a4 1A4A     		ldr	r2, .L73+36
 800:.\Generated_Source\PSoC4/HPI_IF_I2C_INT.c **** 
 936              		.loc 1 800 0
 937 02a6 0B60     		str	r3, [r1]
 938              		.loc 1 802 0
 939 02a8 1378     		ldrb	r3, [r2]
 940 02aa 9B06     		lsl	r3, r3, #26
 941 02ac E1D4     		bmi	.L32
 803:.\Generated_Source\PSoC4/HPI_IF_I2C_INT.c ****                         {
 804:.\Generated_Source\PSoC4/HPI_IF_I2C_INT.c ****                             /* Get counter in range of byte: value 10 is overflow */
 805:.\Generated_Source\PSoC4/HPI_IF_I2C_INT.c ****                             HPI_IF_slOverFlowCount++;
 942              		.loc 1 805 0
 943 02ae 1378     		ldrb	r3, [r2]
 944 02b0 0133     		add	r3, r3, #1
 945 02b2 DBB2     		uxtb	r3, r3
 946 02b4 1370     		strb	r3, [r2]
 947 02b6 DCE7     		b	.L32
 948              	.L72:
 806:.\Generated_Source\PSoC4/HPI_IF_I2C_INT.c ****                         }
 807:.\Generated_Source\PSoC4/HPI_IF_I2C_INT.c ****                     }
 808:.\Generated_Source\PSoC4/HPI_IF_I2C_INT.c ****                 }
 809:.\Generated_Source\PSoC4/HPI_IF_I2C_INT.c **** 
 810:.\Generated_Source\PSoC4/HPI_IF_I2C_INT.c ****                 HPI_IF_ClearTxInterruptSource(HPI_IF_INTR_TX_EMPTY);
 949              		.loc 1 810 0
 950 02b8 1022     		mov	r2, #16
 951 02ba 2E4B     		ldr	r3, .L73+136
 952 02bc 1A60     		str	r2, [r3]
 953 02be 13E0     		b	.L1
 954              	.LVL19:
 955              	.L9:
 811:.\Generated_Source\PSoC4/HPI_IF_I2C_INT.c ****             }
 812:.\Generated_Source\PSoC4/HPI_IF_I2C_INT.c **** 
 813:.\Generated_Source\PSoC4/HPI_IF_I2C_INT.c ****         }  /* (HPI_IF_I2C_SLAVE) */
 814:.\Generated_Source\PSoC4/HPI_IF_I2C_INT.c ****         #endif
ARM GAS  C:\Users\victo\AppData\Local\Temp\ccFkh5tB.s 			page 58


 815:.\Generated_Source\PSoC4/HPI_IF_I2C_INT.c ****     }
 816:.\Generated_Source\PSoC4/HPI_IF_I2C_INT.c **** 
 817:.\Generated_Source\PSoC4/HPI_IF_I2C_INT.c **** 
 818:.\Generated_Source\PSoC4/HPI_IF_I2C_INT.c ****     /* FSM EXIT:
 819:.\Generated_Source\PSoC4/HPI_IF_I2C_INT.c ****     * Slave:  INTR_SLAVE_I2C_BUS_ERROR, INTR_SLAVE_I2C_ARB_LOST
 820:.\Generated_Source\PSoC4/HPI_IF_I2C_INT.c ****     * Master: INTR_MASTER_I2C_BUS_ERROR, INTR_MASTER_I2C_ARB_LOST.
 821:.\Generated_Source\PSoC4/HPI_IF_I2C_INT.c ****     */
 822:.\Generated_Source\PSoC4/HPI_IF_I2C_INT.c ****     else
 823:.\Generated_Source\PSoC4/HPI_IF_I2C_INT.c ****     {
 824:.\Generated_Source\PSoC4/HPI_IF_I2C_INT.c ****         HPI_IF_CTRL_REG &= (uint32) ~HPI_IF_CTRL_ENABLED; /* Disable scb IP */
 956              		.loc 1 824 0
 957 02c0 2D49     		ldr	r1, .L73+140
 958 02c2 0A68     		ldr	r2, [r1]
 959 02c4 5200     		lsl	r2, r2, #1
 960 02c6 5208     		lsr	r2, r2, #1
 961 02c8 0A60     		str	r2, [r1]
 825:.\Generated_Source\PSoC4/HPI_IF_I2C_INT.c **** 
 826:.\Generated_Source\PSoC4/HPI_IF_I2C_INT.c ****         HPI_IF_state = HPI_IF_I2C_FSM_IDLE;
 962              		.loc 1 826 0
 963 02ca 1870     		strb	r0, [r3]
 827:.\Generated_Source\PSoC4/HPI_IF_I2C_INT.c **** 
 828:.\Generated_Source\PSoC4/HPI_IF_I2C_INT.c ****         HPI_IF_DISABLE_SLAVE_AUTO_DATA;
 964              		.loc 1 828 0
 965 02cc 154B     		ldr	r3, .L73+56
 966 02ce 1A4A     		ldr	r2, .L73+76
 967 02d0 1868     		ldr	r0, [r3]
 968 02d2 0240     		and	r2, r0
 969 02d4 1A60     		str	r2, [r3]
 829:.\Generated_Source\PSoC4/HPI_IF_I2C_INT.c ****         HPI_IF_DISABLE_MASTER_AUTO_DATA;
 970              		.loc 1 829 0
 971 02d6 1868     		ldr	r0, [r3]
 972 02d8 284A     		ldr	r2, .L73+144
 973 02da 0240     		and	r2, r0
 974 02dc 1A60     		str	r2, [r3]
 830:.\Generated_Source\PSoC4/HPI_IF_I2C_INT.c **** 
 831:.\Generated_Source\PSoC4/HPI_IF_I2C_INT.c ****     #if(HPI_IF_CY_SCBIP_V0)
 832:.\Generated_Source\PSoC4/HPI_IF_I2C_INT.c ****         HPI_IF_SetRxInterruptMode(HPI_IF_NO_INTR_SOURCES);
 833:.\Generated_Source\PSoC4/HPI_IF_I2C_INT.c ****         HPI_IF_SetTxInterruptMode(HPI_IF_NO_INTR_SOURCES);
 834:.\Generated_Source\PSoC4/HPI_IF_I2C_INT.c **** 
 835:.\Generated_Source\PSoC4/HPI_IF_I2C_INT.c ****         /* Clear interrupt sources as they are not automatically cleared after SCB is disabled */
 836:.\Generated_Source\PSoC4/HPI_IF_I2C_INT.c ****         HPI_IF_ClearTxInterruptSource(HPI_IF_INTR_RX_ALL);
 837:.\Generated_Source\PSoC4/HPI_IF_I2C_INT.c ****         HPI_IF_ClearRxInterruptSource(HPI_IF_INTR_TX_ALL);
 838:.\Generated_Source\PSoC4/HPI_IF_I2C_INT.c ****         HPI_IF_ClearSlaveInterruptSource(HPI_IF_INTR_SLAVE_ALL);
 839:.\Generated_Source\PSoC4/HPI_IF_I2C_INT.c ****         HPI_IF_ClearMasterInterruptSource(HPI_IF_INTR_MASTER_ALL);
 840:.\Generated_Source\PSoC4/HPI_IF_I2C_INT.c ****     #endif /* (HPI_IF_CY_SCBIP_V0) */
 841:.\Generated_Source\PSoC4/HPI_IF_I2C_INT.c **** 
 842:.\Generated_Source\PSoC4/HPI_IF_I2C_INT.c ****         HPI_IF_CTRL_REG |= (uint32) HPI_IF_CTRL_ENABLED;  /* Enable scb IP */
 975              		.loc 1 842 0
 976 02de 8022     		mov	r2, #128
 977 02e0 0B68     		ldr	r3, [r1]
 978 02e2 1206     		lsl	r2, r2, #24
 979 02e4 1343     		orr	r3, r2
 980 02e6 0B60     		str	r3, [r1]
 981              	.LVL20:
 982              	.L1:
 843:.\Generated_Source\PSoC4/HPI_IF_I2C_INT.c ****     }
 844:.\Generated_Source\PSoC4/HPI_IF_I2C_INT.c **** 
ARM GAS  C:\Users\victo\AppData\Local\Temp\ccFkh5tB.s 			page 59


 845:.\Generated_Source\PSoC4/HPI_IF_I2C_INT.c **** #ifdef HPI_IF_I2C_ISR_EXIT_CALLBACK
 846:.\Generated_Source\PSoC4/HPI_IF_I2C_INT.c ****     HPI_IF_I2C_ISR_ExitCallback();
 847:.\Generated_Source\PSoC4/HPI_IF_I2C_INT.c **** #endif /* HPI_IF_I2C_ISR_EXIT_CALLBACK */
 848:.\Generated_Source\PSoC4/HPI_IF_I2C_INT.c ****     
 849:.\Generated_Source\PSoC4/HPI_IF_I2C_INT.c **** }
 983              		.loc 1 849 0
 984              		@ sp needed
 985 02e8 F8BD     		pop	{r3, r4, r5, r6, r7, pc}
 986              	.L74:
 987 02ea C046     		.align	2
 988              	.L73:
 989 02ec 00000000 		.word	HPI_IF_customIntrHandler
 990 02f0 8C0E0540 		.word	1074073228
 991 02f4 880E0540 		.word	1074073224
 992 02f8 00000000 		.word	HPI_IF_state
 993 02fc 4C0F0540 		.word	1074073420
 994 0300 00000000 		.word	HPI_IF_slStatus
 995 0304 400F0540 		.word	1074073408
 996 0308 00000000 		.word	HPI_IF_slRdBufIndexTmp
 997 030c 08020540 		.word	1074070024
 998 0310 00000000 		.word	HPI_IF_slOverFlowCount
 999 0314 00000000 		.word	HPI_IF_slRdBufIndex
 1000 0318 880F0540 		.word	1074073480
 1001 031c 04020540 		.word	1074070020
 1002 0320 FFFFFEFF 		.word	-65537
 1003 0324 60000540 		.word	1074069600
 1004 0328 08030540 		.word	1074070280
 1005 032c 00000000 		.word	HPI_IF_slWrBufIndex
 1006 0330 00000000 		.word	HPI_IF_slWrBufPtr
 1007 0334 40030540 		.word	1074070336
 1008 0338 FF5FFFFF 		.word	-40961
 1009 033c C00F0540 		.word	1074073536
 1010 0340 C80F0540 		.word	1074073544
 1011 0344 ED0F0000 		.word	4077
 1012 0348 800E0540 		.word	1074073216
 1013 034c 64000540 		.word	1074069604
 1014 0350 00000000 		.word	HPI_IF_slWrBufSize
 1015 0354 FF0F0000 		.word	4095
 1016 0358 480F0540 		.word	1074073416
 1017 035c 6C000540 		.word	1074069612
 1018 0360 CC0F0540 		.word	1074073548
 1019 0364 8C0F0540 		.word	1074073484
 1020 0368 00000000 		.word	HPI_IF_slRdBufSize
 1021 036c 40020540 		.word	1074070080
 1022 0370 00000000 		.word	HPI_IF_slRdBufPtr
 1023 0374 800F0540 		.word	1074073472
 1024 0378 00000540 		.word	1074069504
 1025 037c FFFCFFFF 		.word	-769
 1026              		.cfi_endproc
 1027              	.LFE0:
 1028              		.size	HPI_IF_I2C_ISR, .-HPI_IF_I2C_ISR
 1029              		.text
 1030              	.Letext0:
 1031              		.file 2 "Generated_Source\\PSoC4/cytypes.h"
 1032              		.file 3 ".\\Generated_Source\\PSoC4\\HPI_IF_PVT.h"
 1033              		.file 4 ".\\Generated_Source\\PSoC4\\HPI_IF_I2C_PVT.h"