ARM GAS  C:\Users\victo\AppData\Local\Temp\ccLBIWao.s 			page 1


   1              		.cpu cortex-m0
   2              		.fpu softvfp
   3              		.eabi_attribute 20, 1
   4              		.eabi_attribute 21, 1
   5              		.eabi_attribute 23, 3
   6              		.eabi_attribute 24, 1
   7              		.eabi_attribute 25, 1
   8              		.eabi_attribute 26, 1
   9              		.eabi_attribute 30, 4
  10              		.eabi_attribute 34, 0
  11              		.eabi_attribute 18, 4
  12              		.code	16
  13              		.file	"HPI_IF.c"
  14              		.text
  15              	.Ltext0:
  16              		.section	.gnu.lto_.profile.92f6528e,"",%progbits
  17 0000 789C6366 		.ascii	"x\234cf```a\200\000F\206JM\000\001\217\000\253"
  17      60606061 
  17      80004686 
  17      4A4D0001 
  17      8F00AB
  18              		.text
  19              		.section	.gnu.lto_.jmpfuncs.92f6528e,"",%progbits
  20 0000 789C6366 		.ascii	"x\234cf\300\016<\2404\007\02032}db\274qb\272\351\013"
  20      C00E3CA0 
  20      34071033 
  20      327D6462 
  20      BC7162BA 
  21 0016 A69F4C0C 		.ascii	"\246\237L\014\234\014\214\313\031\245\030\030\201\022"
  21      9C0C8CCB 
  21      19A51818 
  21      8112
  22 0024 4C40CC0C 		.ascii	"L@\314\014R\305\012R\004\026\206\321l\214\214\214\365"
  22      52C50A52 
  22      041686D1 
  22      6C8C8C8C 
  22      F5
  23 0035 EC208203 		.ascii	"\354 \202\003D0\000\000\270w\011\232"
  23      44300000 
  23      B877099A 
  24              		.text
  25              		.section	.gnu.lto_.inline.92f6528e,"",%progbits
  26 0000 789C6366 		.ascii	"x\234cf\300\016\256Bi\016\006\006V^F\006& \223m\201"
  26      C00EAE42 
  26      690E0606 
  26      565E4606 
  26      2620936D 
  27 0015 3C886260 		.ascii	"<\210b`\342f``\004B\026\036TqF.\220$\003;?P\230\355"
  27      E2666060 
  27      0442161E 
  27      5471462E 
  27      9024033B 
  28 002d 831EAA38 		.ascii	"\203\036\25283\003\2470P\234\343\227\011\2528\230`e"
  28      3303A730 
  28      509CE397 
  28      09AA3898 
  28      6065
ARM GAS  C:\Users\victo\AppData\Local\Temp\ccLBIWao.s 			page 2


  29 003f E0510349 		.ascii	"\340Q\003I\036\260C\267\204\013\316dc\340`g\004Y\313"
  29      1EB043B7 
  29      840BCE64 
  29      63E06067 
  29      0459CB
  30 0052 C00C57C7 		.ascii	"\300\014W\307t\201\237\005\244\230\035\217\034\007\003"
  30      74819F05 
  30      A4981D8F 
  30      1C0703
  31 0061 0B33D06C 		.ascii	"\0133\320l \027n6\003\000o\030\020z"
  31      20176E36 
  31      03006F18 
  31      107A
  32              		.text
  33              		.section	.gnu.lto_.pureconst.92f6528e,"",%progbits
  34 0000 789C6366 		.ascii	"x\234cf``\020d\200\000\016\006\011F\011&)f\011V)6)v"
  34      60601064 
  34      80000E06 
  34      09460926 
  34      29660956 
  35 0018 290E0900 		.ascii	")\016\011\000\011\225\001\005"
  35      09950105 
  36              		.text
  37              		.section	.gnu.lto_HPI_IF_ScbEnableIntr.92f6528e,"",%progbits
  38 0000 789C6366 		.ascii	"x\234cf\300\004R@\274\015\210U\200\230\221\231\201\221"
  38      C0045240 
  38      BC0D8855 
  38      80989199 
  38      8191
  39 0012 69C23906 		.ascii	"i\3029\006\206F\016&FF\020\203\201\221\241\236\211\261"
  39      86460E26 
  39      46461083 
  39      8191A19E 
  39      89B1
  40 0024 9EF125D3 		.ascii	"\236\361%\323G&\306\011\007V\317\340V_\332\320\320\360"
  40      4726C609 
  40      0756CFE0 
  40      565FDAD0 
  40      D0F0
  41 0036 A1697769 		.ascii	"\241iwi\303\224\204\237L\014\014\237\231 \3460.gTg\000"
  41      C394849F 
  41      4C0C0C9F 
  41      9920E630 
  41      2E675467 
  42 004b 2AFAD8F2 		.ascii	"*\372\330\362\367:7[\013P\221\000D\216q\005#\033#\220"
  42      F73A375B 
  42      0B509100 
  42      448E7105 
  42      231B2390 
  43 005f 5E2F74A0 		.ascii	"^/t\240\341\377\377\317o\246\276\260fef`x\002\224\003"
  43      E1FFFFCF 
  43      6FA6BEB0 
  43      66656660 
  43      78029403 
  44 0073 D9F09489 		.ascii	"\331\360\224\211\011D3\337al9p\375:\017H5\310\230y\227"
  44      094433DF 
  44      616C3970 
ARM GAS  C:\Users\victo\AppData\Local\Temp\ccLBIWao.s 			page 3


  44      FD3A0F48 
  44      35C89879 
  45 0088 FBD631D5 		.ascii	"\373\3261\325\376n\350h\340\370\311\304\370\231\011"
  45      FE6EE868 
  45      E0F8C9C4 
  45      F89909
  46 0097 6802E34A 		.ascii	"h\002\343J\306Z\220\324\215\023\323M_0\375db\342d`\\"
  46      C65A90D4 
  46      8D13D34D 
  46      5F30FD64 
  46      62E26460 
  47 00ac C528F593 		.ascii	"\305(\365\223\211\231\341\036c\343\201\373\341`\275"
  47      8999E11E 
  47      63E381FB 
  47      E160BD
  48 00bb 0C20A319 		.ascii	"\014 \243\031AF\002-P\322\213qO\315K-J,IM\211\017\316"
  48      4146022D 
  48      50D28B71 
  48      4FCD4B2D 
  48      4A2C494D 
  49 00d2 2F2D4A4E 		.ascii	"/-JN\215\011\010\316w6\211\361\010\360\214\367t\323"
  49      8D0908CE 
  49      773689F1 
  49      08F08CF7 
  49      74D3
  50 00e4 4B660000 		.ascii	"Kf\000\000\242RN{"
  50      A2524E7B 
  51              		.text
  52              		.section	.gnu.lto_HPI_IF_Init.92f6528e,"",%progbits
  53 0000 789C6366 		.ascii	"x\234cf\300\004R@\274\030\210U\200\230\221\231\201\221"
  53      C0045240 
  53      BC188855 
  53      80989199 
  53      8191
  54 0012 69C23906 		.ascii	"i\3029\006\206F\016&FF\020\203\201\221\241\236\211\261"
  54      86460E26 
  54      46461083 
  54      8191A19E 
  54      89B1
  55 0024 9EF125D3 		.ascii	"\236\361%\323G&\306\011\007V\317\340V_\332\320\320\360"
  55      4726C609 
  55      0756CFE0 
  55      565FDAD0 
  55      D0F0
  56 0036 E1D14E89 		.ascii	"\341\321N\211V\211\237L\014\014\237\231 \3060.gTg\000"
  56      56899F4C 
  56      0C0C9F99 
  56      20C6302E 
  56      67546700 
  57 004a AAF9D8F2 		.ascii	"\252\371\330\362\367:7[\013P\215\000D\216q\005#\033"
  57      F73A375B 
  57      0B508D00 
  57      448E7105 
  57      231B
  58 005c 23905E2F 		.ascii	"#\220^/t\240\341\377\377\317\317'\276\260\007Z\303\360"
  58      74A0E1FF 
  58      FFCFCF27 
ARM GAS  C:\Users\victo\AppData\Local\Temp\ccLBIWao.s 			page 4


  58      BEB0075A 
  58      C3F0
  59 006e 042807B2 		.ascii	"\004(\007\262\340)\023\023\210f\276\303\330|\340\372"
  59      E0291313 
  59      8866BEC3 
  59      D87CE0FA 
  60 007e 7126906A 		.ascii	"q&\220j\2201\363.\367\255c\252\375\335\320\321\300\361"
  60      9031F32E 
  60      F7AD63AA 
  60      FDDDD0D1 
  60      C0F1
  61 0090 9389F133 		.ascii	"\223\211\3613\023\320\004\306\225\214\265\014?\201\312"
  61      13D004C6 
  61      958CB50C 
  61      3F81CA
  62 009f EF31361E 		.ascii	"\35716\036\370\357\016V\311\0002\210\021d\000\3208%"
  62      F8EF0E56 
  62      C9003288 
  62      116400D0 
  62      3825
  63 00b1 BD18F7D4 		.ascii	"\275\030\367\324\274\324\242\304\222\324\224\370\340"
  63      BCD4A2C4 
  63      92D494F8 
  63      E0
  64 00be FCD2A2E4 		.ascii	"\374\322\242\344\324\230\200\340|g\223\030\217\000\317"
  64      D49880E0 
  64      7C679318 
  64      8F00CF
  65 00cd 784F37BD 		.ascii	"xO7\275d\006\000WgGg"
  65      64060057 
  65      674767
  66              		.text
  67              		.section	.gnu.lto_HPI_IF_Enable.92f6528e,"",%progbits
  68 0000 789C7D8F 		.ascii	"x\234}\217\315KBA\024\305\357\271\317\344\221\004\321"
  68      CD4B4241 
  68      14C5EFB9 
  68      CFE49104 
  68      D1
  69 0011 4A5C46E0 		.ascii	"J\\F\340\316M\375\007A%m\004w!H\330\333&H-\305\021\237"
  69      CE4DFD07 
  69      41256D04 
  69      772148D8 
  69      DB26482D 
  70 0028 102D42A4 		.ascii	"\020-B\244 \010\013\212\350C\323\177\341\321\242MP\204"
  70      20080B8A 
  70      E843D37F 
  70      E1D1A24D 
  70      5084
  71 003a 4820511B 		.ascii	"H Q\033\005\333%J\361\010\263;\272\014\032\230\271\363"
  71      05DB254A 
  71      F108B33B 
  71      BA0C1A98 
  71      B9F3
  72 004c F19B73EE 		.ascii	"\361\233s\3561\350\357\010\310\214\202hN*\014\002\027"
  72      31E8EF08 
  72      C88C8268 
  72      4E2A0C02 
ARM GAS  C:\Users\victo\AppData\Local\Temp\ccLBIWao.s 			page 5


  72      17
  73 005d 1E88B226 		.ascii	"\036\210\262&\003zC\240\014#\203w\3562\012N\371\320"
  73      037A43A0 
  73      0C238377 
  73      EE320A4E 
  73      F9D0
  74 006f 173C574A 		.ascii	"\027<WJ}\2346\374y\277\313D=\036\313\340\002A\022\246"
  74      7D9C36FC 
  74      79BFCB44 
  74      3D1ECBE0 
  74      024112A6 
  75 0083 6B0F9E7D 		.ascii	"k\017\236}^[\230\351\361\033.\341\025y\252\3158j8\354"
  75      5E5B98E9 
  75      F11B2EE1 
  75      1579AACD 
  75      386A38EC 
  76 0097 358A9D79 		.ascii	"5\212\235y\3662\271,f\262\020\265\204\322Vmf]\215&n"
  76      F632B92C 
  76      66B210B5 
  76      84D2566D 
  76      665D8D26 
  77 00ac 3F77EF2A 		.ascii	"?w\357*k\372\343\027k\337\376Y>\307\035v\231\225\332"
  77      6BFAE317 
  77      6BDFFE59 
  77      3EC71D76 
  77      9995DA
  78 00bf 571E6DF3 		.ascii	"W\036m\363\326z|2GW\244\217\365\332\300\231*\341(k\303"
  78      D67A7C32 
  78      4757A48F 
  78      F5DAC099 
  78      2AE1286B 
  79 00d4 65035708 		.ascii	"e\003W\010\340\032\222\014e\224@M\344\372\336\261\234"
  79      E01A920C 
  79      6594404D 
  79      E4FADEB1 
  79      9C
  80 00e5 31562CFE 		.ascii	"1V,\376\264\355I\375\035\322\2502\011\025\241\305\270"
  80      B4ED49FD 
  80      1DD2A832 
  80      0915A1C5 
  80      B8
  81 00f6 088DFD27 		.ascii	"\010\215\375'x#\202\"C/\3109\007\367\254q\335\300q}"
  81      78238222 
  81      432FC839 
  81      07F7AC71 
  81      DDC0717D 
  82 010a AFCAE96F 		.ascii	"\257\312\351o\265\243L\227==\235\013U\244%\341\004\275"
  82      B5A34C97 
  82      3D3D9D0B 
  82      55A425E1 
  82      04BD
  83 011c 22EB9CAC 		.ascii	"\"\353\234\254\216H\322q\241cJ\337\263\241\330\262\265"
  83      8E48D271 
  83      A1634ADF 
  83      B3A1D8B2 
  83      B5
  84 012d 69A5D6B7 		.ascii	"i\245\326\267\254\215x4\271\235JX\261H4\271\270\020"
ARM GAS  C:\Users\victo\AppData\Local\Temp\ccLBIWao.s 			page 6


  84      AC8D7834 
  84      B99D4A58 
  84      B14834B9 
  84      B810
  85 013f 5B8984E3 		.ascii	"[\211\204\343\341\245P\202~\001\330\002\202\347"
  85      E1A55082 
  85      7E01D802 
  85      82E7
  86              		.text
  87              		.section	.gnu.lto_HPI_IF_Start.92f6528e,"",%progbits
  88 0000 789C7551 		.ascii	"x\234uQMK\002Q\024\275\367\276I\245\202\242\225\264"
  88      4D4B0251 
  88      14BDF7BE 
  88      49A582A2 
  88      95B4
  89 0012 7011513B 		.ascii	"p\021Q;[\324?\010\372\330\204\340V\220>f\233\020\265"
  89      5BD43F08 
  89      FAD884E0 
  89      56903E66 
  89      9B10B5
  90 0025 94DEA841 		.ascii	"\224\336\250A\213\210\250M\337\273\314\2624kg\233\201"
  90      8B88A84D 
  90      DFBBCCB2 
  90      346B679B 
  90      81
  91 0036 BE768644 		.ascii	"\276v\206D\031\021\265I\260\235\342\"$\242\356\033\243"
  91      1911B549 
  91      B09DE222 
  91      24A2EE1B 
  91      A3
  92 0047 C8EAC1BC 		.ascii	"\310\352\301\274;s\336\271\347\2363O\300\357\325\315"
  92      3B73DEB9 
  92      E79E334F 
  92      C0EFD5CD 
  93 0057 4F0101DA 		.ascii	"O\001\001\332\271b\035 -d\000\014\007\221H\273@\326"
  93      B9621D20 
  93      2D64000C 
  93      079148BB 
  93      40D6
  94 0069 6B375D20 		.ascii	"k7] \033\005jUXCT/\2000MB\303i|\246\022\341\202\031"
  94      1B056A55 
  94      5843542F 
  94      80304D42 
  94      C3697CA6 
  95 0081 5F6EE8DC 		.ascii	"_n\350\334\222R\026C%\347\214\263B\000e\252\352\343"
  95      92521643 
  95      25E78CB3 
  95      420065AA 
  95      EAE3
  96 0093 36760273 		.ascii	"6v\002sJ\221\267\\\203-\302\234\346\352\031\306\320"
  96      4A91B75C 
  96      832DC29C 
  96      E6EA19C6 
  96      D0
  97 00a4 C67321D9 		.ascii	"\306s!\331b\312\367\367\362\351R\254C\330\005T\210\301"
  97      62CAF7F7 
  97      F2E952AC 
ARM GAS  C:\Users\victo\AppData\Local\Temp\ccLBIWao.s 			page 7


  97      43D80554 
  97      88C1
  98 00b6 2726A839 		.ascii	"'&\2509y\"U\305\035\206\026Sg'B\365\274\220`\271\315"
  98      792255C5 
  98      1D861653 
  98      672742F5 
  98      BC9060B9 
  99 00cb ABF90405 		.ascii	"\253\371\004\005_\345\254tT\210\336\224 \243\217O\227"
  99      5FE5AC74 
  99      5488DE94 
  99      20A38F4F 
  99      97
 100 00dc 59478118 		.ascii	"YG\201\030\261>cFd\0357p\315\220\212%p\007\203\270\213"
 100      B13E6346 
 100      641D3770 
 100      CD908A25 
 100      700783B8 
 101 00f1 AD3C3BCE 		.ascii	"\255<;\3160\\c\3446<\362\255iD\217\347\354\252\233\035"
 101      305C63E4 
 101      363CF2AD 
 101      69448FE7 
 101      ECAA9B1D 
 102 0105 E09EE281 		.ascii	"\340\236\342\201\262  \355\022\367\0306s\027\364#\210"
 102      B22020ED 
 102      12F71836 
 102      7317F423 
 102      88
 103 0116 B99269B4 		.ascii	"\271\222i\264b\224\271\243&\"\356\243\215U\022\274\327"
 103      6294B9A3 
 103      2622EEA3 
 103      8D5512BC 
 103      D7
 104 0127 BAD5CA44 		.ascii	"\272\325\312D\3261&1\310y\353\200\343\025\213\347a\273"
 104      D6312631 
 104      C879EB80 
 104      E3158BE7 
 104      61BB
 105 0139 D2FA375B 		.ascii	"\322\3727[m\230\203\2570)\206\231\220]\215\206\233\224"
 105      6D9883AF 
 105      30298699 
 105      905D8D86 
 105      9B94
 106 014b 7D818087 		.ascii	"}\201\200\207\226\375<i\326\377S\356S\031R\372\177\331"
 106      96FD3C69 
 106      D6FF53EE 
 106      531952FA 
 106      7FD9
 107 015d 112C72F4 		.ascii	"\021,r\364\351\345\001\015\363h\310b\202\272\010T\002"
 107      E9E5010D 
 107      F368C862 
 107      82BA0854 
 107      02
 108 016e 6CA1CDED 		.ascii	"l\241\315\355\353\327\307\365\211\341I}\314\357\015"
 108      EBD7C7F5 
 108      89E1497D 
 108      CCEF0D
 109 017d 4C4D8CEA 		.ascii	"LM\214\352>\2177\320\333\343\033\360\014\372\007\373"
ARM GAS  C:\Users\victo\AppData\Local\Temp\ccLBIWao.s 			page 8


 109      3E8F37D0 
 109      DBE31BF0 
 109      0CFA07FB 
 110 018d DCA3F001 		.ascii	"\334\243\360\001Ak\272g"
 110      416BBA67 
 111              		.text
 112              		.section	.gnu.lto_HPI_IF_Stop.92f6528e,"",%progbits
 113 0000 789C7D91 		.ascii	"x\234}\221KH\033Q\024\206\317\177f\362P)JW\222E\027"
 113      4B481B51 
 113      1486CF7F 
 113      66F25029 
 113      4A579245 
 114 0015 5270E7AA 		.ascii	"Rp\347\252\256\272)\010\255Y5\220]\011\210h\266\025"
 114      AEBA2908 
 114      AD593590 
 114      5D098868 
 114      B615
 115 0027 C42EC51B 		.ascii	"\304.\305\033\022ADDm\301@j]\364\345\243\032[\037\033"
 115      12414444 
 115      6DC1406A 
 115      5DF4E5A3 
 115      1A5B1F1B 
 116 003b 5D0C5DD9 		.ascii	"]\014]\331E\0335\213JI\353\306B\273\213D\214\203\330"
 116      451B358B 
 116      4A49EBC6 
 116      42BB8B44 
 116      8C83D8
 117 004e F49C89AD 		.ascii	"\364\234\211\255\330\207\027f\356\314=\377\371\316\317"
 117      D8871766 
 117      EECC3DFF 
 117      F9CECF
 118 005d FD2DFA7B 		.ascii	"\375-\372{\205\344\271\305D\327e\207E\340\261\017D\211"
 118      85E4B9C5 
 118      44D76587 
 118      45E0B10F 
 118      4489
 119 006f 2003FA41 		.ascii	" \003\372A\240\001\306\000\276\363\001c\314\231O\327"
 119      A001C600 
 119      BEF30163 
 119      CC994FD7 
 120 007f 353F37C6 		.ascii	"5?7\306\024w\312\215\203\215\256\264\225\270\212\301"
 120      1477CA8D 
 120      838DAEB4 
 120      95B88AC1 
 121 008f 4B349368 		.ascii	"K4\223h\016R\247\037\353\374)\3214Tk\230\201\037\262"
 121      0E52A71F 
 121      EBFC29D1 
 121      34546B98 
 121      811FB2
 122 00a2 67AF3AA6 		.ascii	"g\257:\246RY\336{\270y\323\252\261\311e\370\364E\264"
 122      5259DE7B 
 122      B879D3AA 
 122      B1C965F8 
 122      F445B4
 123 00b5 2F2A1DF5 		.ascii	"/*\035\365\225Yw\253\200\2243\236c\355S\340\223\374"
 123      955977AB 
 123      8094339E 
ARM GAS  C:\Users\victo\AppData\Local\Temp\ccLBIWao.s 			page 9


 123      63ED53E0 
 123      93FC
 124 00c7 E822F79F 		.ascii	"\350\"\367\237\230!\023t\231K\332\201Y\364kiws\262\365"
 124      98211374 
 124      994BDA81 
 124      59F46B69 
 124      7773B2F5 
 125 00db 1BBB6CD5 		.ascii	"\033\273l\325\020\346\020r\331\246\002\222\316\306\265"
 125      10E61072 
 125      D9A60292 
 125      CEC6B5
 126 00ea 0B3E9C74 		.ascii	"\013>\234t\275g\242$\374?\014b^f\020^\375c\222\257\304"
 126      BD67A224 
 126      FC3F0C62 
 126      5E66105E 
 126      FD6392AF 
 127 00ff 9657C682 		.ascii	"\226W\306\202\014s\331O\237\360\366h\370\307\306=e\225"
 127      0C73D94F 
 127      9FF0F668 
 127      F8C7C63D 
 127      6595
 128 0111 D99686C3 		.ascii	"\331\226\206\303\247\203IV\003\001c\036\031[\031{\373"
 128      A7834956 
 128      0301631E 
 128      195B197B 
 128      FB
 129 0122 B9EDA077 		.ascii	"\271\355\240wD\372\233\317\236:W\246\220I\244\340r\020"
 129      44FA9BCF 
 129      9E3A57A6 
 129      9049A4E0 
 129      7210
 130 0134 8B08210B 		.ascii	"\213\010!\013\271q,a\012BL\036\373\2538_\225\370.\237"
 130      B9712C61 
 130      0A424C1E 
 130      FBAB385F 
 130      95F82E9F 
 131 0148 DBF2693B 		.ascii	"\333\362i;*\262\002\204\327\242\226\301\023P\331e\300"
 131      2AB20284 
 131      D7A296C1 
 131      1350D965 
 131      C0
 132 0159 3702148C 		.ascii	"7\002\024\214\212\213\305\303\350\231<S\310\257\327"
 132      8A8BC5C3 
 132      E8993C53 
 132      C8AFD7
 133 0168 7A7686A6 		.ascii	"zv\206\246\317\034\276\177\374l\270\366\234\260\374"
 133      CF1CBE7F 
 133      FC6CB8F6 
 133      9CB0FC
 134 0177 9BB02204 		.ascii	"\233\260\"\004\251'^\254\217\004<\013r\266*\025\315"
 134      A9275EAC 
 134      8F043C0B 
 134      72B62A15 
 134      CD
 135 0188 63B7FE7F 		.ascii	"c\267\376\177q\330\242Z\223\033\372\025\300\027$\234"
 135      71D8A25A 
 135      931BFA15 
ARM GAS  C:\Users\victo\AppData\Local\Temp\ccLBIWao.s 			page 10


 135      C017249C 
 136 0198 CF773D35 		.ascii	"\317w=5i\266\320L%\341\246\226\330\235\370\375xog_\274"
 136      69B6D04C 
 136      25E1A696 
 136      D89DF8FD 
 136      786F675F 
 137 01ad BB23DAF3 		.ascii	"\273#\332\363\240\267+\036\213D{\332n\304\332#\341\216"
 137      A0B72B1E 
 137      8B447BDA 
 137      6EC4DA23 
 137      E18E
 138 01bf F0ED962E 		.ascii	"\360\355\226.\372\011\371\313\330w"
 138      FA09F9CB 
 138      D877
 139              		.text
 140              		.section	.gnu.lto_HPI_IF_SetRxFifoLevel.92f6528e,"",%progbits
 141 0000 789C6551 		.ascii	"x\234eQMh\023Q\020~\337\274\335ml\004\305\223\346\242"
 141      4D681351 
 141      107EDFBC 
 141      DD6D6C04 
 141      C593E6A2 
 142 0014 5842C142 		.ascii	"XB\301BOz\027\012\255\025\204h/\036\002E\352\012B0\020"
 142      4F7A170A 
 142      AD158468 
 142      2F1E0245 
 142      EA0A4230 
 143 0029 AA78EB4B 		.ascii	"\252x\353K\\C\353Ak\333CQ#\370\377\023\333h\325\203"
 143      5C43EB41 
 143      6BDB4351 
 143      23F8FF13 
 143      DB68D583 
 144 003d 829206C1 		.ascii	"\202\222\006\301ZiE\320\250=h\016\261\324\21344\244"
 144      5A6945D0 
 144      A83D680E 
 144      B1D48B34 
 144      34A4
 145 004f EE41D679 		.ascii	"\356A\326y\273\007\211>\330\2357\303\367}\363\315<)"
 145      BB07893E 
 145      D89D37C3 
 145      F77DF3CD 
 145      3C29
 146 0061 FE3F11FE 		.ascii	"\376?\021\376\016\220\020{8B\012\320\350\242\020\351"
 146      0E90107B 
 146      38420AD0 
 146      E8A210E9 
 147 0071 1001FA22 		.ascii	"\020\001\372\" \206\010C\370A5\302h1?\031n\277\245\224"
 147      20860843 
 147      F84135C2 
 147      68313F19 
 147      6EBFA594 
 148 0085 5ABD3EBE 		.ascii	"Z\275>\276\355\354V\227ik\024\310\340\016\332\031\262"
 148      EDEC5697 
 148      696B14C8 
 148      E00EDA19 
 148      B2
 149 0096 5219AE93 		.ascii	"R\031\256\223\214B\360\375\331t}!\274B.a\207N\237\217"
 149      8C42F0FD 
ARM GAS  C:\Users\victo\AppData\Local\Temp\ccLBIWao.s 			page 11


 149      D9747D21 
 149      BC422E61 
 149      874E9F8F 
 150 00aa CD4D5A3A 		.ascii	"\315MZ:%C\247\313Wg_\264Fo(\225)\276\235Q{\015\227$"
 150      2543A7CB 
 150      57675FB4 
 150      466F2895 
 150      29BE9D51 
 151 00c2 EE42B21E 		.ascii	"\356B\262\036\356!\202\373\210\010.\011\344\021\325"
 151      EE2182FB 
 151      88082E09 
 151      E411D5
 152 00d1 F05CB970 		.ascii	"\360\\\271pI\312\016_x*?\333\240\266kL\255\\\031y\275"
 152      49CA0E5F 
 152      782A3FDB 
 152      A0B66B4C 
 152      AD5C1979 
 153 00e6 51CD29A7 		.ascii	"Q\315)\247\342y\333\265\302\203f\205\3400\245\346\374"
 153      E279DBB5 
 153      C2836685 
 153      E030A5E6 
 153      FC
 154 00f7 FE14B61C 		.ascii	"\376\024\266\034\266\276\031Sh\013lc\032\0268\350Ja"
 154      B6BE1953 
 154      680B6C63 
 154      1A1638E8 
 154      4A61
 155 0109 4B5179DE 		.ascii	"KQy\336\332\302\304p\207\021b\005.I\377o@[0\331\214"
 155      DAC2C470 
 155      87116205 
 155      2E49FF6F 
 155      405B30D9 
 156 011e 61F90521 		.ascii	"a\371\005!\252L\326\313\371N\244\243\\B\251q\256\361"
 156      AA4CD6CB 
 156      F94EA4A3 
 156      5C42A971 
 156      AEF1
 157 0130 26A6F5D6 		.ascii	"&\246\365\326Ioj\271z\336\205\236\325t\262\023\312\237"
 157      496F6AB9 
 157      7ADE859E 
 157      D574B213 
 157      CA9F
 158 0142 F75BF5DD 		.ascii	"\367[\365\335\373\220_\362\015]\034\177y{C\016\227\323"
 158      FB905FF2 
 158      0D5D1C7F 
 158      797B430E 
 158      97D3
 159 0154 4EBAB8CB 		.ascii	"N\272\270\313%\013\005\266\374P[\306#\344 \312\310\250"
 159      250B05B6 
 159      FC505BC6 
 159      23E420CA 
 159      C8A8
 160 0166 83BE416E 		.ascii	"\203\276An\311\242b\011g~eK\373\203\0362hs\363\347\323"
 160      C9A26209 
 160      677E654B 
 160      FB831E32 
 160      6873F3E7 
ARM GAS  C:\Users\victo\AppData\Local\Temp\ccLBIWao.s 			page 12


 161 017b 0B2D5AD3 		.ascii	"\013-Z\323X\365<o\223\300\014\013\224A\177y2\340-\316"
 161      58F53C6F 
 161      93C00C0B 
 161      94417F79 
 161      32E02DCE 
 162 018f 1F0E88E6 		.ascii	"\037\016\210\346:\031L\374\\\311\314\373Oc0\3511\223"
 162      3A194CFC 
 162      5CC9CCFB 
 162      4F6330E9 
 162      3193
 163 01a1 1855CFBE 		.ascii	"\030U\317\276\242\000\02440\233\225,\306\224\306j\037"
 163      A2001434 
 163      309B952C 
 163      C694C66A 
 163      1F
 164 01b2 3FB4E8DA 		.ascii	"?\264\350\332?\023\230\315\023<\341\0114\343+\322\305"
 164      3F1398CD 
 164      133CE109 
 164      34E32BD2 
 164      C5
 165 01c3 2F87345E 		.ascii	"/\2074^?C\225\240\327\305\313\333\331\031\357\261O\330"
 165      3F4395A0 
 165      D7C5CBDB 
 165      D919EFB1 
 165      4FD8
 166 01d5 A92383F6 		.ascii	"\251#\203\366\321\376\276\344\311\324\200\035\217\365"
 166      D1FEBEE4 
 166      C9D4801D 
 166      8FF5
 167 01e3 25BB76C7 		.ascii	"%\273v\307\367\305z\373{\273;\007\204\231\260O\331\211"
 167      F7C57AFB 
 167      7BBB3B07 
 167      8499B04F 
 167      D989
 168 01f5 D6D4E9EE 		.ascii	"\326\324\351\356\343\307\222]\203\251\304\037\234\327"
 168      E3C7925D 
 168      83A9C41F 
 168      9CD7
 169 0203 DD2A     		.ascii	"\335*"
 170              		.text
 171              		.section	.gnu.lto_HPI_IF_SetTxFifoLevel.92f6528e,"",%progbits
 172 0000 789C6551 		.ascii	"x\234eQMh\023Q\020~\337\274\335mh\004\305\223\346\242"
 172      4D681351 
 172      107EDFBC 
 172      DD6D6804 
 172      C593E6A2 
 173 0014 584241A1 		.ascii	"XBA\241'\275x\022\012\255=\024\"\271x\010\024\251+\010"
 173      27BD7812 
 173      0AAD3D14 
 173      22B97808 
 173      14A92B08 
 174 0028 C14088E2 		.ascii	"\301@\210\342\255/q\015\352\245%\366P(UD\305\237j\252"
 174      AD2F710D 
 174      EAA525F6 
 174      50285544 
 174      C59F6AAA 
 175 003c 550F0AC2 		.ascii	"U\017\012\302Z\204\006%\026A\253\346Ps\210\245\202J"
ARM GAS  C:\Users\victo\AppData\Local\Temp\ccLBIWao.s 			page 13


 175      5A840625 
 175      1641ABE6 
 175      507388A5 
 175      824A
 176 004e 62636B28 		.ascii	"bck(\272\316\333=H\364\301\356\274\031\276\357\233o"
 176      BACEDB3D 
 176      48F4C1EE 
 176      BC19BEEF 
 176      9B6F
 177 0060 E649F1FF 		.ascii	"\346I\361\377\211\3607HB\354\343\010)@c\257\204\310"
 177      89F03748 
 177      42ECE308 
 177      294063AF 
 177      84C8
 178 0072 8608D017 		.ascii	"\206\010\320\027\0011B\030\301gj\020\306\334\351\211"
 178      01314218 
 178      C1676A10 
 178      C6DCE989 
 179 0082 70F775A5 		.ascii	"p\367u\245T=7\271\375\354\266\026\323V)\220\301\015"
 179      543D37B9 
 179      FDECB616 
 179      D3562990 
 179      C10D
 180 0094 743364A5 		.ascii	"t3d\245z\256I2\012\301\367\307\305f9\274B-\302N\235"
 180      7AAE4932 
 180      0AC1F7C7 
 180      C56639BC 
 180      422DC24E 
 181 00a9 3E299426 		.ascii	">)\224&,\235\222\241\323\345K\317\236vF\257*\225s_\316"
 181      2C9D92A1 
 181      D3E54BCF 
 181      9E7646AF 
 181      2A95735F 
 182 00be AA03468B 		.ascii	"\252\003F\213$nB\262\036n!\202\333\210\010.\011L#\252"
 182      246E42B2 
 182      1E6E2182 
 182      DB88082E 
 182      094C23AA 
 183 00d2 E11BC525 		.ascii	"\341\033\305%e\311=\276\360\345\215\302E\331u\205\251"
 183      65C93DBE 
 183      F0E58DC2 
 183      45D97585 
 183      A9
 184 00e3 D5CAF9F9 		.ascii	"\325\312\371\371M\252\244\234\252\347\355\320\012w\332"
 184      4DAAA49C 
 184      AAE7EDD0 
 184      0A77DA
 185 00f2 1582C394 		.ascii	"\025\202\303\224\206\363\353]\330r\330\372\026\334E"
 185      86F3EB5D 
 185      D872D8FA 
 185      16DC45
 186 0101 57601B45 		.ascii	"W`\033EX\340\240+3[]\345y\253_\306K\373\215\020+pI\372"
 186      58E0A02B 
 186      335B5DE5 
 186      79AB5FC6 
 186      4BFB8D10 
 187 0119 7F03DA82 		.ascii	"\177\003\332\202\311f\014\313/\010Qc\262^\316'\"\035"
ARM GAS  C:\Users\victo\AppData\Local\Temp\ccLBIWao.s 			page 14


 187      C9660CCB 
 187      2F085163 
 187      B25ECE27 
 187      221D
 188 012b 6505736B 		.ascii	"e\005sk\027\226\3131\255\267NzS\365\205\371\037\246"
 188      1796CB31 
 188      ADB74E7A 
 188      53F585F9 
 188      1FA6
 189 013d 9ED5749C 		.ascii	"\236\325t\234q\345\317\373\261\266\360:\344\227|C_?"
 189      71E5CFFB 
 189      B1B6F03A 
 189      E4977C43 
 189      5F3F
 190 014f ACE54353 		.ascii	"\254\345CS\230\314:Yww\213,\314\260\345{\3322\356c\012"
 190      98CC3A59 
 190      77778B2C 
 190      CCB0E57B 
 190      DA32EE63 
 191 0164 62113975 		.ascii	"b\0219u\3107\310-YTTp\346g\376\373`\320C\006m\256}{"
 191      C837C82D 
 191      59545470 
 191      E667FEFB 
 191      60D04306 
 192 017c 34DAA135 		.ascii	"4\332\2415\215\272\347y\233\005fY`\021\364\227'\003"
 192      8DBAE779 
 192      9B056659 
 192      6011F497 
 192      2703
 193 018e DEEFF2E1 		.ascii	"\336\357\362\341\200h\256\223\301\304\367\325\334\013"
 193      8068AE93 
 193      C1C4F7D5 
 193      DC0B
 194 019c FF690C26 		.ascii	"\377i\014&=`\022\243\232\371\347\024\200\202\006f\273"
 194      3D6012A3 
 194      9AF9E714 
 194      80820666 
 194      BB
 195 01ad 92C598B9 		.ascii	"\222\305\230\271B\243\371\246C\327\376\231\300l\237"
 195      42A3F9A6 
 195      43D7FE99 
 195      C06C9F
 196 01bc E0214FA0 		.ascii	"\340!O\240\031K\310\272o\343\032\257\237\241F\320\353"
 196      194BC8BA 
 196      6FE31AAF 
 196      9FA146D0 
 196      EB
 197 01cd E2E5EDEA 		.ascii	"\342\345\355\352I\364\333'\354\364\221\214}t(\236:\231"
 197      49F4DB27 
 197      ECF4918C 
 197      7D74289E 
 197      3A99
 198 01df 1EB613B1 		.ascii	"\036\266\023\261x\252wo\342`l`h\240\257gX\230I\373\224"
 198      78AA776F 
 198      E2606C60 
 198      68A0AF67 
 198      589849FB 
ARM GAS  C:\Users\victo\AppData\Local\Temp\ccLBIWao.s 			page 15


 199 01f4 9DECCC9C 		.ascii	"\235\354\314\234\356;~,\325\233I'\377\000G\220\337\323"
 199      EE3B7E2C 
 199      D59B4927 
 199      FF004790 
 199      DFD3
 200              		.text
 201              		.section	.gnu.lto_HPI_IF_SetCustomInterruptHandler.92f6528e,"",%progbits
 202 0000 789C6590 		.ascii	"x\234e\220\277K\302Q\024\305\357\271\337of\270D\243"
 202      BF4BC251 
 202      14C5EFB9 
 202      DF6F66B8 
 202      44A3
 203 0012 53042211 		.ascii	"S\004\"\0218\365\007\004A\345&\270\012\026\366\015Z"
 203      38F50704 
 203      41E526B8 
 203      0A16F60D 
 203      5A
 204 0023 142447F1 		.ascii	"\024$G\361)\016N!\021!\375ZB\2624\205\232j\222 rI\211"
 204      290E4E21 
 204      1121FD5A 
 204      42B23485 
 204      9A6A9220 
 205 003a B020A816 		.ascii	"\260 \250\026\203jJ\014BB\354\276\034{\360\270\367\\"
 205      836A4A0C 
 205      4242ECBE 
 205      1C7BF0B8 
 205      F75C
 206 004c CEFBDCC3 		.ascii	"\316\373\334\3033\350\377q\312\365\200hR*\014\002g\353"
 206      33E8FF71 
 206      CAF58068 
 206      522A0C02 
 206      67EB
 207 005e 44493B03 		.ascii	"DI;\003\272!P\202\221\300;\267\031\331j1\347p\347\225"
 207      BA215082 
 207      91C03BB7 
 207      19D96A31 
 207      E770E795 
 208 0072 529F9767 		.ascii	"R\237\227g\253js\261\313D\035\036pp\010\267x\256\257"
 208      AB6A73B1 
 208      CB441D1E 
 208      707008B7 
 208      78AEAF
 209 0085 B64BC386 		.ascii	"\266K\303\206\013$\375y\371\353\306\361\306]\306\270"
 209      0B24FD79 
 209      F9EBC6F1 
 209      C65DC6B8 
 210 0095 96171BB5 		.ascii	"\226\027\033\265\234MK6\265\3544+\031\323u\240T\252"
 210      9C4D4B36 
 210      B5EC342B 
 210      19D375A0 
 210      54AA
 211 00a7 FA71AA66 		.ascii	"\372q\252f\314.\033(\300\020\036\216\340\3041\234$#"
 211      CC2E1B28 
 211      C0101E8E 
 211      E0C4319C 
 211      2423
 212 00b9 42112E6D 		.ascii	"B\021.mo\247{\017\016[Z\226\217\016v\242\004\233\344"
ARM GAS  C:\Users\victo\AppData\Local\Temp\ccLBIWao.s 			page 16


 212      6FA77B0F 
 212      0E5B5A96 
 212      8F0E76A2 
 212      049BE4
 213 00cc A6CA5855 		.ascii	"\246\312XU\365\373\235z\26365dJl\355\247\2268t\376W"
 213      F5FB9D7A 
 213      B3363564 
 213      4A6CEDA7 
 213      963874FE 
 214 00e1 665D8D47 		.ascii	"f]\215G\244\266\332\215\374\210~$\260\375\273\3652\307"
 214      A4B6DA8D 
 214      FC887E24 
 214      B0FDBBF5 
 214      32C7
 215 00f3 7F5446D9 		.ascii	"\177TF\331\273l\3664N\246/\255\306\255]\0074\377d!\231"
 215      BB6CF634 
 215      4EA62FAD 
 215      C6AD5D07 
 215      34FF6421 
 216 0108 DEC51E76 		.ascii	"\336\305\036v\222J\273\014\234 \216\262\244\"Td\374"
 216      924ABB0C 
 216      9C208EB2 
 216      A4225464 
 216      FC
 217 0119 2DE46724 		.ascii	"-\344g$\253O\367\254\241\372\013Z\014\275Lh\023\236"
 217      AB4FF7AC 
 217      A1FA0B5A 
 217      0CBD4C68 
 217      139E
 218 012b C0BC15B6 		.ascii	"\300\274\025\266\242Kk\326r\320\037\211ECV\300\347\217"
 218      A24B6BD6 
 218      72D01F89 
 218      454356C0 
 218      E78F
 219 013d CC4E0716 		.ascii	"\314N\007\026|\336\240w\316\023\"s%\026\016\375\002"
 219      7CDEA077 
 219      CE132273 
 219      25160EFD 
 219      02
 220 014e 8EF97A14 		.ascii	"\216\371z\024"
 221              		.text
 222              		.section	.gnu.lto_.symbol_nodes.92f6528e,"",%progbits
 223 0000 789C55CC 		.ascii	"x\234U\314\301\015\202@\020\005\320?3,,\260\240w\333"
 223      C10D8240 
 223      1005D03F 
 223      332C2CB0 
 223      A077DB
 224 0013 B0BF4F3C 		.ascii	"\260\277O<y\264\001\015\032K\260\004\316\326\240\011"
 224      79B4010D 
 224      1A4BB004 
 224      CED6A009 
 225 0023 7518C18D 		.ascii	"u\030\301\215\311\356\\~\336\237\311\030\200\235 \216"
 225      C9EE5C7E 
 225      DE9FC918 
 225      809D208E 
 226 0033 D6044E4F 		.ascii	"\326\004NO\200\304y<\006\250R\376\305e\364P\243f.h\251"
 226      80C4793C 
ARM GAS  C:\Users\victo\AppData\Local\Temp\ccLBIWao.s 			page 17


 226      06A852FE 
 226      C565F450 
 226      A3662E68 
 227 0048 1D705542 		.ascii	"\035pUB\035\213\354\254\244\313\\\261\314\354YeoD\326"
 227      1D8BECAC 
 227      A4CB5CB1 
 227      CCEC5965 
 227      6F44D6
 228 005b 37D2D1C7 		.ascii	"7\322\321\307\032\303\340!\201u\312\015\233\224[\266"
 228      1AC3E021 
 228      8175CA0D 
 228      9B945BB6 
 229 006b 297B8684 		.ascii	"){\206\204\206\006\367\327GL\332\230\012\034\336KZ\213"
 229      8606F7D7 
 229      474CDA98 
 229      0A1CDE4B 
 229      5A8B
 230 007d F9B1B7C5 		.ascii	"\371\261\267\305\267\225\256\217k\327a\372e\300\274"
 230      B795AE8F 
 230      6BD761FA 
 230      65C0BC
 231 008c F4F8027B 		.ascii	"\364\370\002{=I\345"
 231      3D49E5
 232              		.text
 233              		.section	.gnu.lto_.refs.92f6528e,"",%progbits
 234 0000 789C6366 		.ascii	"x\234cf``\340c\200\000&f\006\026FF\026\026F\016FNF\006"
 234      6060E063 
 234      80002666 
 234      06164646 
 234      1616460E 
 235 0018 0002A900 		.ascii	"\000\002\251\0009"
 235      39
 236              		.text
 237              		.section	.gnu.lto_.decls.92f6528e,"",%progbits
 238 0000 789C9555 		.ascii	"x\234\225UmLSW\030\276\247\007\012\264\245\272eC\343"
 238      6D4C5357 
 238      18BEA707 
 238      0AB4A5BA 
 238      6543E3
 239 0013 1F612626 		.ascii	"\037a&&.N\027\335\217\355\3274l*\231.d:\377hF\020\356"
 239      2E4E17DD 
 239      8FEDD734 
 239      6C2A992E 
 239      643AFF68 
 240 002a 94841552 		.ascii	"\224\204\025R\3132\376]-\016d\350\020!(\242\242CQ\324"
 240      CB32FE5D 
 240      2D0E64E8 
 240      102128A2 
 240      A24351D4 
 241 003e 52C06F14 		.ascii	"R\300o\024\012j\371\222\357\217\242\025,\264\240\262"
 241      0A6AF992 
 241      EF8FA215 
 241      2CB4A0B2 
 242 004e CC75D3A8 		.ascii	"\314u\323\250Lg\367\236\217K/\025\262\355$o\357=\347"
 242      4C67F79E 
 242      8F4B2F15 
 242      B2ED246F 
ARM GAS  C:\Users\victo\AppData\Local\Temp\ccLBIWao.s 			page 18


 242      EF3DE7
 243 0061 9EE7799F 		.ascii	"\236\347y\237\367\343\234bA\020RU\202\340\203\2614T"
 243      F7E39C62 
 243      41105255 
 243      82E083B1 
 243      3454
 244 0073 106E2241 		.ascii	"\020n\"A\010\203\265X0x\025\"\0046\302\301\316\202Y"
 244      0883B558 
 244      30781522 
 244      0436C2C1 
 244      CE8259
 245 0086 C0AC6055 		.ascii	"\300\254`U`\347\301\352\300\352\301\354`\035`]`=`}`"
 245      60E7C1EA 
 245      C0EAC1EC 
 245      601D605D 
 245      603D607D 
 246 009b 0E30A016 		.ascii	"\0160\240\026\356\202\015\012S\007\341\012\342~\206"
 246      EE820D0A 
 246      5307E10A 
 246      E27E86
 247 00aa B89F36FE 		.ascii	"\270\2376\376M\305\277w\010o\016\342\037s\\\003\330"
 247      4DC5BF77 
 247      086F0EE2 
 247      1F735C03 
 247      D8
 248 00bb 6905C6C2 		.ascii	"i\005\306\302\375\007\016\242W\3151Q`n\260\221i\360"
 248      FD070EA2 
 248      57CD3151 
 248      606EB091 
 248      69F0
 249 00cd 56EE3770 		.ascii	"V\3567pT)\360D\247\007\254%\000\037\304\367\311\032"
 249      5429F044 
 249      A707AC25 
 249      001FC4F7 
 249      C91A
 250 00df 0817E2B1 		.ascii	"\010\027\342\261+\007\311\231\234\337\250\200\330e>"
 250      2B07C999 
 250      9CDFA880 
 250      D8653E
 251 00ee 591F19C1 		.ascii	"Y\037\031\301\034Cr9&\260\274\366L\243\221\324!\204"
 251      1C437239 
 251      26B0BCF6 
 251      4CA391D4 
 251      2184
 252 0100 F3EAC174 		.ascii	"\363\352\301t`5\001\361\012\\S\3354\370\372\377\201"
 252      603501F1 
 252      0A5C53DD 
 252      34F8FAFF 
 252      81
 253 0111 AF9F066F 		.ascii	"\257\237\006o\347Z\225x\022\317\003\005\316\316\237"
 253      E75A9578 
 253      12CF0305 
 253      CECE9F
 254 0120 81BDF087 		.ascii	"\201\275\360\207\012\265\216\274x\242{\250Bz\315l2-"
 254      0AB58EBC 
 254      78A27BA8 
 254      427ACD6C 
ARM GAS  C:\Users\victo\AppData\Local\Temp\ccLBIWao.s 			page 19


 254      322D
 255 0132 728C3EC5 		.ascii	"r\214>\3050\325iTdzq\342Y\205zN\201D\206Y\232\255B\261"
 255      30D56954 
 255      647A71E2 
 255      59857A4E 
 255      81448659 
 256 014a 11A80CCD 		.ascii	"\021\250\014\315C\247\320<`<\215\346\300\357\246 \306"
 256      43A7D03C 
 256      603C8DE6 
 256      C0EFA620 
 256      C6
 257 015b E439DE34 		.ascii	"\3449\3364\021\214U\210\274\377r`\270W\263\270\034P"
 257      118C5588 
 257      BCFF7260 
 257      B857B3B8 
 257      1C50
 258 016d 5992ED85 		.ascii	"Y\222\355\205\312\357\356\311\356\266:]\344\021\311"
 258      CAEFEEC9 
 258      EEB63A5D 
 258      E411C9
 259 017c 66F5D65A 		.ascii	"f\365\326Z\035\372\203R\311\016\351\265\317\207(\031"
 259      1DFA8352 
 259      C90EE9B5 
 259      CF872819 
 260 018c 2A47189D 		.ascii	"*G\030\235A\213\251lxg\372\317\242H\000^\035\260_\010"
 260      418BA96C 
 260      7867FACF 
 260      A248005E 
 260      1DB05F08 
 261 01a0 C52B29FB 		.ascii	"\305+)\373\300\236\233\005\263\200\304eu\265\337\020"
 261      C09E9B05 
 261      B380C465 
 261      75B5DF10 
 262 01b0 6D3BA557 		.ascii	"m;\245W>\2379\224Q\234SP\234\223),\224\2427\363\347"
 262      3E9F3994 
 262      519C5350 
 262      9C93292C 
 262      94A237F3 
 263 01c5 E7A1781D 		.ascii	"\347\241x\035\245\350\354v?\016\241\024%\345'\324\247"
 263      A5E8EC76 
 263      3F0EA114 
 263      25E527D4 
 263      A7
 264 01d6 249BCFF7 		.ascii	"$\233\317\367)\305W(\360\0252\336J\361\303U'\257\207"
 264      29C55728 
 264      F01532DE 
 264      4AF1C355 
 264      27AF87
 265 01e9 E14D4CC2 		.ascii	"\341ML\302\275\322\343\030\360%\326\222\2542%\276R\201"
 265      BDD2E318 
 265      F025D692 
 265      AC3225BE 
 265      5281
 266 01fb AF94F155 		.ascii	"\257\224\361U\024_X\225\357\320\343m\024\177y\377\221"
 266      145F5895 
 266      EFD0E36D 
 266      147F79FF 
ARM GAS  C:\Users\victo\AppData\Local\Temp\ccLBIWao.s 			page 20


 266      91
 267 020c 150C7E7D 		.ascii	"\025\014~}\012\274Z\001\257\226\341\347)\374\212\345"
 267      0ABC5A01 
 267      AF96E1E7 
 267      29FC8AE5 
 268 021c 699B9656 		.ascii	"i\233\226V*\2220\\\315k:\240\246\225\012\"\323\341\001"
 268      2A92305C 
 268      CD6B3AA0 
 268      A6950A22 
 268      D3E101
 269 022f C7B5106C 		.ascii	"\307\265\020l\242\344;N\326\344\204\300\247(\015\315"
 269      A2E43B4E 
 269      D6E484C0 
 269      A7280DCD 
 270 023f F9FD4313 		.ascii	"\371\375C\023\245atJ\356\232Y\260\244\372-\177\247O"
 270      A561744A 
 270      EE9A59B0 
 270      A4FA2D7F 
 270      A74F
 271 0251 8B166A4A 		.ascii	"\213\026jJ\241B\336\2277,_\230\245\025\250\006i\320"
 271      A142DE97 
 271      372C5F98 
 271      A515A806 
 271      69D0
 272 0263 A549FF14 		.ascii	"\245I\377\024MF\226$\355\224r\315R\330\032\001]\200"
 272      4D469624 
 272      ED9472CD 
 272      52D81A01 
 272      5D80
 273 0275 DA5F84DA 		.ascii	"\332_\204\332\243\253h!l\240[\321eX\274\002\213\340"
 273      A3AB6821 
 273      6CA05BD1 
 273      6558BC02 
 273      8BE0
 274 0287 2ABB34C3 		.ascii	"*\2734\303\242\011\202zS\262MTYaF\341\031<c\017]\247"
 274      A209827A 
 274      53B24D54 
 274      596146E1 
 274      193C630F 
 275 029d 3D740DF1 		.ascii	"=t\015\361&z\370|\274.\010\037F4\016\267k\250SM\263"
 275      267AF87C 
 275      BC2E081F 
 275      46340EB7 
 275      6BA8534D 
 276 02b2 E4AD3D9F 		.ascii	"\344\255=\237\207\025\315\002(T\253HU\255\234\252:\232"
 276      8715CD02 
 276      2854AB48 
 276      55AD9CAA 
 276      3A9A
 277 02c4 2AE7EDA1 		.ascii	"*\347\355\241Op5#9\323^\231\241e\251\0368-\247\232\340"
 277      4F703523 
 277      39D35E99 
 277      A165A91E 
 277      382DA79A 
 278 02d9 6D0ABC4D 		.ascii	"m\012\274M\306\327S\374\275\346\032\207F\227=\0318-"
 278      C6D753FC 
 278      BDE61A87 
ARM GAS  C:\Users\victo\AppData\Local\Temp\ccLBIWao.s 			page 21


 278      46973D19 
 278      382D
 279 02eb 8D1CBB80 		.ascii	"\215\034\273\200\032\220\216#a\357\263S=^-\015\231,"
 279      1A908E23 
 279      61EFB353 
 279      3D5E2D0D 
 279      992C
 280 02fd B3903B26 		.ascii	"\263\220;&<R\360\214!\337\244!\337\220C.o\350\351\323"
 280      3C52F08C 
 280      21DFA421 
 280      DF90432E 
 280      6FE8E9D3 
 281 0311 E066A676 		.ascii	"\340f\246v$\267\240&\204\252u\025\267\332u\022\323K"
 281      24B7A026 
 281      84AA7515 
 281      B7DA7512 
 281      D34B
 282 0323 31E89642 		.ascii	"1\350\226B\360-Y\260\235\012\356\257\313\314\014\305"
 282      F02D59B0 
 282      9D0AEEAF 
 282      CBCC0CC5 
 283 0333 E3684AF9 		.ascii	"\343hJ\371#X\371\367\266\026\325c:\365\221\317\252;"
 283      2358F9F7 
 283      B616D563 
 283      3AF591CF 
 283      AA3B
 284 0345 77F22730 		.ascii	"w\362'0\322,\244u\365\346Ix\256\200\026\317C\213\240"
 284      D22CA475 
 284      F5E64978 
 284      AE8016CF 
 284      438BA0
 285 0358 AAAD50D5 		.ascii	"\252\255P\325\010^\325&\320\333\014zY\213\230Y\213\264"
 285      085ED526 
 285      D0DB0C7A 
 285      598B9859 
 285      8BB4
 286 036a 40551BFD 		.ascii	"@U\033\375-\022\241\231<\330\271\273\352s\203h\032Z"
 286      2D12A199 
 286      3CD8B9BB 
 286      EA738368 
 286      1A5A
 287 037c 262B7FBB 		.ascii	"&+\177\273\260\270A;c\032\332h\032n\313i\030\334\347"
 287      B0B8413B 
 287      631ADA68 
 287      1A6ECB69 
 287      18DCE7
 288 038f 2D0EC35E 		.ascii	"-\016\303^\026B\346\237\316\036\0259\236\222\367U\331"
 288      1642E69F 
 288      CE1E1539 
 288      9E92F755 
 288      D9
 289 03a0 C8CA7DE6 		.ascii	"\310\312}\346\334|\311\345\363\315\247(\324\256HD\273"
 289      DC7CC9E5 
 289      F3CDA728 
 289      D4AE4844 
 289      BB
 290 03b1 9C880E9A 		.ascii	"\234\210\016\232\210\316\354\012k8.f\267\3201w\337a"
ARM GAS  C:\Users\victo\AppData\Local\Temp\ccLBIWao.s 			page 22


 290      88CEEC0A 
 290      6B382E66 
 290      B7D03177 
 290      DF61
 291 03c3 0D6371EE 		.ascii	"\015cq\356\036\213U\260\220zv*X:e\226.\312\222U\260"
 291      1E8B55B0 
 291      907A762A 
 291      583A6596 
 291      2ECA9255 
 292 03d8 E7AF50DC 		.ascii	"\347\257P\334\317Xj\306\272.\204s-\215\356@-\335\012"
 292      CF586AC6 
 292      BA2E8473 
 292      2D8DEE40 
 292      2DDD0A
 293 03eb 966E99A5 		.ascii	"\226n\231\245\207\262\034\275v(\206$\236\220\344HE\036"
 293      87B21CBD 
 293      76288624 
 293      9E90E448 
 293      451E
 294 03fd 2D97F268 		.ascii	"-\227\362h\354\303\203\3221\345\275\327\253 \351\225"
 294      ECC383D2 
 294      31E5BDD7 
 294      AB20E995 
 295 040d 49FA582B 		.ascii	"I\372X+\357\032\031\307\3709c)\030\262X\344\264<x#-"
 295      EF1A19C7 
 295      F8396329 
 295      18B258E4 
 295      B43C7823 
 296 0422 FD0A967E 		.ascii	"\375\012\226~\231\305AY\262\377>Q\244\307\031\230\262"
 296      99C54159 
 296      B2FF3E51 
 296      A4C71998 
 296      B2
 297 0433 BC765A2F 		.ascii	"\274vZ/\221\233\003\012E3\377\323\357\215\037,8&\225"
 297      919B030A 
 297      4533FFD3 
 297      EF8D1F2C 
 297      382695
 298 0446 1CF7D6E6 		.ascii	"\034\367\326\346\333q!\260K\0229$\264\222\003\214\224"
 298      DB7121B0 
 298      4B123924 
 298      B492038C 
 298      94
 299 0457 778840E6 		.ascii	"w\210@\346\360{\207\334\001w\321\002r\2762\037?\322"
 299      F07B87DC 
 299      0177D102 
 299      72BE321F 
 299      3FD2
 300 0469 E3FD8CBA 		.ascii	"\343\375\214\272\362qF\016\3717\201\243@\251O:\313\232"
 300      F271460E 
 300      F93781A3 
 300      40A94F3A 
 300      CB9A
 301 047b 30E576ED 		.ascii	"0\345v\35557\352\244&\211\352\245G\305\311\231\375\347"
 301      3537EAA4 
 301      2689EAA5 
 301      47C5C999 
ARM GAS  C:\Users\victo\AppData\Local\Temp\ccLBIWao.s 			page 23


 301      FDE7
 302 048d CA49B9EF 		.ascii	"\312I\271\357\021\356A\312}\377\307\301n\265\362\034"
 302      11EE41CA 
 302      7DFFC7C1 
 302      6EB5F21C 
 303 049d B64D3987 		.ascii	"\266M9\207C\304\013{\222\242\345]\3745\030\237eB\256"
 303      43C40B7B 
 303      92A2E55D 
 303      FC35189F 
 303      6542AE
 304 04b0 1474356A 		.ascii	"\024t5j4Y\244\357\376\333\325\245\262U\347\276\324M"
 304      3459A4EF 
 304      FEDBD5A5 
 304      B255E7BE 
 304      D44D
 305 04c2 5E8966B7 		.ascii	"^\211f\267\256Y\222B\321\010\244\340\276\277\341]\310"
 305      AE599242 
 305      D108A4E0 
 305      BEBFE15D 
 305      C8
 306 04d3 7F29BEC9 		.ascii	"\177)\276\311<<\375\2458\3529\372rJ\024\204\324\037"
 306      3C3CFDA5 
 306      38EA39FA 
 306      724A1484 
 306      D41F
 307 04e5 859B47E1 		.ascii	"\205\233G\341\246Qty}\337(\367\266L\331\353\341{=t\357"
 307      A6517479 
 307      7DDF28F7 
 307      B64CD9EB 
 307      E17B3D74 
 308 04fa DEFDE33D 		.ascii	"\336\375\343=\341\270\212El\353\310\274\244\342\377"
 308      E1B88A45 
 308      6CEBC8BC 
 308      A4E2FF
 309 0509 AC034EFF 		.ascii	"\254\003N\377?\253\212v\330\250\2427F\345\336\030\243"
 309      3FAB8A76 
 309      D8A8A237 
 309      46E5DE18 
 309      A3
 310 051a BDD1F4A2 		.ascii	"\275\321\364\2428G\253tI\212\343w\371\200\273$\317w"
 310      3847AB74 
 310      498AE377 
 310      F980BB24 
 310      CF77
 311 052c D6C4C6C4 		.ascii	"\326\304\306\304\305\254\212[\237\260\345sC\374\226"
 311      C5AC8A5B 
 311      9FB0E573 
 311      43FC96
 312 053b 6431C660 		.ascii	"d1\306`2\252W\177\371ud\264\360\336\222\315\253E\203"
 312      32AA577F 
 312      F97564B4 
 312      F0DE92CD 
 312      AB4583
 313 054e 688C3789 		.ascii	"h\2147\211\211q\353S\322\214\011\342\346\330\365)\321"
 313      8971EB53 
 313      D28C09E2 
 313      E6D8F529 
ARM GAS  C:\Users\victo\AppData\Local\Temp\ccLBIWao.s 			page 24


 313      D1
 314 055f 1F6D66A0 		.ascii	"\037mf\240%\011\202\226\303c\014I\246p\376\316xt2\261"
 314      25098296 
 314      C3630C49 
 314      A670FECE 
 314      787432B1 
 315 0573 29DE68D2 		.ascii	")\336h\322NNRR\325iI\006\323\362eQ\323S/MH7\245\247"
 315      4E4E5252 
 315      D5694906 
 315      D3F26551 
 315      D3532F4D 
 316 058b 8ADB976C 		.ascii	"\212\333\227l\023\336\225A\242\351\253\037V%}\233\262"
 316      13DE9541 
 316      A2E9AB1F 
 316      56257D9B 
 316      B2
 317 059c 56FC5E4C 		.ascii	"V\374^LV\254n\360\257F\372W\243\323\266\233R\276\203"
 317      56AC6EF0 
 317      AF46FA57 
 317      A3D3B69B 
 317      52BE83
 318 05af 3044A331 		.ascii	"0D\2431-\325\264&\336\220\230,\032\203\211\327\217\265"
 318      2DD5B426 
 318      DE90982C 
 318      1A8389D7 
 318      8FB5
 319 05c1 D1E9F081 		.ascii	"\321\351\360\201\011\234?\203\200\350\364\265I[\300"
 319      099C3F83 
 319      80E8F4B5 
 319      495BC0
 320 05d0 BD5E0E6D 		.ascii	"\275^\016mY4\211\356\375\177I\006\331\027\027\273q\003"
 320      593489EE 
 320      FD7F4906 
 320      D91717BB 
 320      7103
 321 05e2 20DFA25E 		.ascii	" \337\242^\242\223\305xc\254hHL2lUp\221\024\350\350"
 321      A293C578 
 321      63AC6848 
 321      4C326C55 
 321      709114E8 
 322 05f7 86CF92B6 		.ascii	"\206\317\222\266\023\035\362\267$p\2621\3368\227O\023"
 322      131DF2B7 
 322      2470B231 
 322      DE38974F 
 322      13
 323 0608 E4308C72 		.ascii	"\3440\214r\004Fq\353\362eo\373\353\265.%Q$l\377\000"
 323      044671EB 
 323      F2656FFB 
 323      EBB52E25 
 323      51246CFF 
 324 061d FC2C73A9 		.ascii	"\374,s\251"
 325              		.text
 326              		.section	.gnu.lto_.symtab.92f6528e,"",%progbits
 327 0000 4850495F 		.ascii	"HPI_IF_Init\000\000\000\000\000\000\000\000\000\000"
 327      49465F49 
 327      6E697400 
 327      00000000 
ARM GAS  C:\Users\victo\AppData\Local\Temp\ccLBIWao.s 			page 25


 327      00000000 
 328 0015 0000AE00 		.ascii	"\000\000\256\000\000\000HPI_IF_Enable\000\000\000\000"
 328      00004850 
 328      495F4946 
 328      5F456E61 
 328      626C6500 
 329 002c 00000000 		.ascii	"\000\000\000\000\000\000\000\000\260\000\000\000HPI"
 329      00000000 
 329      B0000000 
 329      485049
 330 003b 5F49465F 		.ascii	"_IF_Start\000\000\000\000\000\000\000\000\000\000\000"
 330      53746172 
 330      74000000 
 330      00000000 
 330      00000000 
 331 004f 00B20000 		.ascii	"\000\262\000\000\000HPI_IF_initVar\000\000\000\000\000"
 331      00485049 
 331      5F49465F 
 331      696E6974 
 331      56617200 
 332 0067 00000000 		.ascii	"\000\000\000\000\000\000\000\332\000\000\000HPI_IF_"
 332      000000DA 
 332      00000048 
 332      50495F49 
 332      465F
 333 0079 53746F70 		.ascii	"Stop\000\000\000\000\000\000\000\000\000\000\000\000"
 333      00000000 
 333      00000000 
 333      00000000 
 334 0089 B4000000 		.ascii	"\264\000\000\000HPI_IF_SetRxFifoLevel\000\000\000\000"
 334      4850495F 
 334      49465F53 
 334      65745278 
 334      4669666F 
 335 00a6 00000000 		.ascii	"\000\000\000\000\000\000\000\000\277\000\000\000HPI"
 335      00000000 
 335      BF000000 
 335      485049
 336 00b5 5F49465F 		.ascii	"_IF_SetTxFifoLevel\000\000\000\000\000\000\000\000\000"
 336      53657454 
 336      78466966 
 336      6F4C6576 
 336      656C0000 
 337 00d0 000000C1 		.ascii	"\000\000\000\301\000\000\000HPI_IF_SetCustomInterru"
 337      00000048 
 337      50495F49 
 337      465F5365 
 337      74437573 
 338 00ee 70744861 		.ascii	"ptHandler\000\000\000\000\000\000\000\000\000\000\000"
 338      6E646C65 
 338      72000000 
 338      00000000 
 338      00000000 
 339 0102 00C60000 		.ascii	"\000\306\000\000\000HPI_IF_customIntrHandler\000\000"
 339      00485049 
 339      5F49465F 
 339      63757374 
ARM GAS  C:\Users\victo\AppData\Local\Temp\ccLBIWao.s 			page 26


 339      6F6D496E 
 340 0121 00000000 		.ascii	"\000\000\000\000\000\000\000\000\000\000\335\000\000"
 340      00000000 
 340      0000DD00 
 340      00
 341 012e 00437949 		.ascii	"\000CyIntEnable\000\000\002\000\000\000\000\000\000"
 341      6E74456E 
 341      61626C65 
 341      00000200 
 341      00000000 
 342 0143 000000CF 		.ascii	"\000\000\000\317\000\000\000HPI_IF_I2CInit\000\000\002"
 342      00000048 
 342      50495F49 
 342      465F4932 
 342      43496E69 
 343 015b 00000000 		.ascii	"\000\000\000\000\000\000\000\000\000\321\000\000\000"
 343      00000000 
 343      00D10000 
 343      00
 344 0168 4379496E 		.ascii	"CyIntClearPending\000\000\002\000\000\000\000\000\000"
 344      74436C65 
 344      61725065 
 344      6E64696E 
 344      67000002 
 345 0182 000000D3 		.ascii	"\000\000\000\323\000\000\000HPI_IF_I2CStop\000\000\002"
 345      00000048 
 345      50495F49 
 345      465F4932 
 345      4353746F 
 346 019a 00000000 		.ascii	"\000\000\000\000\000\000\000\000\000\325\000\000\000"
 346      00000000 
 346      00D50000 
 346      00
 347 01a7 4379496E 		.ascii	"CyIntDisable\000\000\002\000\000\000\000\000\000\000"
 347      74446973 
 347      61626C65 
 347      00000200 
 347      00000000 
 348 01bd 0000D700 		.ascii	"\000\000\327\000\000\000"
 348      0000
 349              		.text
 350              		.section	.gnu.lto_.opts,"",%progbits
 351 0000 272D666E 		.ascii	"'-fno-trapv' '-mcpu=cortex-m0' '-mthumb' '-g' '-Os'"
 351      6F2D7472 
 351      61707627 
 351      20272D6D 
 351      6370753D 
 352 0033 20272D57 		.ascii	" '-Werror' '-ffunction-sections' '-finline-function"
 352      6572726F 
 352      72272027 
 352      2D666675 
 352      6E637469 
 353 0066 73272027 		.ascii	"s' '-flto' '-ffat-lto-objects' '-fno-strict-aliasin"
 353      2D666C74 
 353      6F272027 
 353      2D666661 
 353      742D6C74 
ARM GAS  C:\Users\victo\AppData\Local\Temp\ccLBIWao.s 			page 27


 354 0099 672700   		.ascii	"g'\000"
 355              		.text
 356              		.cfi_sections	.debug_frame
 357              		.section	.text.HPI_IF_Init,"ax",%progbits
 358              		.align	1
 359              		.global	HPI_IF_Init
 360              		.code	16
 361              		.thumb_func
 362              		.type	HPI_IF_Init, %function
 363              	HPI_IF_Init:
 364              	.LFB0:
 365              		.file 1 ".\\Generated_Source\\PSoC4\\HPI_IF.c"
   1:.\Generated_Source\PSoC4/HPI_IF.c **** /*******************************************************************************
   2:.\Generated_Source\PSoC4/HPI_IF.c **** * File Name: HPI_IF.c
   3:.\Generated_Source\PSoC4/HPI_IF.c **** * Version 3.10
   4:.\Generated_Source\PSoC4/HPI_IF.c **** *
   5:.\Generated_Source\PSoC4/HPI_IF.c **** * Description:
   6:.\Generated_Source\PSoC4/HPI_IF.c **** *  This file provides the source code to the API for the SCB Component.
   7:.\Generated_Source\PSoC4/HPI_IF.c **** *
   8:.\Generated_Source\PSoC4/HPI_IF.c **** * Note:
   9:.\Generated_Source\PSoC4/HPI_IF.c **** *
  10:.\Generated_Source\PSoC4/HPI_IF.c **** *******************************************************************************
  11:.\Generated_Source\PSoC4/HPI_IF.c **** * Copyright 2013-2015, Cypress Semiconductor Corporation.  All rights reserved.
  12:.\Generated_Source\PSoC4/HPI_IF.c **** * You may use this file only in accordance with the license, terms, conditions,
  13:.\Generated_Source\PSoC4/HPI_IF.c **** * disclaimers, and limitations in the end user license agreement accompanying
  14:.\Generated_Source\PSoC4/HPI_IF.c **** * the software package with which this file was provided.
  15:.\Generated_Source\PSoC4/HPI_IF.c **** *******************************************************************************/
  16:.\Generated_Source\PSoC4/HPI_IF.c **** 
  17:.\Generated_Source\PSoC4/HPI_IF.c **** #include "HPI_IF_PVT.h"
  18:.\Generated_Source\PSoC4/HPI_IF.c **** 
  19:.\Generated_Source\PSoC4/HPI_IF.c **** #if (HPI_IF_SCB_MODE_I2C_INC)
  20:.\Generated_Source\PSoC4/HPI_IF.c ****     #include "HPI_IF_I2C_PVT.h"
  21:.\Generated_Source\PSoC4/HPI_IF.c **** #endif /* (HPI_IF_SCB_MODE_I2C_INC) */
  22:.\Generated_Source\PSoC4/HPI_IF.c **** 
  23:.\Generated_Source\PSoC4/HPI_IF.c **** #if (HPI_IF_SCB_MODE_EZI2C_INC)
  24:.\Generated_Source\PSoC4/HPI_IF.c ****     #include "HPI_IF_EZI2C_PVT.h"
  25:.\Generated_Source\PSoC4/HPI_IF.c **** #endif /* (HPI_IF_SCB_MODE_EZI2C_INC) */
  26:.\Generated_Source\PSoC4/HPI_IF.c **** 
  27:.\Generated_Source\PSoC4/HPI_IF.c **** #if (HPI_IF_SCB_MODE_SPI_INC || HPI_IF_SCB_MODE_UART_INC)
  28:.\Generated_Source\PSoC4/HPI_IF.c ****     #include "HPI_IF_SPI_UART_PVT.h"
  29:.\Generated_Source\PSoC4/HPI_IF.c **** #endif /* (HPI_IF_SCB_MODE_SPI_INC || HPI_IF_SCB_MODE_UART_INC) */
  30:.\Generated_Source\PSoC4/HPI_IF.c **** 
  31:.\Generated_Source\PSoC4/HPI_IF.c **** 
  32:.\Generated_Source\PSoC4/HPI_IF.c **** /***************************************
  33:.\Generated_Source\PSoC4/HPI_IF.c **** *    Run Time Configuration Vars
  34:.\Generated_Source\PSoC4/HPI_IF.c **** ***************************************/
  35:.\Generated_Source\PSoC4/HPI_IF.c **** 
  36:.\Generated_Source\PSoC4/HPI_IF.c **** /* Stores internal component configuration for Unconfigured mode */
  37:.\Generated_Source\PSoC4/HPI_IF.c **** #if (HPI_IF_SCB_MODE_UNCONFIG_CONST_CFG)
  38:.\Generated_Source\PSoC4/HPI_IF.c ****     /* Common configuration variables */
  39:.\Generated_Source\PSoC4/HPI_IF.c ****     uint8 HPI_IF_scbMode = HPI_IF_SCB_MODE_UNCONFIG;
  40:.\Generated_Source\PSoC4/HPI_IF.c ****     uint8 HPI_IF_scbEnableWake;
  41:.\Generated_Source\PSoC4/HPI_IF.c ****     uint8 HPI_IF_scbEnableIntr;
  42:.\Generated_Source\PSoC4/HPI_IF.c **** 
  43:.\Generated_Source\PSoC4/HPI_IF.c ****     /* I2C configuration variables */
  44:.\Generated_Source\PSoC4/HPI_IF.c ****     uint8 HPI_IF_mode;
  45:.\Generated_Source\PSoC4/HPI_IF.c ****     uint8 HPI_IF_acceptAddr;
ARM GAS  C:\Users\victo\AppData\Local\Temp\ccLBIWao.s 			page 28


  46:.\Generated_Source\PSoC4/HPI_IF.c **** 
  47:.\Generated_Source\PSoC4/HPI_IF.c ****     /* SPI/UART configuration variables */
  48:.\Generated_Source\PSoC4/HPI_IF.c ****     volatile uint8 * HPI_IF_rxBuffer;
  49:.\Generated_Source\PSoC4/HPI_IF.c ****     uint8  HPI_IF_rxDataBits;
  50:.\Generated_Source\PSoC4/HPI_IF.c ****     uint32 HPI_IF_rxBufferSize;
  51:.\Generated_Source\PSoC4/HPI_IF.c **** 
  52:.\Generated_Source\PSoC4/HPI_IF.c ****     volatile uint8 * HPI_IF_txBuffer;
  53:.\Generated_Source\PSoC4/HPI_IF.c ****     uint8  HPI_IF_txDataBits;
  54:.\Generated_Source\PSoC4/HPI_IF.c ****     uint32 HPI_IF_txBufferSize;
  55:.\Generated_Source\PSoC4/HPI_IF.c **** 
  56:.\Generated_Source\PSoC4/HPI_IF.c ****     /* EZI2C configuration variables */
  57:.\Generated_Source\PSoC4/HPI_IF.c ****     uint8 HPI_IF_numberOfAddr;
  58:.\Generated_Source\PSoC4/HPI_IF.c ****     uint8 HPI_IF_subAddrSize;
  59:.\Generated_Source\PSoC4/HPI_IF.c **** #endif /* (HPI_IF_SCB_MODE_UNCONFIG_CONST_CFG) */
  60:.\Generated_Source\PSoC4/HPI_IF.c **** 
  61:.\Generated_Source\PSoC4/HPI_IF.c **** 
  62:.\Generated_Source\PSoC4/HPI_IF.c **** /***************************************
  63:.\Generated_Source\PSoC4/HPI_IF.c **** *     Common SCB Vars
  64:.\Generated_Source\PSoC4/HPI_IF.c **** ***************************************/
  65:.\Generated_Source\PSoC4/HPI_IF.c **** 
  66:.\Generated_Source\PSoC4/HPI_IF.c **** uint8 HPI_IF_initVar = 0u;
  67:.\Generated_Source\PSoC4/HPI_IF.c **** 
  68:.\Generated_Source\PSoC4/HPI_IF.c **** #if (HPI_IF_SCB_IRQ_INTERNAL)
  69:.\Generated_Source\PSoC4/HPI_IF.c **** #if !defined (CY_REMOVE_HPI_IF_CUSTOM_INTR_HANDLER)
  70:.\Generated_Source\PSoC4/HPI_IF.c ****     void (*HPI_IF_customIntrHandler)(void) = NULL;
  71:.\Generated_Source\PSoC4/HPI_IF.c **** #endif /* !defined (CY_REMOVE_HPI_IF_CUSTOM_INTR_HANDLER) */
  72:.\Generated_Source\PSoC4/HPI_IF.c **** #endif /* (HPI_IF_SCB_IRQ_INTERNAL) */
  73:.\Generated_Source\PSoC4/HPI_IF.c **** 
  74:.\Generated_Source\PSoC4/HPI_IF.c **** 
  75:.\Generated_Source\PSoC4/HPI_IF.c **** /***************************************
  76:.\Generated_Source\PSoC4/HPI_IF.c **** *    Private Function Prototypes
  77:.\Generated_Source\PSoC4/HPI_IF.c **** ***************************************/
  78:.\Generated_Source\PSoC4/HPI_IF.c **** 
  79:.\Generated_Source\PSoC4/HPI_IF.c **** static void HPI_IF_ScbEnableIntr(void);
  80:.\Generated_Source\PSoC4/HPI_IF.c **** static void HPI_IF_ScbModeStop(void);
  81:.\Generated_Source\PSoC4/HPI_IF.c **** static void HPI_IF_ScbModePostEnable(void);
  82:.\Generated_Source\PSoC4/HPI_IF.c **** 
  83:.\Generated_Source\PSoC4/HPI_IF.c **** 
  84:.\Generated_Source\PSoC4/HPI_IF.c **** /*******************************************************************************
  85:.\Generated_Source\PSoC4/HPI_IF.c **** * Function Name: HPI_IF_Init
  86:.\Generated_Source\PSoC4/HPI_IF.c **** ********************************************************************************
  87:.\Generated_Source\PSoC4/HPI_IF.c **** *
  88:.\Generated_Source\PSoC4/HPI_IF.c **** * Summary:
  89:.\Generated_Source\PSoC4/HPI_IF.c **** *  Initializes the SCB component to operate in one of the selected
  90:.\Generated_Source\PSoC4/HPI_IF.c **** *  configurations: I2C, SPI, UART or EZI2C.
  91:.\Generated_Source\PSoC4/HPI_IF.c **** *  When the configuration is set to "Unconfigured SCB", this function does
  92:.\Generated_Source\PSoC4/HPI_IF.c **** *  not do any initialization. Use mode-specific initialization APIs instead:
  93:.\Generated_Source\PSoC4/HPI_IF.c **** *  SCB_I2CInit, SCB_SpiInit, SCB_UartInit or SCB_EzI2CInit.
  94:.\Generated_Source\PSoC4/HPI_IF.c **** *
  95:.\Generated_Source\PSoC4/HPI_IF.c **** * Parameters:
  96:.\Generated_Source\PSoC4/HPI_IF.c **** *  None
  97:.\Generated_Source\PSoC4/HPI_IF.c **** *
  98:.\Generated_Source\PSoC4/HPI_IF.c **** * Return:
  99:.\Generated_Source\PSoC4/HPI_IF.c **** *  None
 100:.\Generated_Source\PSoC4/HPI_IF.c **** *
 101:.\Generated_Source\PSoC4/HPI_IF.c **** *******************************************************************************/
 102:.\Generated_Source\PSoC4/HPI_IF.c **** void HPI_IF_Init(void)
ARM GAS  C:\Users\victo\AppData\Local\Temp\ccLBIWao.s 			page 29


 103:.\Generated_Source\PSoC4/HPI_IF.c **** {
 366              		.loc 1 103 0
 367              		.cfi_startproc
 368 0000 08B5     		push	{r3, lr}
 369              		.cfi_def_cfa_offset 8
 370              		.cfi_offset 3, -8
 371              		.cfi_offset 14, -4
 104:.\Generated_Source\PSoC4/HPI_IF.c **** #if (HPI_IF_SCB_MODE_UNCONFIG_CONST_CFG)
 105:.\Generated_Source\PSoC4/HPI_IF.c ****     if (HPI_IF_SCB_MODE_UNCONFIG_RUNTM_CFG)
 106:.\Generated_Source\PSoC4/HPI_IF.c ****     {
 107:.\Generated_Source\PSoC4/HPI_IF.c ****         HPI_IF_initVar = 0u;
 108:.\Generated_Source\PSoC4/HPI_IF.c ****     }
 109:.\Generated_Source\PSoC4/HPI_IF.c ****     else
 110:.\Generated_Source\PSoC4/HPI_IF.c ****     {
 111:.\Generated_Source\PSoC4/HPI_IF.c ****         /* Initialization was done before this function call */
 112:.\Generated_Source\PSoC4/HPI_IF.c ****     }
 113:.\Generated_Source\PSoC4/HPI_IF.c **** 
 114:.\Generated_Source\PSoC4/HPI_IF.c **** #elif (HPI_IF_SCB_MODE_I2C_CONST_CFG)
 115:.\Generated_Source\PSoC4/HPI_IF.c ****     HPI_IF_I2CInit();
 372              		.loc 1 115 0
 373 0002 FFF7FEFF 		bl	HPI_IF_I2CInit
 374              	.LVL0:
 116:.\Generated_Source\PSoC4/HPI_IF.c **** 
 117:.\Generated_Source\PSoC4/HPI_IF.c **** #elif (HPI_IF_SCB_MODE_SPI_CONST_CFG)
 118:.\Generated_Source\PSoC4/HPI_IF.c ****     HPI_IF_SpiInit();
 119:.\Generated_Source\PSoC4/HPI_IF.c **** 
 120:.\Generated_Source\PSoC4/HPI_IF.c **** #elif (HPI_IF_SCB_MODE_UART_CONST_CFG)
 121:.\Generated_Source\PSoC4/HPI_IF.c ****     HPI_IF_UartInit();
 122:.\Generated_Source\PSoC4/HPI_IF.c **** 
 123:.\Generated_Source\PSoC4/HPI_IF.c **** #elif (HPI_IF_SCB_MODE_EZI2C_CONST_CFG)
 124:.\Generated_Source\PSoC4/HPI_IF.c ****     HPI_IF_EzI2CInit();
 125:.\Generated_Source\PSoC4/HPI_IF.c **** 
 126:.\Generated_Source\PSoC4/HPI_IF.c **** #endif /* (HPI_IF_SCB_MODE_UNCONFIG_CONST_CFG) */
 127:.\Generated_Source\PSoC4/HPI_IF.c **** }
 375              		.loc 1 127 0
 376              		@ sp needed
 377 0006 08BD     		pop	{r3, pc}
 378              		.cfi_endproc
 379              	.LFE0:
 380              		.size	HPI_IF_Init, .-HPI_IF_Init
 381              		.section	.text.HPI_IF_Enable,"ax",%progbits
 382              		.align	1
 383              		.global	HPI_IF_Enable
 384              		.code	16
 385              		.thumb_func
 386              		.type	HPI_IF_Enable, %function
 387              	HPI_IF_Enable:
 388              	.LFB1:
 128:.\Generated_Source\PSoC4/HPI_IF.c **** 
 129:.\Generated_Source\PSoC4/HPI_IF.c **** 
 130:.\Generated_Source\PSoC4/HPI_IF.c **** /*******************************************************************************
 131:.\Generated_Source\PSoC4/HPI_IF.c **** * Function Name: HPI_IF_Enable
 132:.\Generated_Source\PSoC4/HPI_IF.c **** ********************************************************************************
 133:.\Generated_Source\PSoC4/HPI_IF.c **** *
 134:.\Generated_Source\PSoC4/HPI_IF.c **** * Summary:
 135:.\Generated_Source\PSoC4/HPI_IF.c **** *  Enables the SCB component operation.
 136:.\Generated_Source\PSoC4/HPI_IF.c **** *  The SCB configuration should be not changed when the component is enabled.
ARM GAS  C:\Users\victo\AppData\Local\Temp\ccLBIWao.s 			page 30


 137:.\Generated_Source\PSoC4/HPI_IF.c **** *  Any configuration changes should be made after disabling the component.
 138:.\Generated_Source\PSoC4/HPI_IF.c **** *
 139:.\Generated_Source\PSoC4/HPI_IF.c **** * Parameters:
 140:.\Generated_Source\PSoC4/HPI_IF.c **** *  None
 141:.\Generated_Source\PSoC4/HPI_IF.c **** *
 142:.\Generated_Source\PSoC4/HPI_IF.c **** * Return:
 143:.\Generated_Source\PSoC4/HPI_IF.c **** *  None
 144:.\Generated_Source\PSoC4/HPI_IF.c **** *
 145:.\Generated_Source\PSoC4/HPI_IF.c **** *******************************************************************************/
 146:.\Generated_Source\PSoC4/HPI_IF.c **** void HPI_IF_Enable(void)
 147:.\Generated_Source\PSoC4/HPI_IF.c **** {
 389              		.loc 1 147 0
 390              		.cfi_startproc
 148:.\Generated_Source\PSoC4/HPI_IF.c **** #if (HPI_IF_SCB_MODE_UNCONFIG_CONST_CFG)
 149:.\Generated_Source\PSoC4/HPI_IF.c ****     /* Enable SCB block, only if it is already configured */
 150:.\Generated_Source\PSoC4/HPI_IF.c ****     if (!HPI_IF_SCB_MODE_UNCONFIG_RUNTM_CFG)
 151:.\Generated_Source\PSoC4/HPI_IF.c ****     {
 152:.\Generated_Source\PSoC4/HPI_IF.c ****         HPI_IF_CTRL_REG |= HPI_IF_CTRL_ENABLED;
 153:.\Generated_Source\PSoC4/HPI_IF.c **** 
 154:.\Generated_Source\PSoC4/HPI_IF.c ****         HPI_IF_ScbEnableIntr();
 155:.\Generated_Source\PSoC4/HPI_IF.c **** 
 156:.\Generated_Source\PSoC4/HPI_IF.c ****         /* Call PostEnable function specific to current operation mode */
 157:.\Generated_Source\PSoC4/HPI_IF.c ****         HPI_IF_ScbModePostEnable();
 158:.\Generated_Source\PSoC4/HPI_IF.c ****     }
 159:.\Generated_Source\PSoC4/HPI_IF.c **** #else
 160:.\Generated_Source\PSoC4/HPI_IF.c ****     HPI_IF_CTRL_REG |= HPI_IF_CTRL_ENABLED;
 391              		.loc 1 160 0
 392 0000 8021     		mov	r1, #128
 147:.\Generated_Source\PSoC4/HPI_IF.c **** #if (HPI_IF_SCB_MODE_UNCONFIG_CONST_CFG)
 393              		.loc 1 147 0
 394 0002 08B5     		push	{r3, lr}
 395              		.cfi_def_cfa_offset 8
 396              		.cfi_offset 3, -8
 397              		.cfi_offset 14, -4
 398              		.loc 1 160 0
 399 0004 044A     		ldr	r2, .L3
 400 0006 0906     		lsl	r1, r1, #24
 401 0008 1368     		ldr	r3, [r2]
 402              	.LBB10:
 403              	.LBB11:
 161:.\Generated_Source\PSoC4/HPI_IF.c **** 
 162:.\Generated_Source\PSoC4/HPI_IF.c ****     HPI_IF_ScbEnableIntr();
 163:.\Generated_Source\PSoC4/HPI_IF.c **** 
 164:.\Generated_Source\PSoC4/HPI_IF.c ****     /* Call PostEnable function specific to current operation mode */
 165:.\Generated_Source\PSoC4/HPI_IF.c ****     HPI_IF_ScbModePostEnable();
 166:.\Generated_Source\PSoC4/HPI_IF.c **** #endif /* (HPI_IF_SCB_MODE_UNCONFIG_CONST_CFG) */
 167:.\Generated_Source\PSoC4/HPI_IF.c **** }
 168:.\Generated_Source\PSoC4/HPI_IF.c **** 
 169:.\Generated_Source\PSoC4/HPI_IF.c **** 
 170:.\Generated_Source\PSoC4/HPI_IF.c **** /*******************************************************************************
 171:.\Generated_Source\PSoC4/HPI_IF.c **** * Function Name: HPI_IF_Start
 172:.\Generated_Source\PSoC4/HPI_IF.c **** ********************************************************************************
 173:.\Generated_Source\PSoC4/HPI_IF.c **** *
 174:.\Generated_Source\PSoC4/HPI_IF.c **** * Summary:
 175:.\Generated_Source\PSoC4/HPI_IF.c **** *  Invokes SCB_Init() and SCB_Enable().
 176:.\Generated_Source\PSoC4/HPI_IF.c **** *  After this function call, the component is enabled and ready for operation.
 177:.\Generated_Source\PSoC4/HPI_IF.c **** *  When configuration is set to "Unconfigured SCB", the component must first be
ARM GAS  C:\Users\victo\AppData\Local\Temp\ccLBIWao.s 			page 31


 178:.\Generated_Source\PSoC4/HPI_IF.c **** *  initialized to operate in one of the following configurations: I2C, SPI, UART
 179:.\Generated_Source\PSoC4/HPI_IF.c **** *  or EZ I2C. Otherwise this function does not enable the component.
 180:.\Generated_Source\PSoC4/HPI_IF.c **** *
 181:.\Generated_Source\PSoC4/HPI_IF.c **** * Parameters:
 182:.\Generated_Source\PSoC4/HPI_IF.c **** *  None
 183:.\Generated_Source\PSoC4/HPI_IF.c **** *
 184:.\Generated_Source\PSoC4/HPI_IF.c **** * Return:
 185:.\Generated_Source\PSoC4/HPI_IF.c **** *  None
 186:.\Generated_Source\PSoC4/HPI_IF.c **** *
 187:.\Generated_Source\PSoC4/HPI_IF.c **** * Global variables:
 188:.\Generated_Source\PSoC4/HPI_IF.c **** *  HPI_IF_initVar - used to check initial configuration, modified
 189:.\Generated_Source\PSoC4/HPI_IF.c **** *  on first function call.
 190:.\Generated_Source\PSoC4/HPI_IF.c **** *
 191:.\Generated_Source\PSoC4/HPI_IF.c **** *******************************************************************************/
 192:.\Generated_Source\PSoC4/HPI_IF.c **** void HPI_IF_Start(void)
 193:.\Generated_Source\PSoC4/HPI_IF.c **** {
 194:.\Generated_Source\PSoC4/HPI_IF.c ****     if (0u == HPI_IF_initVar)
 195:.\Generated_Source\PSoC4/HPI_IF.c ****     {
 196:.\Generated_Source\PSoC4/HPI_IF.c ****         HPI_IF_Init();
 197:.\Generated_Source\PSoC4/HPI_IF.c ****         HPI_IF_initVar = 1u; /* Component was initialized */
 198:.\Generated_Source\PSoC4/HPI_IF.c ****     }
 199:.\Generated_Source\PSoC4/HPI_IF.c **** 
 200:.\Generated_Source\PSoC4/HPI_IF.c ****     HPI_IF_Enable();
 201:.\Generated_Source\PSoC4/HPI_IF.c **** }
 202:.\Generated_Source\PSoC4/HPI_IF.c **** 
 203:.\Generated_Source\PSoC4/HPI_IF.c **** 
 204:.\Generated_Source\PSoC4/HPI_IF.c **** /*******************************************************************************
 205:.\Generated_Source\PSoC4/HPI_IF.c **** * Function Name: HPI_IF_Stop
 206:.\Generated_Source\PSoC4/HPI_IF.c **** ********************************************************************************
 207:.\Generated_Source\PSoC4/HPI_IF.c **** *
 208:.\Generated_Source\PSoC4/HPI_IF.c **** * Summary:
 209:.\Generated_Source\PSoC4/HPI_IF.c **** *  Disables the SCB component and its interrupt.
 210:.\Generated_Source\PSoC4/HPI_IF.c **** *  It also disables all TX interrupt sources so as not to cause an unexpected
 211:.\Generated_Source\PSoC4/HPI_IF.c **** *  interrupt trigger because after the component is enabled, the TX FIFO 
 212:.\Generated_Source\PSoC4/HPI_IF.c **** *  is empty.
 213:.\Generated_Source\PSoC4/HPI_IF.c **** *
 214:.\Generated_Source\PSoC4/HPI_IF.c **** * Parameters:
 215:.\Generated_Source\PSoC4/HPI_IF.c **** *  None
 216:.\Generated_Source\PSoC4/HPI_IF.c **** *
 217:.\Generated_Source\PSoC4/HPI_IF.c **** * Return:
 218:.\Generated_Source\PSoC4/HPI_IF.c **** *  None
 219:.\Generated_Source\PSoC4/HPI_IF.c **** * 
 220:.\Generated_Source\PSoC4/HPI_IF.c **** *******************************************************************************/
 221:.\Generated_Source\PSoC4/HPI_IF.c **** void HPI_IF_Stop(void)
 222:.\Generated_Source\PSoC4/HPI_IF.c **** {
 223:.\Generated_Source\PSoC4/HPI_IF.c **** #if (HPI_IF_SCB_IRQ_INTERNAL)
 224:.\Generated_Source\PSoC4/HPI_IF.c ****     HPI_IF_DisableInt();
 225:.\Generated_Source\PSoC4/HPI_IF.c **** #endif /* (HPI_IF_SCB_IRQ_INTERNAL) */
 226:.\Generated_Source\PSoC4/HPI_IF.c **** 
 227:.\Generated_Source\PSoC4/HPI_IF.c ****     /* Call Stop function specific to current operation mode */
 228:.\Generated_Source\PSoC4/HPI_IF.c ****     HPI_IF_ScbModeStop();
 229:.\Generated_Source\PSoC4/HPI_IF.c **** 
 230:.\Generated_Source\PSoC4/HPI_IF.c ****     /* Disable SCB IP */
 231:.\Generated_Source\PSoC4/HPI_IF.c ****     HPI_IF_CTRL_REG &= (uint32) ~HPI_IF_CTRL_ENABLED;
 232:.\Generated_Source\PSoC4/HPI_IF.c **** 
 233:.\Generated_Source\PSoC4/HPI_IF.c ****     /* Disable all TX interrupt sources so as not to cause an unexpected
 234:.\Generated_Source\PSoC4/HPI_IF.c ****     * interrupt trigger because after the component is enabled, the TX FIFO
ARM GAS  C:\Users\victo\AppData\Local\Temp\ccLBIWao.s 			page 32


 235:.\Generated_Source\PSoC4/HPI_IF.c ****     * is empty.
 236:.\Generated_Source\PSoC4/HPI_IF.c ****     * For SCB IP v0, it is critical as it does not mask-out interrupt
 237:.\Generated_Source\PSoC4/HPI_IF.c ****     * sources when they are disabled. This can cause a code lock-up in the
 238:.\Generated_Source\PSoC4/HPI_IF.c ****     * interrupt handler because TX FIFO cannot be loaded after the block
 239:.\Generated_Source\PSoC4/HPI_IF.c ****     * is disabled.
 240:.\Generated_Source\PSoC4/HPI_IF.c ****     */
 241:.\Generated_Source\PSoC4/HPI_IF.c ****     HPI_IF_SetTxInterruptMode(HPI_IF_NO_INTR_SOURCES);
 242:.\Generated_Source\PSoC4/HPI_IF.c **** 
 243:.\Generated_Source\PSoC4/HPI_IF.c **** #if (HPI_IF_SCB_IRQ_INTERNAL)
 244:.\Generated_Source\PSoC4/HPI_IF.c ****     HPI_IF_ClearPendingInt();
 245:.\Generated_Source\PSoC4/HPI_IF.c **** #endif /* (HPI_IF_SCB_IRQ_INTERNAL) */
 246:.\Generated_Source\PSoC4/HPI_IF.c **** }
 247:.\Generated_Source\PSoC4/HPI_IF.c **** 
 248:.\Generated_Source\PSoC4/HPI_IF.c **** 
 249:.\Generated_Source\PSoC4/HPI_IF.c **** /*******************************************************************************
 250:.\Generated_Source\PSoC4/HPI_IF.c **** * Function Name: HPI_IF_SetRxFifoLevel
 251:.\Generated_Source\PSoC4/HPI_IF.c **** ********************************************************************************
 252:.\Generated_Source\PSoC4/HPI_IF.c **** *
 253:.\Generated_Source\PSoC4/HPI_IF.c **** * Summary:
 254:.\Generated_Source\PSoC4/HPI_IF.c **** *  Sets level in the RX FIFO to generate a RX level interrupt.
 255:.\Generated_Source\PSoC4/HPI_IF.c **** *  When the RX FIFO has more entries than the RX FIFO level an RX level
 256:.\Generated_Source\PSoC4/HPI_IF.c **** *  interrupt request is generated.
 257:.\Generated_Source\PSoC4/HPI_IF.c **** *
 258:.\Generated_Source\PSoC4/HPI_IF.c **** * Parameters:
 259:.\Generated_Source\PSoC4/HPI_IF.c **** *  level: Level in the RX FIFO to generate RX level interrupt.
 260:.\Generated_Source\PSoC4/HPI_IF.c **** *         The range of valid level values is between 0 and RX FIFO depth - 1.
 261:.\Generated_Source\PSoC4/HPI_IF.c **** *
 262:.\Generated_Source\PSoC4/HPI_IF.c **** * Return:
 263:.\Generated_Source\PSoC4/HPI_IF.c **** *  None
 264:.\Generated_Source\PSoC4/HPI_IF.c **** *
 265:.\Generated_Source\PSoC4/HPI_IF.c **** *******************************************************************************/
 266:.\Generated_Source\PSoC4/HPI_IF.c **** void HPI_IF_SetRxFifoLevel(uint32 level)
 267:.\Generated_Source\PSoC4/HPI_IF.c **** {
 268:.\Generated_Source\PSoC4/HPI_IF.c ****     uint32 rxFifoCtrl;
 269:.\Generated_Source\PSoC4/HPI_IF.c **** 
 270:.\Generated_Source\PSoC4/HPI_IF.c ****     rxFifoCtrl = HPI_IF_RX_FIFO_CTRL_REG;
 271:.\Generated_Source\PSoC4/HPI_IF.c **** 
 272:.\Generated_Source\PSoC4/HPI_IF.c ****     rxFifoCtrl &= ((uint32) ~HPI_IF_RX_FIFO_CTRL_TRIGGER_LEVEL_MASK); /* Clear level mask bits */
 273:.\Generated_Source\PSoC4/HPI_IF.c ****     rxFifoCtrl |= ((uint32) (HPI_IF_RX_FIFO_CTRL_TRIGGER_LEVEL_MASK & level));
 274:.\Generated_Source\PSoC4/HPI_IF.c **** 
 275:.\Generated_Source\PSoC4/HPI_IF.c ****     HPI_IF_RX_FIFO_CTRL_REG = rxFifoCtrl;
 276:.\Generated_Source\PSoC4/HPI_IF.c **** }
 277:.\Generated_Source\PSoC4/HPI_IF.c **** 
 278:.\Generated_Source\PSoC4/HPI_IF.c **** 
 279:.\Generated_Source\PSoC4/HPI_IF.c **** /*******************************************************************************
 280:.\Generated_Source\PSoC4/HPI_IF.c **** * Function Name: HPI_IF_SetTxFifoLevel
 281:.\Generated_Source\PSoC4/HPI_IF.c **** ********************************************************************************
 282:.\Generated_Source\PSoC4/HPI_IF.c **** *
 283:.\Generated_Source\PSoC4/HPI_IF.c **** * Summary:
 284:.\Generated_Source\PSoC4/HPI_IF.c **** *  Sets level in the TX FIFO to generate a TX level interrupt.
 285:.\Generated_Source\PSoC4/HPI_IF.c **** *  When the TX FIFO has more entries than the TX FIFO level an TX level
 286:.\Generated_Source\PSoC4/HPI_IF.c **** *  interrupt request is generated.
 287:.\Generated_Source\PSoC4/HPI_IF.c **** *
 288:.\Generated_Source\PSoC4/HPI_IF.c **** * Parameters:
 289:.\Generated_Source\PSoC4/HPI_IF.c **** *  level: Level in the TX FIFO to generate TX level interrupt.
 290:.\Generated_Source\PSoC4/HPI_IF.c **** *         The range of valid level values is between 0 and TX FIFO depth - 1.
 291:.\Generated_Source\PSoC4/HPI_IF.c **** *
ARM GAS  C:\Users\victo\AppData\Local\Temp\ccLBIWao.s 			page 33


 292:.\Generated_Source\PSoC4/HPI_IF.c **** * Return:
 293:.\Generated_Source\PSoC4/HPI_IF.c **** *  None
 294:.\Generated_Source\PSoC4/HPI_IF.c **** *
 295:.\Generated_Source\PSoC4/HPI_IF.c **** *******************************************************************************/
 296:.\Generated_Source\PSoC4/HPI_IF.c **** void HPI_IF_SetTxFifoLevel(uint32 level)
 297:.\Generated_Source\PSoC4/HPI_IF.c **** {
 298:.\Generated_Source\PSoC4/HPI_IF.c ****     uint32 txFifoCtrl;
 299:.\Generated_Source\PSoC4/HPI_IF.c **** 
 300:.\Generated_Source\PSoC4/HPI_IF.c ****     txFifoCtrl = HPI_IF_TX_FIFO_CTRL_REG;
 301:.\Generated_Source\PSoC4/HPI_IF.c **** 
 302:.\Generated_Source\PSoC4/HPI_IF.c ****     txFifoCtrl &= ((uint32) ~HPI_IF_TX_FIFO_CTRL_TRIGGER_LEVEL_MASK); /* Clear level mask bits */
 303:.\Generated_Source\PSoC4/HPI_IF.c ****     txFifoCtrl |= ((uint32) (HPI_IF_TX_FIFO_CTRL_TRIGGER_LEVEL_MASK & level));
 304:.\Generated_Source\PSoC4/HPI_IF.c **** 
 305:.\Generated_Source\PSoC4/HPI_IF.c ****     HPI_IF_TX_FIFO_CTRL_REG = txFifoCtrl;
 306:.\Generated_Source\PSoC4/HPI_IF.c **** }
 307:.\Generated_Source\PSoC4/HPI_IF.c **** 
 308:.\Generated_Source\PSoC4/HPI_IF.c **** 
 309:.\Generated_Source\PSoC4/HPI_IF.c **** #if (HPI_IF_SCB_IRQ_INTERNAL)
 310:.\Generated_Source\PSoC4/HPI_IF.c ****     /*******************************************************************************
 311:.\Generated_Source\PSoC4/HPI_IF.c ****     * Function Name: HPI_IF_SetCustomInterruptHandler
 312:.\Generated_Source\PSoC4/HPI_IF.c ****     ********************************************************************************
 313:.\Generated_Source\PSoC4/HPI_IF.c ****     *
 314:.\Generated_Source\PSoC4/HPI_IF.c ****     * Summary:
 315:.\Generated_Source\PSoC4/HPI_IF.c ****     *  Registers a function to be called by the internal interrupt handler.
 316:.\Generated_Source\PSoC4/HPI_IF.c ****     *  First the function that is registered is called, then the internal interrupt
 317:.\Generated_Source\PSoC4/HPI_IF.c ****     *  handler performs any operation such as software buffer management functions
 318:.\Generated_Source\PSoC4/HPI_IF.c ****     *  before the interrupt returns.  It is the user's responsibility not to break
 319:.\Generated_Source\PSoC4/HPI_IF.c ****     *  the software buffer operations. Only one custom handler is supported, which
 320:.\Generated_Source\PSoC4/HPI_IF.c ****     *  is the function provided by the most recent call.
 321:.\Generated_Source\PSoC4/HPI_IF.c ****     *  At the initialization time no custom handler is registered.
 322:.\Generated_Source\PSoC4/HPI_IF.c ****     *
 323:.\Generated_Source\PSoC4/HPI_IF.c ****     * Parameters:
 324:.\Generated_Source\PSoC4/HPI_IF.c ****     *  func: Pointer to the function to register.
 325:.\Generated_Source\PSoC4/HPI_IF.c ****     *        The value NULL indicates to remove the current custom interrupt
 326:.\Generated_Source\PSoC4/HPI_IF.c ****     *        handler.
 327:.\Generated_Source\PSoC4/HPI_IF.c ****     *
 328:.\Generated_Source\PSoC4/HPI_IF.c ****     * Return:
 329:.\Generated_Source\PSoC4/HPI_IF.c ****     *  None
 330:.\Generated_Source\PSoC4/HPI_IF.c ****     *
 331:.\Generated_Source\PSoC4/HPI_IF.c ****     *******************************************************************************/
 332:.\Generated_Source\PSoC4/HPI_IF.c ****     void HPI_IF_SetCustomInterruptHandler(void (*func)(void))
 333:.\Generated_Source\PSoC4/HPI_IF.c ****     {
 334:.\Generated_Source\PSoC4/HPI_IF.c ****     #if !defined (CY_REMOVE_HPI_IF_CUSTOM_INTR_HANDLER)
 335:.\Generated_Source\PSoC4/HPI_IF.c ****         HPI_IF_customIntrHandler = func; /* Register interrupt handler */
 336:.\Generated_Source\PSoC4/HPI_IF.c ****     #else
 337:.\Generated_Source\PSoC4/HPI_IF.c ****         if (NULL != func)
 338:.\Generated_Source\PSoC4/HPI_IF.c ****         {
 339:.\Generated_Source\PSoC4/HPI_IF.c ****             /* Suppress compiler warning */
 340:.\Generated_Source\PSoC4/HPI_IF.c ****         }
 341:.\Generated_Source\PSoC4/HPI_IF.c ****     #endif /* !defined (CY_REMOVE_HPI_IF_CUSTOM_INTR_HANDLER) */
 342:.\Generated_Source\PSoC4/HPI_IF.c ****     }
 343:.\Generated_Source\PSoC4/HPI_IF.c **** #endif /* (HPI_IF_SCB_IRQ_INTERNAL) */
 344:.\Generated_Source\PSoC4/HPI_IF.c **** 
 345:.\Generated_Source\PSoC4/HPI_IF.c **** 
 346:.\Generated_Source\PSoC4/HPI_IF.c **** /*******************************************************************************
 347:.\Generated_Source\PSoC4/HPI_IF.c **** * Function Name: HPI_IF_ScbModeEnableIntr
 348:.\Generated_Source\PSoC4/HPI_IF.c **** ********************************************************************************
ARM GAS  C:\Users\victo\AppData\Local\Temp\ccLBIWao.s 			page 34


 349:.\Generated_Source\PSoC4/HPI_IF.c **** *
 350:.\Generated_Source\PSoC4/HPI_IF.c **** * Summary:
 351:.\Generated_Source\PSoC4/HPI_IF.c **** *  Enables an interrupt for a specific mode.
 352:.\Generated_Source\PSoC4/HPI_IF.c **** *
 353:.\Generated_Source\PSoC4/HPI_IF.c **** * Parameters:
 354:.\Generated_Source\PSoC4/HPI_IF.c **** *  None
 355:.\Generated_Source\PSoC4/HPI_IF.c **** *
 356:.\Generated_Source\PSoC4/HPI_IF.c **** * Return:
 357:.\Generated_Source\PSoC4/HPI_IF.c **** *  None
 358:.\Generated_Source\PSoC4/HPI_IF.c **** *
 359:.\Generated_Source\PSoC4/HPI_IF.c **** *******************************************************************************/
 360:.\Generated_Source\PSoC4/HPI_IF.c **** static void HPI_IF_ScbEnableIntr(void)
 361:.\Generated_Source\PSoC4/HPI_IF.c **** {
 362:.\Generated_Source\PSoC4/HPI_IF.c **** #if (HPI_IF_SCB_IRQ_INTERNAL)
 363:.\Generated_Source\PSoC4/HPI_IF.c ****     /* Enable interrupt in NVIC */
 364:.\Generated_Source\PSoC4/HPI_IF.c ****     #if (HPI_IF_SCB_MODE_UNCONFIG_CONST_CFG)
 365:.\Generated_Source\PSoC4/HPI_IF.c ****         if (0u != HPI_IF_scbEnableIntr)
 366:.\Generated_Source\PSoC4/HPI_IF.c ****         {
 367:.\Generated_Source\PSoC4/HPI_IF.c ****             HPI_IF_EnableInt();
 368:.\Generated_Source\PSoC4/HPI_IF.c ****         }
 369:.\Generated_Source\PSoC4/HPI_IF.c **** 
 370:.\Generated_Source\PSoC4/HPI_IF.c ****     #else
 371:.\Generated_Source\PSoC4/HPI_IF.c ****         HPI_IF_EnableInt();
 404              		.loc 1 371 0
 405 000a 0920     		mov	r0, #9
 406              	.LBE11:
 407              	.LBE10:
 160:.\Generated_Source\PSoC4/HPI_IF.c **** 
 408              		.loc 1 160 0
 409 000c 0B43     		orr	r3, r1
 410 000e 1360     		str	r3, [r2]
 411              	.LBB13:
 412              	.LBB12:
 413              		.loc 1 371 0
 414 0010 FFF7FEFF 		bl	CyIntEnable
 415              	.LVL1:
 416              	.LBE12:
 417              	.LBE13:
 167:.\Generated_Source\PSoC4/HPI_IF.c **** 
 418              		.loc 1 167 0
 419              		@ sp needed
 420 0014 08BD     		pop	{r3, pc}
 421              	.L4:
 422 0016 C046     		.align	2
 423              	.L3:
 424 0018 00000540 		.word	1074069504
 425              		.cfi_endproc
 426              	.LFE1:
 427              		.size	HPI_IF_Enable, .-HPI_IF_Enable
 428              		.section	.text.HPI_IF_Start,"ax",%progbits
 429              		.align	1
 430              		.global	HPI_IF_Start
 431              		.code	16
 432              		.thumb_func
 433              		.type	HPI_IF_Start, %function
 434              	HPI_IF_Start:
 435              	.LFB2:
ARM GAS  C:\Users\victo\AppData\Local\Temp\ccLBIWao.s 			page 35


 193:.\Generated_Source\PSoC4/HPI_IF.c ****     if (0u == HPI_IF_initVar)
 436              		.loc 1 193 0
 437              		.cfi_startproc
 438 0000 10B5     		push	{r4, lr}
 439              		.cfi_def_cfa_offset 8
 440              		.cfi_offset 4, -8
 441              		.cfi_offset 14, -4
 194:.\Generated_Source\PSoC4/HPI_IF.c ****     {
 442              		.loc 1 194 0
 443 0002 054C     		ldr	r4, .L8
 444 0004 2378     		ldrb	r3, [r4]
 445 0006 002B     		cmp	r3, #0
 446 0008 03D1     		bne	.L6
 447              	.LBB14:
 448              	.LBB15:
 115:.\Generated_Source\PSoC4/HPI_IF.c **** 
 449              		.loc 1 115 0
 450 000a FFF7FEFF 		bl	HPI_IF_I2CInit
 451              	.LVL2:
 452              	.LBE15:
 453              	.LBE14:
 197:.\Generated_Source\PSoC4/HPI_IF.c ****     }
 454              		.loc 1 197 0
 455 000e 0123     		mov	r3, #1
 456 0010 2370     		strb	r3, [r4]
 457              	.L6:
 200:.\Generated_Source\PSoC4/HPI_IF.c **** }
 458              		.loc 1 200 0
 459 0012 FFF7FEFF 		bl	HPI_IF_Enable
 460              	.LVL3:
 201:.\Generated_Source\PSoC4/HPI_IF.c **** 
 461              		.loc 1 201 0
 462              		@ sp needed
 463 0016 10BD     		pop	{r4, pc}
 464              	.L9:
 465              		.align	2
 466              	.L8:
 467 0018 00000000 		.word	.LANCHOR0
 468              		.cfi_endproc
 469              	.LFE2:
 470              		.size	HPI_IF_Start, .-HPI_IF_Start
 471              		.section	.text.HPI_IF_Stop,"ax",%progbits
 472              		.align	1
 473              		.global	HPI_IF_Stop
 474              		.code	16
 475              		.thumb_func
 476              		.type	HPI_IF_Stop, %function
 477              	HPI_IF_Stop:
 478              	.LFB3:
 222:.\Generated_Source\PSoC4/HPI_IF.c **** #if (HPI_IF_SCB_IRQ_INTERNAL)
 479              		.loc 1 222 0
 480              		.cfi_startproc
 481 0000 08B5     		push	{r3, lr}
 482              		.cfi_def_cfa_offset 8
 483              		.cfi_offset 3, -8
 484              		.cfi_offset 14, -4
 224:.\Generated_Source\PSoC4/HPI_IF.c **** #endif /* (HPI_IF_SCB_IRQ_INTERNAL) */
ARM GAS  C:\Users\victo\AppData\Local\Temp\ccLBIWao.s 			page 36


 485              		.loc 1 224 0
 486 0002 0920     		mov	r0, #9
 487 0004 FFF7FEFF 		bl	CyIntDisable
 488              	.LVL4:
 489              	.LBB16:
 490              	.LBB17:
 372:.\Generated_Source\PSoC4/HPI_IF.c **** 
 373:.\Generated_Source\PSoC4/HPI_IF.c ****     #endif /* (HPI_IF_SCB_MODE_UNCONFIG_CONST_CFG) */
 374:.\Generated_Source\PSoC4/HPI_IF.c **** #endif /* (HPI_IF_SCB_IRQ_INTERNAL) */
 375:.\Generated_Source\PSoC4/HPI_IF.c **** }
 376:.\Generated_Source\PSoC4/HPI_IF.c **** 
 377:.\Generated_Source\PSoC4/HPI_IF.c **** 
 378:.\Generated_Source\PSoC4/HPI_IF.c **** /*******************************************************************************
 379:.\Generated_Source\PSoC4/HPI_IF.c **** * Function Name: HPI_IF_ScbModePostEnable
 380:.\Generated_Source\PSoC4/HPI_IF.c **** ********************************************************************************
 381:.\Generated_Source\PSoC4/HPI_IF.c **** *
 382:.\Generated_Source\PSoC4/HPI_IF.c **** * Summary:
 383:.\Generated_Source\PSoC4/HPI_IF.c **** *  Calls the PostEnable function for a specific operation mode.
 384:.\Generated_Source\PSoC4/HPI_IF.c **** *
 385:.\Generated_Source\PSoC4/HPI_IF.c **** * Parameters:
 386:.\Generated_Source\PSoC4/HPI_IF.c **** *  None
 387:.\Generated_Source\PSoC4/HPI_IF.c **** *
 388:.\Generated_Source\PSoC4/HPI_IF.c **** * Return:
 389:.\Generated_Source\PSoC4/HPI_IF.c **** *  None
 390:.\Generated_Source\PSoC4/HPI_IF.c **** *
 391:.\Generated_Source\PSoC4/HPI_IF.c **** *******************************************************************************/
 392:.\Generated_Source\PSoC4/HPI_IF.c **** static void HPI_IF_ScbModePostEnable(void)
 393:.\Generated_Source\PSoC4/HPI_IF.c **** {
 394:.\Generated_Source\PSoC4/HPI_IF.c **** #if (HPI_IF_SCB_MODE_UNCONFIG_CONST_CFG)
 395:.\Generated_Source\PSoC4/HPI_IF.c **** #if (!HPI_IF_CY_SCBIP_V1)
 396:.\Generated_Source\PSoC4/HPI_IF.c ****     if (HPI_IF_SCB_MODE_SPI_RUNTM_CFG)
 397:.\Generated_Source\PSoC4/HPI_IF.c ****     {
 398:.\Generated_Source\PSoC4/HPI_IF.c ****         HPI_IF_SpiPostEnable();
 399:.\Generated_Source\PSoC4/HPI_IF.c ****     }
 400:.\Generated_Source\PSoC4/HPI_IF.c ****     else if (HPI_IF_SCB_MODE_UART_RUNTM_CFG)
 401:.\Generated_Source\PSoC4/HPI_IF.c ****     {
 402:.\Generated_Source\PSoC4/HPI_IF.c ****         HPI_IF_UartPostEnable();
 403:.\Generated_Source\PSoC4/HPI_IF.c ****     }
 404:.\Generated_Source\PSoC4/HPI_IF.c ****     else
 405:.\Generated_Source\PSoC4/HPI_IF.c ****     {
 406:.\Generated_Source\PSoC4/HPI_IF.c ****         /* Unknown mode: do nothing */
 407:.\Generated_Source\PSoC4/HPI_IF.c ****     }
 408:.\Generated_Source\PSoC4/HPI_IF.c **** #endif /* (!HPI_IF_CY_SCBIP_V1) */
 409:.\Generated_Source\PSoC4/HPI_IF.c **** 
 410:.\Generated_Source\PSoC4/HPI_IF.c **** #elif (HPI_IF_SCB_MODE_SPI_CONST_CFG)
 411:.\Generated_Source\PSoC4/HPI_IF.c ****     HPI_IF_SpiPostEnable();
 412:.\Generated_Source\PSoC4/HPI_IF.c **** 
 413:.\Generated_Source\PSoC4/HPI_IF.c **** #elif (HPI_IF_SCB_MODE_UART_CONST_CFG)
 414:.\Generated_Source\PSoC4/HPI_IF.c ****     HPI_IF_UartPostEnable();
 415:.\Generated_Source\PSoC4/HPI_IF.c **** 
 416:.\Generated_Source\PSoC4/HPI_IF.c **** #else
 417:.\Generated_Source\PSoC4/HPI_IF.c ****     /* Unknown mode: do nothing */
 418:.\Generated_Source\PSoC4/HPI_IF.c **** #endif /* (HPI_IF_SCB_MODE_UNCONFIG_CONST_CFG) */
 419:.\Generated_Source\PSoC4/HPI_IF.c **** }
 420:.\Generated_Source\PSoC4/HPI_IF.c **** 
 421:.\Generated_Source\PSoC4/HPI_IF.c **** 
 422:.\Generated_Source\PSoC4/HPI_IF.c **** /*******************************************************************************
ARM GAS  C:\Users\victo\AppData\Local\Temp\ccLBIWao.s 			page 37


 423:.\Generated_Source\PSoC4/HPI_IF.c **** * Function Name: HPI_IF_ScbModeStop
 424:.\Generated_Source\PSoC4/HPI_IF.c **** ********************************************************************************
 425:.\Generated_Source\PSoC4/HPI_IF.c **** *
 426:.\Generated_Source\PSoC4/HPI_IF.c **** * Summary:
 427:.\Generated_Source\PSoC4/HPI_IF.c **** *  Calls the Stop function for a specific operation mode.
 428:.\Generated_Source\PSoC4/HPI_IF.c **** *
 429:.\Generated_Source\PSoC4/HPI_IF.c **** * Parameters:
 430:.\Generated_Source\PSoC4/HPI_IF.c **** *  None
 431:.\Generated_Source\PSoC4/HPI_IF.c **** *
 432:.\Generated_Source\PSoC4/HPI_IF.c **** * Return:
 433:.\Generated_Source\PSoC4/HPI_IF.c **** *  None
 434:.\Generated_Source\PSoC4/HPI_IF.c **** *
 435:.\Generated_Source\PSoC4/HPI_IF.c **** *******************************************************************************/
 436:.\Generated_Source\PSoC4/HPI_IF.c **** static void HPI_IF_ScbModeStop(void)
 437:.\Generated_Source\PSoC4/HPI_IF.c **** {
 438:.\Generated_Source\PSoC4/HPI_IF.c **** #if (HPI_IF_SCB_MODE_UNCONFIG_CONST_CFG)
 439:.\Generated_Source\PSoC4/HPI_IF.c ****     if (HPI_IF_SCB_MODE_I2C_RUNTM_CFG)
 440:.\Generated_Source\PSoC4/HPI_IF.c ****     {
 441:.\Generated_Source\PSoC4/HPI_IF.c ****         HPI_IF_I2CStop();
 442:.\Generated_Source\PSoC4/HPI_IF.c ****     }
 443:.\Generated_Source\PSoC4/HPI_IF.c ****     else if (HPI_IF_SCB_MODE_EZI2C_RUNTM_CFG)
 444:.\Generated_Source\PSoC4/HPI_IF.c ****     {
 445:.\Generated_Source\PSoC4/HPI_IF.c ****         HPI_IF_EzI2CStop();
 446:.\Generated_Source\PSoC4/HPI_IF.c ****     }
 447:.\Generated_Source\PSoC4/HPI_IF.c **** #if (!HPI_IF_CY_SCBIP_V1)
 448:.\Generated_Source\PSoC4/HPI_IF.c ****     else if (HPI_IF_SCB_MODE_SPI_RUNTM_CFG)
 449:.\Generated_Source\PSoC4/HPI_IF.c ****     {
 450:.\Generated_Source\PSoC4/HPI_IF.c ****         HPI_IF_SpiStop();
 451:.\Generated_Source\PSoC4/HPI_IF.c ****     }
 452:.\Generated_Source\PSoC4/HPI_IF.c ****     else if (HPI_IF_SCB_MODE_UART_RUNTM_CFG)
 453:.\Generated_Source\PSoC4/HPI_IF.c ****     {
 454:.\Generated_Source\PSoC4/HPI_IF.c ****         HPI_IF_UartStop();
 455:.\Generated_Source\PSoC4/HPI_IF.c ****     }
 456:.\Generated_Source\PSoC4/HPI_IF.c **** #endif /* (!HPI_IF_CY_SCBIP_V1) */
 457:.\Generated_Source\PSoC4/HPI_IF.c ****     else
 458:.\Generated_Source\PSoC4/HPI_IF.c ****     {
 459:.\Generated_Source\PSoC4/HPI_IF.c ****         /* Unknown mode: do nothing */
 460:.\Generated_Source\PSoC4/HPI_IF.c ****     }
 461:.\Generated_Source\PSoC4/HPI_IF.c **** #elif (HPI_IF_SCB_MODE_I2C_CONST_CFG)
 462:.\Generated_Source\PSoC4/HPI_IF.c ****     HPI_IF_I2CStop();
 491              		.loc 1 462 0
 492 0008 FFF7FEFF 		bl	HPI_IF_I2CStop
 493              	.LVL5:
 494              	.LBE17:
 495              	.LBE16:
 231:.\Generated_Source\PSoC4/HPI_IF.c **** 
 496              		.loc 1 231 0
 497 000c 054A     		ldr	r2, .L11
 244:.\Generated_Source\PSoC4/HPI_IF.c **** #endif /* (HPI_IF_SCB_IRQ_INTERNAL) */
 498              		.loc 1 244 0
 499 000e 0920     		mov	r0, #9
 231:.\Generated_Source\PSoC4/HPI_IF.c **** 
 500              		.loc 1 231 0
 501 0010 1368     		ldr	r3, [r2]
 246:.\Generated_Source\PSoC4/HPI_IF.c **** 
 502              		.loc 1 246 0
 503              		@ sp needed
ARM GAS  C:\Users\victo\AppData\Local\Temp\ccLBIWao.s 			page 38


 231:.\Generated_Source\PSoC4/HPI_IF.c **** 
 504              		.loc 1 231 0
 505 0012 5B00     		lsl	r3, r3, #1
 506 0014 5B08     		lsr	r3, r3, #1
 507 0016 1360     		str	r3, [r2]
 241:.\Generated_Source\PSoC4/HPI_IF.c **** 
 508              		.loc 1 241 0
 509 0018 0022     		mov	r2, #0
 510 001a 034B     		ldr	r3, .L11+4
 511 001c 1A60     		str	r2, [r3]
 244:.\Generated_Source\PSoC4/HPI_IF.c **** #endif /* (HPI_IF_SCB_IRQ_INTERNAL) */
 512              		.loc 1 244 0
 513 001e FFF7FEFF 		bl	CyIntClearPending
 514              	.LVL6:
 246:.\Generated_Source\PSoC4/HPI_IF.c **** 
 515              		.loc 1 246 0
 516 0022 08BD     		pop	{r3, pc}
 517              	.L12:
 518              		.align	2
 519              	.L11:
 520 0024 00000540 		.word	1074069504
 521 0028 880F0540 		.word	1074073480
 522              		.cfi_endproc
 523              	.LFE3:
 524              		.size	HPI_IF_Stop, .-HPI_IF_Stop
 525              		.section	.text.HPI_IF_SetRxFifoLevel,"ax",%progbits
 526              		.align	1
 527              		.global	HPI_IF_SetRxFifoLevel
 528              		.code	16
 529              		.thumb_func
 530              		.type	HPI_IF_SetRxFifoLevel, %function
 531              	HPI_IF_SetRxFifoLevel:
 532              	.LFB4:
 267:.\Generated_Source\PSoC4/HPI_IF.c ****     uint32 rxFifoCtrl;
 533              		.loc 1 267 0
 534              		.cfi_startproc
 535              	.LVL7:
 272:.\Generated_Source\PSoC4/HPI_IF.c ****     rxFifoCtrl |= ((uint32) (HPI_IF_RX_FIFO_CTRL_TRIGGER_LEVEL_MASK & level));
 536              		.loc 1 272 0
 537 0000 0F22     		mov	r2, #15
 270:.\Generated_Source\PSoC4/HPI_IF.c **** 
 538              		.loc 1 270 0
 539 0002 0349     		ldr	r1, .L14
 273:.\Generated_Source\PSoC4/HPI_IF.c **** 
 540              		.loc 1 273 0
 541 0004 1040     		and	r0, r2
 542              	.LVL8:
 270:.\Generated_Source\PSoC4/HPI_IF.c **** 
 543              		.loc 1 270 0
 544 0006 0B68     		ldr	r3, [r1]
 545              	.LVL9:
 276:.\Generated_Source\PSoC4/HPI_IF.c **** 
 546              		.loc 1 276 0
 547              		@ sp needed
 272:.\Generated_Source\PSoC4/HPI_IF.c ****     rxFifoCtrl |= ((uint32) (HPI_IF_RX_FIFO_CTRL_TRIGGER_LEVEL_MASK & level));
 548              		.loc 1 272 0
 549 0008 9343     		bic	r3, r2
ARM GAS  C:\Users\victo\AppData\Local\Temp\ccLBIWao.s 			page 39


 550              	.LVL10:
 273:.\Generated_Source\PSoC4/HPI_IF.c **** 
 551              		.loc 1 273 0
 552 000a 1843     		orr	r0, r3
 553              	.LVL11:
 275:.\Generated_Source\PSoC4/HPI_IF.c **** }
 554              		.loc 1 275 0
 555 000c 0860     		str	r0, [r1]
 276:.\Generated_Source\PSoC4/HPI_IF.c **** 
 556              		.loc 1 276 0
 557 000e 7047     		bx	lr
 558              	.L15:
 559              		.align	2
 560              	.L14:
 561 0010 04030540 		.word	1074070276
 562              		.cfi_endproc
 563              	.LFE4:
 564              		.size	HPI_IF_SetRxFifoLevel, .-HPI_IF_SetRxFifoLevel
 565              		.section	.text.HPI_IF_SetTxFifoLevel,"ax",%progbits
 566              		.align	1
 567              		.global	HPI_IF_SetTxFifoLevel
 568              		.code	16
 569              		.thumb_func
 570              		.type	HPI_IF_SetTxFifoLevel, %function
 571              	HPI_IF_SetTxFifoLevel:
 572              	.LFB5:
 297:.\Generated_Source\PSoC4/HPI_IF.c ****     uint32 txFifoCtrl;
 573              		.loc 1 297 0
 574              		.cfi_startproc
 575              	.LVL12:
 302:.\Generated_Source\PSoC4/HPI_IF.c ****     txFifoCtrl |= ((uint32) (HPI_IF_TX_FIFO_CTRL_TRIGGER_LEVEL_MASK & level));
 576              		.loc 1 302 0
 577 0000 0F22     		mov	r2, #15
 300:.\Generated_Source\PSoC4/HPI_IF.c **** 
 578              		.loc 1 300 0
 579 0002 0349     		ldr	r1, .L17
 303:.\Generated_Source\PSoC4/HPI_IF.c **** 
 580              		.loc 1 303 0
 581 0004 1040     		and	r0, r2
 582              	.LVL13:
 300:.\Generated_Source\PSoC4/HPI_IF.c **** 
 583              		.loc 1 300 0
 584 0006 0B68     		ldr	r3, [r1]
 585              	.LVL14:
 306:.\Generated_Source\PSoC4/HPI_IF.c **** 
 586              		.loc 1 306 0
 587              		@ sp needed
 302:.\Generated_Source\PSoC4/HPI_IF.c ****     txFifoCtrl |= ((uint32) (HPI_IF_TX_FIFO_CTRL_TRIGGER_LEVEL_MASK & level));
 588              		.loc 1 302 0
 589 0008 9343     		bic	r3, r2
 590              	.LVL15:
 303:.\Generated_Source\PSoC4/HPI_IF.c **** 
 591              		.loc 1 303 0
 592 000a 1843     		orr	r0, r3
 593              	.LVL16:
 305:.\Generated_Source\PSoC4/HPI_IF.c **** }
 594              		.loc 1 305 0
ARM GAS  C:\Users\victo\AppData\Local\Temp\ccLBIWao.s 			page 40


 595 000c 0860     		str	r0, [r1]
 306:.\Generated_Source\PSoC4/HPI_IF.c **** 
 596              		.loc 1 306 0
 597 000e 7047     		bx	lr
 598              	.L18:
 599              		.align	2
 600              	.L17:
 601 0010 04020540 		.word	1074070020
 602              		.cfi_endproc
 603              	.LFE5:
 604              		.size	HPI_IF_SetTxFifoLevel, .-HPI_IF_SetTxFifoLevel
 605              		.section	.text.HPI_IF_SetCustomInterruptHandler,"ax",%progbits
 606              		.align	1
 607              		.global	HPI_IF_SetCustomInterruptHandler
 608              		.code	16
 609              		.thumb_func
 610              		.type	HPI_IF_SetCustomInterruptHandler, %function
 611              	HPI_IF_SetCustomInterruptHandler:
 612              	.LFB6:
 333:.\Generated_Source\PSoC4/HPI_IF.c ****     #if !defined (CY_REMOVE_HPI_IF_CUSTOM_INTR_HANDLER)
 613              		.loc 1 333 0
 614              		.cfi_startproc
 615              	.LVL17:
 335:.\Generated_Source\PSoC4/HPI_IF.c ****     #else
 616              		.loc 1 335 0
 617 0000 014B     		ldr	r3, .L20
 342:.\Generated_Source\PSoC4/HPI_IF.c **** #endif /* (HPI_IF_SCB_IRQ_INTERNAL) */
 618              		.loc 1 342 0
 619              		@ sp needed
 335:.\Generated_Source\PSoC4/HPI_IF.c ****     #else
 620              		.loc 1 335 0
 621 0002 5860     		str	r0, [r3, #4]
 342:.\Generated_Source\PSoC4/HPI_IF.c **** #endif /* (HPI_IF_SCB_IRQ_INTERNAL) */
 622              		.loc 1 342 0
 623 0004 7047     		bx	lr
 624              	.L21:
 625 0006 C046     		.align	2
 626              	.L20:
 627 0008 00000000 		.word	.LANCHOR0
 628              		.cfi_endproc
 629              	.LFE6:
 630              		.size	HPI_IF_SetCustomInterruptHandler, .-HPI_IF_SetCustomInterruptHandler
 631              		.global	HPI_IF_customIntrHandler
 632              		.global	HPI_IF_initVar
 633              		.bss
 634              		.align	2
 635              		.set	.LANCHOR0,. + 0
 636              		.type	HPI_IF_initVar, %object
 637              		.size	HPI_IF_initVar, 1
 638              	HPI_IF_initVar:
 639 0000 00       		.space	1
 640 0001 000000   		.space	3
 641              		.type	HPI_IF_customIntrHandler, %object
 642              		.size	HPI_IF_customIntrHandler, 4
 643              	HPI_IF_customIntrHandler:
 644 0004 00000000 		.space	4
 645              		.text
ARM GAS  C:\Users\victo\AppData\Local\Temp\ccLBIWao.s 			page 41


 646              	.Letext0:
 647              		.file 2 "Generated_Source\\PSoC4/cytypes.h"
 648              		.file 3 ".\\Generated_Source\\PSoC4\\HPI_IF_I2C_PVT.h"
 649              		.file 4 "Generated_Source\\PSoC4/CyLib.h"