ARM GAS  C:\Users\victo\AppData\Local\Temp\ccGQdaR9.s 			page 1


   1              		.cpu cortex-m0
   2              		.fpu softvfp
   3              		.eabi_attribute 20, 1
   4              		.eabi_attribute 21, 1
   5              		.eabi_attribute 23, 3
   6              		.eabi_attribute 24, 1
   7              		.eabi_attribute 25, 1
   8              		.eabi_attribute 26, 1
   9              		.eabi_attribute 30, 4
  10              		.eabi_attribute 34, 0
  11              		.eabi_attribute 18, 4
  12              		.code	16
  13              		.file	"UART.c"
  14              		.text
  15              	.Ltext0:
  16              		.section	.gnu.lto_.profile.91bc92b3,"",%progbits
  17 0000 789C6366 		.ascii	"x\234cf```a\200\000F\2062u\000\001\207\000\246"
  17      60606061 
  17      80004686 
  17      32750001 
  17      8700A6
  18              		.text
  19              		.section	.gnu.lto_.jmpfuncs.91bc92b3,"",%progbits
  20 0000 789C6366 		.ascii	"x\234cf\300\016\342\2414;\0203200122\326\003if \203"
  20      C00EE2A1 
  20      343B1033 
  20      32303031 
  20      3232D603 
  21 0018 B91EC462 		.ascii	"\271\036\304b\201\212\000\021\033\202\011T\316\310\364"
  21      818A0011 
  21      1B820954 
  21      CEC8F4
  22 0027 9189B1E9 		.ascii	"\221\211\261\351\364\221\313L/\230~21p10.g\224\202\210"
  22      F491CB4C 
  22      2F987E32 
  22      31703130 
  22      2E679482 
  23 003c 9EDBBDE1 		.ascii	"\236\333\275\34117X\224\227\201q\005P\224\001\0007\240"
  23      31375894 
  23      97817105 
  23      50940100 
  23      37A0
  24 004e 1075     		.ascii	"\020u"
  25              		.text
  26              		.section	.gnu.lto_.inline.91bc92b3,"",%progbits
  27 0000 789C6D8E 		.ascii	"x\234m\216\301\011\2000\014E\177\332\320\212=xU\020"
  27      C1098030 
  27      0C457FDA 
  27      D08A3D78 
  27      5510
  28 0012 BA91B379 		.ascii	"\272\221\263y\362\334\223N\340\036.!8\206\215F\024\365"
  28      F2DC934E 
  28      E01E2E21 
  28      38868D46 
  28      14F5
  29 0024 1FF243FE 		.ascii	"\037\362C\376#\211\305\277Vu\017XC0\271u)\212\201>\023"
  29      2389C5BF 
ARM GAS  C:\Users\victo\AppData\Local\Temp\ccGQdaR9.s 			page 2


  29      56750F58 
  29      4330B975 
  29      298A813E 
  30 0039 83301191 		.ascii	"\2030\021\221$\340r\230\335\231\320\346\371\254\007"
  30      24E07298 
  30      DD99D0E6 
  30      F9AC07
  31 0048 1432D077 		.ascii	"\0242\320w\026\345H\242<\271Q\276\001Fh\217]\260\234"
  31      16E548A2 
  31      3CB951BE 
  31      0146688F 
  31      5DB09C
  32 005b A2C6290A 		.ascii	"\242\306)\012\301\231\2010j\016E\243\350\365\215Y*\275"
  32      C1998130 
  32      6A0E45A3 
  32      E8F58D59 
  32      2ABD
  33 006d F6043D7C 		.ascii	"\366\004=|\375zY\002\255\330\0015\317\025/"
  33      FD7A5902 
  33      ADD80135 
  33      CF152F
  34              		.text
  35              		.section	.gnu.lto_.pureconst.91bc92b3,"",%progbits
  36 0000 789C6366 		.ascii	"x\234cf``\340g\200\000v\006\006F\006&KfI\026\0116\011"
  36      6060E067 
  36      80007606 
  36      06460626 
  36      4B664916 
  37 0017 76090006 		.ascii	"v\011\000\006,\000\313"
  37      2C00CB
  38              		.text
  39              		.section	.gnu.lto_UART_Start.91bc92b3,"",%progbits
  40 0000 789C6366 		.ascii	"x\234cf\300\004R@\\\002\304J@\314\310\314\300\3104\341"
  40      C0045240 
  40      5C02C44A 
  40      40CCC8CC 
  40      C0C834E1 
  41 0014 1C034323 		.ascii	"\034\003C#\007\023##\210\301\300\310P\317\304X\317\370"
  41      07132323 
  41      88C1C0C8 
  41      50CFC458 
  41      CFF8
  42 0026 92E92313 		.ascii	"\222\351#\023\343\204\003\253gp\253/mhh\370p\351,[\253"
  42      E38403AB 
  42      6770AB2F 
  42      6D6868F8 
  42      70E92C5B 
  43 003b C44F2606 		.ascii	"\304O&\006\206\317L\020c\030\2273\2523\000\325|l\371"
  43      86CF4C10 
  43      63189733 
  43      AA3300D5 
  43      7C6CF9
  44 004e 7B9D9BAD 		.ascii	"{\235\233\255\005\250F\000\"\307\270\202\221\215\021"
  44      05A84600 
  44      22C7B882 
  44      918D11
  45 005d 48AF173A 		.ascii	"H\257\027:\320\360\377\377\346\355G?0\002\205\237\000"
ARM GAS  C:\Users\victo\AppData\Local\Temp\ccGQdaR9.s 			page 3


  45      D0F0FFFF 
  45      E6ED473F 
  45      3002859F 
  45      00
  46 006e 31C8FCA7 		.ascii	"1\310\374\247LL \232\371\036##H!\310\244'L\214 !\240"
  46      4C4C209A 
  46      F91E2323 
  46      4821C8A4 
  46      274C8C20 
  47 0084 0205BD18 		.ascii	"\002\005\275\030\367\324\274\324\242\304\222\324\224"
  47      F7D4BCD4 
  47      A2C492D4 
  47      94
  48 0091 F8E0FCD2 		.ascii	"\370\340\374\322\242\344\324\230\200\340|g\223\230P"
  48      A2E4D498 
  48      80E07C67 
  48      939850
  49 00a0 C7A010BD 		.ascii	"\307\240\020\275d\006\000\023\0054g"
  49      64060013 
  49      053467
  50              		.text
  51              		.section	.gnu.lto_UART_Stop.91bc92b3,"",%progbits
  52 0000 789C6366 		.ascii	"x\234cf\300\004R@\\\012\304J@\314\310\314\300\3104\341"
  52      C0045240 
  52      5C0AC44A 
  52      40CCC8CC 
  52      C0C834E1 
  53 0014 1C034323 		.ascii	"\034\003C#\007\023##\210\301\300\310P\317\304X\317\370"
  53      07132323 
  53      88C1C0C8 
  53      50CFC458 
  53      CFF8
  54 0026 92E92313 		.ascii	"\222\351#\023\343\204\003\253gp\253/mhh\3700i\277D\253"
  54      E38403AB 
  54      6770AB2F 
  54      6D6868F8 
  54      3069BF44 
  55 003b C44F2606 		.ascii	"\304O&\006\206\317L\020c\030\2273\2523\000\325|l\371"
  55      86CF4C10 
  55      63189733 
  55      AA3300D5 
  55      7C6CF9
  56 004e 7B9D9BAD 		.ascii	"{\235\233\255\005\250F\000\"\307\270\202\221\215\021"
  56      05A84600 
  56      22C7B882 
  56      918D11
  57 005d 48AF173A 		.ascii	"H\257\027:\320\360\377\377\346\277\023;\354\031\201"
  57      D0F0FFFF 
  57      E6BF133B 
  57      EC1981
  58 006c E24F8018 		.ascii	"\342O\200\030d\301S&&\020\315|\217\221\021\244\022d"
  58      64C15326 
  58      2610CD7C 
  58      8F9111A4 
  58      1264
  59 007e D4132646 		.ascii	"\324\023&F\220\020P\201\202^\214{j^jQbIjJ|p~iQrjL@p"
  59      90105081 
ARM GAS  C:\Users\victo\AppData\Local\Temp\ccGQdaR9.s 			page 4


  59      825E8C7B 
  59      6A5E6A51 
  59      62496A4A 
  60 009c BEB3494C 		.ascii	"\276\263IL\250cP\210^2\003\000\01614\025"
  60      A8635088 
  60      5E320300 
  60      0E313415 
  61              		.text
  62              		.section	.gnu.lto_UART_PutString.91bc92b3,"",%progbits
  63 0000 789C6D52 		.ascii	"x\234mR[H\224A\024>\347\374\227\275\374J\322\223\354"
  63      5B489441 
  63      143EE7FC 
  63      97BDFC4A 
  63      D293EC
  64 0013 4BC22292 		.ascii	"K\302\"\222\224\017\021E\017A\021\021\365\024Y\320\203"
  64      940F1145 
  64      0F411111 
  64      F51459D0 
  64      83
  65 0024 10A14B04 		.ascii	"\020\241K\004\261\302f\320\2138\253\333\005[D\244`)"
  65      B1C266D0 
  65      8B38ABDB 
  65      055B44A4 
  65      6029
  66 0036 CCA252D3 		.ascii	"\314\242R\323R\323\014*\250\315\207.R\231\311*Y\250"
  66      52D30C2A 
  66      A8CD872E 
  66      5299C92A 
  66      59A8
  67 0048 0FAE2615 		.ascii	"\017\256&\025$\226\333\242\266\235\231\321\202\352\207"
  67      2496DBA2 
  67      B69D99D1 
  67      82EA87
  68 0057 9F9973E6 		.ascii	"\237\231s\346;\337\371\3167c\300\277\337N\3767\030\000"
  68      3BDFF9CE 
  68      3763C0BF 
  68      DF4EFE37 
  68      1800
  69 0069 5B79451B 		.ascii	"[yE\033\220\352_\003\204\335\204\246\336\030z\363\304"
  69      90EA5F03 
  69      84DD84A6 
  69      DE187AF3 
  69      C4
  70 007a 6D92117D 		.ascii	"m\222\021}\006 \274V\304\005\"\313B\224y@\250\"\303"
  70      0620BC56 
  70      C40522CB 
  70      42947940 
  70      A822C3
  71 008d B4B08A4C 		.ascii	"\264\260\212LM8C\263\204\365\361\366\230SpC\010\361"
  71      4D3843B3 
  71      84F5F1F6 
  71      98537043 
  71      08F1
  72 009f F5ED50EE 		.ascii	"\365\355P\356\251\3344\001\314\221\006`\013\0260\244"
  72      A9DC3401 
  72      CC910660 
  72      0B1630A4 
ARM GAS  C:\Users\victo\AppData\Local\Temp\ccGQdaR9.s 			page 5


  73 00af A56FE69C 		.ascii	"\245o\346\234c\370\021x\177\277\343\333+\347#\245\011"
  73      63F81178 
  73      7FBFE3DB 
  73      2BE723A5 
  73      09
  74 00c0 F364F8A0 		.ascii	"\363d\370\240\341y\314\226!sr8\331\3228k\347_\023\242"
  74      E179CC96 
  74      21737238 
  74      D9D2386B 
  74      E75F13A2 
  75 00d4 3AFEA25B 		.ascii	":\376\242[l3\323d`+\032\314\2077\321\207m\350\003N\001"
  75      6C33D364 
  75      602B1ACC 
  75      8737D187 
  75      6DE8034E 
  76 00e9 B663BE84 		.ascii	"\266c\276\204\277\021\237\226\262\215BE\3344=\035\365"
  76      BF119F96 
  76      B28D4245 
  76      DC343D1D 
  76      F5
  77 00fa FAAF72E9 		.ascii	"\372\257r\351DS\362\251#b\"2\221\311\254I\223\211\267"
  77      4453F2A9 
  77      23622232 
  77      91C9AC49 
  77      9389B7
  78 010d 34C33A1F 		.ascii	"4\303:\037\256\365-{\301\005\315\217\352\306\321\330"
  78      AEF52D7B 
  78      C105CD8F 
  78      EAC6D1D8 
  79 011d A48A17BE 		.ascii	"\244\212\027\276\237\037\261T\361\225\326\244\365\273"
  79      9F1FB154 
  79      F195D6A4 
  79      F5BB
  80 012b D4C28EFF 		.ascii	"\324\302\216\377\226\316F\226F\034;\3023\347\340m\364"
  80      96CE4696 
  80      461C3BC2 
  80      33E7E06D 
  80      F4
  81 013c 6327FAF5 		.ascii	"c'\372\365\314\330\2056\002\320J\266su\\d2=\003\015"
  81      CCD88536 
  81      02D04AB6 
  81      73755C64 
  81      323D030D 
  82 0150 AD459485 		.ascii	"\255E\224\205 \323\314\306\007\354)\317`\253\275\233"
  82      20D3CCC6 
  82      07EC29CF 
  82      60ABBD9B 
  83 0160 67228F1C 		.ascii	"g\"\217\034\314\253bG\341\000&\231\221/ I\304\2131\214"
  83      CCAB6247 
  83      E1002699 
  83      912F2049 
  83      C48B318C 
  84 0174 D5F1C7FD 		.ascii	"\325\361\307\375\331\252\003\037\263\212\301\213\315"
  84      D9AA031F 
  84      B38AC18B 
  84      CD
  85 0181 35ABA477 		.ascii	"5\253\244w&3\337akF\261z\276\266\257PBRd3b|r`\320-\021"
ARM GAS  C:\Users\victo\AppData\Local\Temp\ccGQdaR9.s 			page 6


  85      2633DF61 
  85      6B46B17A 
  85      BEB6AF50 
  85      42526433 
  86 019c 8692DDFB 		.ascii	"\206\222\335\373\243\351Kv#^\012\013\021_\237&\006Y"
  86      A3E94B76 
  86      235E0A0B 
  86      115F9F26 
  86      0659
  87 01ae D8CD7580 		.ascii	"\330\315u\200=\330\210\300\035\304f\305\317\"\230\200"
  87      3DD888C0 
  87      1DC466C5 
  87      CF229880 
  88 01be E7497225 		.ascii	"\347Ir%?\005\343\003F\342\357\373\263\344\241$\272<"
  88      3F05E303 
  88      46E2EFFB 
  88      B3E4A124 
  88      BA3C
  89 01d0 54D74195 		.ascii	"T\327A\225\013\342\254p\247\3115G<2\336\305JH\021\367"
  89      0BE2AC70 
  89      A7C93547 
  89      3C32DEC5 
  89      4A4811F7 
  90 01e4 724B1D63 		.ascii	"rK\035cg\346\333BZ\210;\305\347\243X\023\263u\354\341"
  90      67E6DB42 
  90      5A883BC5 
  90      E7A35813 
  90      B375ECE1 
  91 01f8 B6298D9A 		.ascii	"\266)\215\232\257}I:\351\375K\336\026%\317\263,\257"
  91      AF7D493A 
  91      E9FD4BDE 
  91      1625CFB3 
  91      2CAF
  92 020a 77455EF1 		.ascii	"wE^\361\037y^\311\331p\372g\333A\315\340p\033\345\302"
  92      1F795EC9 
  92      D970FA67 
  92      DB41CDE0 
  92      701BE5C2 
  93 021e 30D28A49 		.ascii	"0\322\212I\234UC\230\300\017X:\230\003\272\230@\007"
  93      9C554398 
  93      C00F583A 
  93      9803BA98 
  93      4007
  94 0230 0A8390C0 		.ascii	"\012\203\220\300\310\273\232\316\013>\315$_u\270\371"
  94      C8BB9ACE 
  94      0B3ECD24 
  94      5F75B8F9 
  95 0240 61D4259D 		.ascii	"a\324%\235\363p\373{\250\356~\012U\003Z\034:\306\304"
  95      F370FB7B 
  95      A8EE7E0A 
  95      55035A1C 
  95      3AC6C4
  96 0253 C662A20B 		.ascii	"\306b\242\013\247\220\330(\212&8\3435>'\256#w\263\344"
  96      A790D828 
  96      8A2638E3 
  96      353E27AE 
  96      2377B3E4 
ARM GAS  C:\Users\victo\AppData\Local\Temp\ccGQdaR9.s 			page 7


  97 0267 758D6138 		.ascii	"u\215a8>\267G\031\006\362*\221\223|\237yE%\273\002\301"
  97      3EB74719 
  97      06F22A91 
  97      937C9F79 
  97      4525BB02 
  98 027c 40E87045 		.ascii	"@\350pE\240\354Pq\371\211Pi\240doq\371\216\215%\007"
  98      A0EC5071 
  98      F9895069 
  98      A0646F71 
  98      F98E8D25 
  99 0291 B6EFDB5F 		.ascii	"\266\357\333_T\012\366\361\212\320\321\340\021G/\273"
  99      540AF6F1 
  99      8AD0D1E0 
  99      11472FBB 
 100 02a1 83658193 		.ascii	"\203e\201\223\256\322\023\241P X\361\013\372\376(Q"
 100      AED213A1 
 100      502058F1 
 100      0BFAFE28 
 100      51
 101              		.text
 102              		.section	.gnu.lto_UART_PutArray.91bc92b3,"",%progbits
 103 0000 789C6552 		.ascii	"x\234eRMHTQ\024>\337\275\357\315\274\031\215\221\026"
 103      4D485451 
 103      143EDFBD 
 103      EFCDBC19 
 103      8D9116
 104 0013 226E1206 		.ascii	"\"n\022\006\2216nj\025\004\205\213\0107\221\265\023"
 104      91366E6A 
 104      1504858B 
 104      083791B5 
 104      13
 105 0024 62D2B775 		.ascii	"b\322\267u`\030#\027\342uf\224\250\010u\223\024\026"
 105      60182317 
 105      E2756694 
 105      A8087593 
 105      1416
 106 0036 11D98FE3 		.ascii	"\021\331\217\343XcBF\330\264RH'DR\321~$\264&\310H\214"
 106      58634246 
 106      D8B45248 
 106      274452D1 
 106      7E24B426 
 107 004d A6299AE9 		.ascii	"\246)\232\351\334\367\012\372\271\274\367\356=\347\235"
 107      DCF70AFA 
 107      B9BCF7EE 
 107      3DE79D
 108 005c EFFBCE77 		.ascii	"\357\373\316w\336\223\364\377j\344\273_\020\355\347"
 108      DE93F4FF 
 108      6AE4BB5F 
 108      10EDE7
 109 006b 1D1E82E8 		.ascii	"\035\036\202\350\313\022u[\002\206{\220\356\341\211"
 109      CB12755B 
 109      02867B90 
 109      EEE189
 110 007a 6508797E 		.ascii	"e\010y~\232H\371\315\204\227T\271\011\350<\201\272\204"
 110      9A48F9CD 
 110      849754B9 
 110      09E83C81 
ARM GAS  C:\Users\victo\AppData\Local\Temp\ccGQdaR9.s 			page 8


 110      BA84
 111 008c 344C7409 		.ascii	"4Lt\011\203P\342\025ph\337\213-\201\276\314\310`Y\335"
 111      8350E215 
 111      7068DF8B 
 111      2D81BECC 
 111      C86059DD 
 112 00a0 0DA5D4A7 		.ascii	"\015\245\324\247\364jUOU\201u\266\205\253\213\233\250"
 112      F46A554F 
 112      558175B6 
 112      85AB8B9B 
 112      A8
 113 00b1 E392E1EC 		.ascii	"\343\222\341\354\203I\310 \210\317\223\251\317se9Q\020"
 113      8349C820 
 113      88CF93A9 
 113      CF736539 
 113      5110
 114 00c3 A8D1E1C3 		.ascii	"\250\321\341\303\201\231A\217\016\231\231\303\251\251"
 114      8199418F 
 114      0E9999C3 
 114      A9A9
 115 00d1 D94DABF6 		.ascii	"\331M\253\366\272R\261\314LZ\0350\012B\342\026$\363"
 115      BA52B1CC 
 115      4C5A1D30 
 115      0A42E216 
 115      24F3
 116 00e3 E136AA71 		.ascii	"\3416\252q\007\325\304)\302\010j\271\372]\262\370\310"
 116      07D5C429 
 116      C2086AB9 
 116      FA5DB2F8 
 116      C8
 117 00f4 94BB1DDE 		.ascii	"\224\273\035\336\351\017o.\006\\d\316E\032H\376\213"
 117      E90F6F2E 
 117      065C64CE 
 117      451A48FE 
 117      8B
 118 0105 E4EE4751 		.ascii	"\344\356GQ\253\313\317\305\346\212R\356q\240\253\013"
 118      ABCBCFC5 
 118      E68A52EE 
 118      71A0AB0B 
 119 0115 C97E3378 		.ascii	"\311~3x\215\241k/{\246\313\325\214J\254\225J\2734C\352"
 119      8DA16B2F 
 119      7BA6CBD5 
 119      8C4AAC95 
 119      4ABB3443 
 120 012a 6F067731 		.ascii	"o\006w1d+\361c\251\314\223`\323\025\030C\3205\214\273"
 120      642BF163 
 120      A9CC9360 
 120      D3151843 
 120      D0358CBB 
 121 013e F080379D 		.ascii	"\360\2007\235\031\333\231Q\245\322\370\307\201\334>"
 121      19DB9951 
 121      A5D2F8C7 
 121      81DC3E
 122 014d E107E994 		.ascii	"\341\007\351\224\001-\316#\345\346=\332\206\227\037"
 122      012DCE23 
 122      E5E63DDA 
 122      86971F
ARM GAS  C:\Users\victo\AppData\Local\Temp\ccGQdaR9.s 			page 9


 123 015c A6CF7947 		.ascii	"\246\317yG\264\316\014<\363\015!x\223\213\210e\036?"
 123      B4CE0C3C 
 123      F30D2178 
 123      938B8865 
 123      1E3F
 124 016e AD7418F9 		.ascii	"\255t\030\3715+\276^\1776o\351A\031\254p\317\351e\203"
 124      352BBE5E 
 124      7F366FE9 
 124      4119AC70 
 124      CFE96583 
 125 0182 27C15F4B 		.ascii	"'\301_K\256 >\330\233M\235\322\325y\301\227\231\027"
 125      AE203ED8 
 125      9B4D9DD2 
 125      D579C197 
 125      9917
 126 0194 A015C4BE 		.ascii	"\240\025\304\276\234\235\205\233\364\376\311 \035\013"
 126      9C9D859B 
 126      F4FEC920 
 126      1D0B
 127 01a2 135FAF6E 		.ascii	"\023_\257n\356\030\302e\0244\304\203\264\346\3048\206"
 127      EE18C265 
 127      1434C483 
 127      B4E6C438 
 127      86
 128 01b3 402F6068 		.ascii	"@/`h\230\256\272\262p!%:\277\2533\312*\010\357\266\320"
 128      98AEBAB2 
 128      7021253A 
 128      BFAB33CA 
 128      2A08EFB6 
 129 01c8 FEEEA393 		.ascii	"\376\356\243\223\230\262 ,\026\211\017\364\026G\277"
 129      98B2202C 
 129      16890FF4 
 129      1647BF
 130 01d7 FD92F1B1 		.ascii	"\375\222\361\2610\203\346/\015\307\003N\257\354|\202"
 130      3083E62F 
 130      0DC7034E 
 130      AFEC7C82 
 131 01e7 7917217E 		.ascii	"y\027!~[\341\"\247u\203\370\317\322>+\310M\203\236#"
 131      5BE122A7 
 131      7583F8CF 
 131      D23E2BC8 
 131      4D839E23 
 132 01fb 311BAF74 		.ascii	"1\033\257t\231\220\327F\211\336\002\332\255XfO>\271"
 132      9990D746 
 132      89DE02DA 
 132      AD58664F 
 132      3EB9
 133 020d 1C60A4A9 		.ascii	"\034`\244\251\007\364\012\335\231\245F\247K\322\303"
 133      07F40ADD 
 133      99A546A7 
 133      4BD2C3
 134 021c 03277982 		.ascii	"\003'y\2025\365\315\207\3546;\022\212\332\255'\232\302"
 134      35F5CD87 
 134      EC363B12 
 134      8ADAAD27 
 134      9AC2
 135 022e ED9116BB 		.ascii	"\355\221\026\273\371HS\270ao\363\361\203G\217\325\267"
ARM GAS  C:\Users\victo\AppData\Local\Temp\ccGQdaR9.s 			page 10


 135      F94853B8 
 135      616FF3F1 
 135      83478FD5 
 135      B7
 136 023f 90198A44 		.ascii	"\220\031\212DB\035\276\223\035Q\273!\334\336\026\365"
 136      421DBE93 
 136      1D51BB21 
 136      DCDE16F5 
 137 024f 3BF1E1B6 		.ascii	";\361\341\266V\373\364O1\267\367I"
 137      56FBF44F 
 137      31B7F749 
 138              		.text
 139              		.section	.gnu.lto_UART_PutHexByte.91bc92b3,"",%progbits
 140 0000 789C8D91 		.ascii	"x\234\215\221\317k\023Q\020\307\347;/\331\335n\016\026"
 140      CF6B1351 
 140      10C7E73B 
 140      2FD9DD6E 
 140      0E16
 141 0012 4F252741 		.ascii	"O%'AB\020J{\361\017\360\307AOR\254\336\002\"u\217Z("
 141      42104A7B 
 141      F10FF0C7 
 141      414F52AC 
 141      DE022275 
 142 0029 11EA21F4 		.ascii	"\021\352!\364\245\215%'\033TJ@\024DDkmR\265b\033<\004"
 142      A58D2527 
 142      1B544A40 
 142      1444446B 
 142      6D52B562 
 143 0040 45144445 		.ascii	"E\024DE\024\225\"\021\244\202\305\213!\207\270H\211"
 143      14952211 
 143      A482C58B 
 143      2187B848 
 143      89
 144 0051 331B5454 		.ascii	"3\033TT\012.\354\314{o\277\363\235\371\3543\364\357"
 144      0A2EECCC 
 144      7B6FBFF3 
 144      9DF9EC33 
 144      F4EF
 145 0063 9394F738 		.ascii	"\223\224\3678\023\365K\206!p\3519Q\336c@\027\004\232"
 145      13F54B86 
 145      2170E939 
 145      51DE6340 
 145      17049A
 146 0076 604C609D 		.ascii	"`L`\235\233\214R}\276\234H_\265\326~\375\330\354;\335"
 146      9B8C527D 
 146      BE9C485F 
 146      B5D67EFD 
 146      D8EC3BDD 
 147 008a 174A598B 		.ascii	"\027JY\213\2736\270\206\264H\356=\\,\372f;H\326K\235"
 147      BB36B886 
 147      B448EE3D 
 147      5C2CFA66 
 147      3B48D64B 
 148 009f F6173F75 		.ascii	"\366\027?u\305\332\311\372\375\212\335\205P<\257\303"
 148      C5DAC9FA 
 148      FD8ADD85 
 148      503CAFC3 
ARM GAS  C:\Users\victo\AppData\Local\Temp\ccGQdaR9.s 			page 11


 149 00af 4805FA93 		.ascii	"H\005\372\223\330\221$9 \314!\245\342fa\343m\302)\210"
 149      D8912439 
 149      20CC21A5 
 149      E26661E3 
 149      6DC22988 
 150 00c3 77EFC64F 		.ascii	"w\357\306O[\334\200\003IrP\335Z\267\235N\353\361\271"
 150      5BDC8003 
 150      497250DD 
 150      5AB79D4E 
 150      EBF1B9
 151 00d6 62DA2400 		.ascii	"b\332$\000\255b\251g#\301\304%\304\\\011qOW~dLkb\241"
 151      AD62A967 
 151      23C1C425 
 151      C45C0971 
 151      4F577E64 
 152 00ee 089F9835 		.ascii	"\010\237\2305\233UL5\246\337\254\324\240\266m\346\266"
 152      9B554C35 
 152      A6DFACD4 
 152      A0B66DE6 
 152      B6
 153 00ff 3465D4CE 		.ascii	"4e\324\316>);\237Y\\b\204y$i\025\223\015\267+1\242\322"
 153      3E293B9F 
 153      595C6284 
 153      79246915 
 153      930DB72B 
 154 0116 7DED72AA 		.ascii	"}\355r\252{\020\227\202\331\231\327\313&\367\335\226"
 154      7B109782 
 154      D999D7CB 
 154      26F7DD96 
 155 0126 AD17B2A3 		.ascii	"\255\027\262\243\263\352\370\037\326^\274\364\324\306"
 155      B3EAF81F 
 155      D65EBCF4 
 155      D4C6
 156 0134 89B67333 		.ascii	"\211\266s3\347\227q\021\027\362%U\271\270\211\034\026"
 156      E7977111 
 156      17F22555 
 156      B9B8891C 
 156      16
 157 0145 C45CBFBD 		.ascii	"\304\\\277\275[/>\213\015.\330\336\220=TD%\215\242?"
 157      5B2F3E8B 
 157      0D2ED8DE 
 157      903D5444 
 157      258DA23F 
 158 0159 58C520BD 		.ascii	"X\305 \275G\301&\264\231*/\275:SaiUT\223\236\226Ba\021"
 158      47C126B4 
 158      992A2FBD 
 158      3A536169 
 158      5554939E 
 159 0171 39924142 		.ascii	"9\222AB\366e\262\251o\323\215_@~\027\250\372\350\351"
 159      F665B2A9 
 159      6FD38D5F 
 159      407E17A8 
 159      FAE8E9
 160 0184 8308085B 		.ascii	"\203\010\010[\010\267\376\004r\333Q\331o oS\240\277"
 160      08B7FE04 
 160      72DB51D9 
 160      6F206F53 
ARM GAS  C:\Users\victo\AppData\Local\Temp\ccGQdaR9.s 			page 12


 160      A0BF
 161 0196 096E6F46 		.ascii	"\011noFp'\"p#\202\245\377!\270\033\021xJ\320@\276\276"
 161      70272270 
 161      2382A5FF 
 161      21B81B11 
 161      784AD040 
 162 01ac 72201293 		.ascii	"r \022\223^\030\364\242d\200m\003\231}\301\211`\354"
 162      5E18F4A2 
 162      64806D03 
 162      997DC189 
 162      60EC
 163 01be 68363876 		.ascii	"h68vdx\364\344\330H\220\031\032\036\335\2733sx\367\301"
 163      6478F4E4 
 163      D8489019 
 163      1A1EDDBB 
 163      337378F7 
 164 01d3 430323D4 		.ascii	"C\003#\324\223\035\337\037\214\3579\225\015~\000E\252"
 164      931DDF1F 
 164      8CEF3995 
 164      0D7E0045 
 164      AA
 165 01e4 E055     		.ascii	"\340U"
 166              		.text
 167              		.section	.gnu.lto_UART_PutHexInt.91bc92b3,"",%progbits
 168 0000 789C854F 		.ascii	"x\234\205OK(\204Q\030\375\316w\315?\177F\221\3254+%"
 168      4B288451 
 168      18FDCE77 
 168      CD3F7F46 
 168      91D5342B 
 169 0015 59280B59 		.ascii	"Y(\013YZ\220\005Vd\330MI\374[S\323\250\331L\3560\036"
 169      5A900556 
 169      64D84D49 
 169      FC5B53D3 
 169      A8D94CEE 
 170 002b 2B297964 		.ascii	"+)yd!\205\274\037e\247Y\374{5\013\026#i\224\250\261"
 170      2185BC1F 
 170      65A759FC 
 170      7B350B16 
 170      236994A8 
 171 0040 1186C624 		.ascii	"\021\206\306$\361\335\231\245\205\333\275\337\253s\276"
 171      F1DD99A5 
 171      85DBBDDF 
 171      AB73BE
 172 004f 73AEA2BF 		.ascii	"s\256\242\277' /\001\242&\311P\004^H\313\300f\300\024"
 172      27202F01 
 172      A226C950 
 172      045E48CB 
 172      C066C014 
 173 0063 049A604C 		.ascii	"\004\232`L\340\211_\031\013\356\301\252\257q[k\375\362"
 173      E0895F19 
 173      0BEEC1AA 
 173      AF715B6B 
 173      FDF2
 174 0075 56F04FFB 		.ascii	"V\360O\373\213L\224\347\362\032\354\240Q \033\347\317"
 174      8B4C94E7 
 174      F21AECA0 
 174      51201BE7 
ARM GAS  C:\Users\victo\AppData\Local\Temp\ccGQdaR9.s 			page 13


 174      CF
 175 0086 2FD5AA1E 		.ascii	"/\325\252\036$\365\305\375g\276*\307EF\215i\3272\217"
 175      24F5C5FD 
 175      67BE2AC7 
 175      45468D69 
 175      D7328F
 176 0099 EFCAB4CC 		.ascii	"\357\312\264\314\246M\274}\334\331\015\233ZO\272\251"
 176      A64DBC7D 
 176      DCD90D9B 
 176      5A4FBAA9 
 177 00a9 53DD2E73 		.ascii	"S\335.s\205](\331\207=\004\260\217\000\311\210p\200"
 177      855D28D9 
 177      873D04B0 
 177      8F00C988 
 177      7080
 178 00bb 06037F4D 		.ascii	"\006\003\177M~g|VR\264k\312\2328\204%\266\351\244\326"
 178      7E677C56 
 178      52B46BCA 
 178      9A388425 
 178      B6E9A4D6 
 179 00cf D53F3F67 		.ascii	"\325??g\017\213\271\026e\003\006\317\302\254P\022<\226"
 179      0F8BB916 
 179      650306CF 
 179      C2AC5012 
 179      3C96
 180 00e1 09440F42 		.ascii	"\011D\017B0\277y\024i\311\352\006S\331\231t\252\322"
 180      30BF7914 
 180      69C9EA06 
 180      53D99974 
 180      AAD2
 181 00f3 EC283017 		.ascii	"\354(0\027d=cki\371\320c\374Y6\341H\344o0y\355-C\224"
 181      643D636B 
 181      69F9D063 
 181      FC5936E1 
 181      48E46F30 
 182 010c A0E81615 		.ascii	"\240\350\026\025\2463n\326\257\346\2179\376\245\347"
 182      A6336ED6 
 182      AFE68F39 
 182      FEA5E7
 183 011b B45D646F 		.ascii	"\264]do\236\305\010\216\021'A\026\331.1g/\333\312\\"
 183      9EC5088E 
 183      11274116 
 183      D92E3167 
 183      2FDBCA5C 
 184 012f B9F88F7B 		.ascii	"\271\370\217{R\342Z\206\233E\302]\351-\201\3118\207"
 184      52E25A86 
 184      9B45C25D 
 184      E92D81C9 
 184      3887
 185 0141 712CFEEB 		.ascii	"q,\376\353\232C]\316\230\023\031\216:\243C\301\360x"
 185      9A435DCE 
 185      9813198E 
 185      3AA343C1 
 185      F078
 186 0153 64C409F5 		.ascii	"d\304\011\365\005\303\235\255\241\301\216\376\201\346"
 186      05C39DAD 
 186      A1C18EFE 
ARM GAS  C:\Users\victo\AppData\Local\Temp\ccGQdaR9.s 			page 14


 186      81E6
 187 0161 11B2A3B1 		.ascii	"\021\262\243\261n'\3263\026\375\005\336\306\222@"
 187      6E27D633 
 187      16FD05DE 
 187      C69240
 188              		.text
 189              		.section	.gnu.lto_UART_PutCRLF.91bc92b3,"",%progbits
 190 0000 789C6366 		.ascii	"x\234cf\300\004R@\374\031\210\225\200\230\221\231\201"
 190      C0045240 
 190      FC198895 
 190      80989199 
 190      81
 191 0011 9169C239 		.ascii	"\221i\3029\006\206F\016&FF\020\203\201\221\241\236\211"
 191      0686460E 
 191      26464610 
 191      838191A1 
 191      9E89
 192 0023 B19EF125 		.ascii	"\261\236\361%\323G&\306\011\007V\317\340V_\332\320\320"
 192      D34726C6 
 192      090756CF 
 192      E0565FDA 
 192      D0D0
 193 0035 F0E1D05F 		.ascii	"\360\341\320_\211V\211\237L@\255L\020c\030\2273\252"
 193      8956899F 
 193      4C40AD4C 
 193      10631897 
 193      33AA
 194 0047 3300D57C 		.ascii	"3\000\325|l\371{\235\233\255\005\250F\000\"\307\270"
 194      6CF97B9D 
 194      9BAD05A8 
 194      460022C7 
 194      B8
 195 0058 82918D11 		.ascii	"\202\221\215\021H\257\027:\320\360\377\377\347o\223"
 195      48AF173A 
 195      D0F0FFFF 
 195      E76F93
 196 0067 3BEC9859 		.ascii	";\354\230Y\030\030\236\000\345@\026<eb\002\321\314w"
 196      18189E00 
 196      E540163C 
 196      656202D1 
 196      CC77
 197 0079 185B0EDC 		.ascii	"\030[\016\334=\317\004R\0152f\336\345\276uL\265\277"
 197      3DCF0452 
 197      0D3266DE 
 197      E5BE754C 
 197      B5BF
 198 008b 1B3A1A38 		.ascii	"\033:\0328~21~f\002\232\300\270\222\261\026$un\367\206"
 198      7E32317E 
 198      66029AC0 
 198      B892B116 
 198      24756EF7 
 199 00a0 C7DC2F98 		.ascii	"\307\334/\230~21\36120\256b\224\372\311\304\314\000"
 199      7E3231F1 
 199      3230AE62 
 199      94FAC9C4 
 199      CC00
 200 00b2 D27D8F1F 		.ascii	"\322}\217\037\237\346\325\020\315M\247\217\\f\002k\346"
ARM GAS  C:\Users\victo\AppData\Local\Temp\ccGQdaR9.s 			page 15


 200      9FE6D510 
 200      CD4DA78F 
 200      5C66026B 
 200      E6
 201 00c3 62605C03 		.ascii	"b`\\\003\321|\217\261\361\300G\177\260f\006\220\303"
 201      D17C8FB1 
 201      F1C0477F 
 201      B0660690 
 201      C3
 202 00d4 18410E02 		.ascii	"\030A\016\002:OA/\306=5/\265(\261$5%>8\277\264(95& "
 202      3A4F412F 
 202      C63D352F 
 202      B528B124 
 202      35253E38 
 203 00ef 38DFD924 		.ascii	"8\337\331$&\3241(D/\231\001\000\311\033b\354"
 203      26D43128 
 203      442F9901 
 203      00C91B62 
 203      EC
 204              		.text
 205              		.section	.gnu.lto_.symbol_nodes.91bc92b3,"",%progbits
 206 0000 789C55CA 		.ascii	"x\234U\312\273\015\002A\014\204\341\261\275/\330\"("
 206      BB0D0241 
 206      0C84E1B1 
 206      BD2FD822 
 206      28
 207 0011 8022E702 		.ascii	"\200\"\347\002DL\005\350@\224BL\007H\0071\022\025\200"
 207      444C05E8 
 207      4094424C 
 207      07480731 
 207      121580
 208 0024 D87B04D8 		.ascii	"\330{\004\330\311\247\337\032\003p\307rj\004\0167\200"
 208      C9A7DF1A 
 208      0370C772 
 208      6A040E37 
 208      80
 209 0035 C4B12FD0 		.ascii	"\304\261/\320@q\035\251\256\023\315uf\370\357X\321+"
 209      40711DA9 
 209      AE13CD75 
 209      66F8EF58 
 209      D12B
 210 0047 4D0BA39B 		.ascii	"M\013\243\233\255\230\334L\345\244D\024\235\200\215"
 210      AD98DC4C 
 210      E5A44414 
 210      9D808D
 211 0056 C89A791E 		.ascii	"\310\232y\036\241\353\012L+v\237\367\326l14\037_\231"
 211      A1EB0A4C 
 211      2B769FF7 
 211      D66C3134 
 211      1F5F99
 212 0069 DCBF3696 		.ascii	"\334\2776\226\002\236C\353\346y\374\347\212\3130{m\342"
 212      029E43EB 
 212      E679FCE7 
 212      8ACB307B 
 212      6DE2
 213 007b 07A64E3A 		.ascii	"\007\246N:\336"
 213      DE
ARM GAS  C:\Users\victo\AppData\Local\Temp\ccGQdaR9.s 			page 16


 214              		.text
 215              		.section	.gnu.lto_.refs.91bc92b3,"",%progbits
 216 0000 789C6366 		.ascii	"x\234cf``\340d\200\000&\026\006Vf\006Vv\006\000\001"
 216      6060E064 
 216      80002616 
 216      06566606 
 216      56760600 
 217 0015 690027   		.ascii	"i\000'"
 218              		.text
 219              		.section	.gnu.lto_.decls.91bc92b3,"",%progbits
 220 0000 789C8D55 		.ascii	"x\234\215UkLTG\024\276\263w]v/\013\250?\264!M\\cBlb"
 220      6B4C5447 
 220      14BEB377 
 220      5D762F0B 
 220      A83FB421 
 221 001a 487DD4D2 		.ascii	"H}\324\322_\212X\265Mc\210\350\257\222X\212\333\302"
 221      5F8A58B5 
 221      4D6388E8 
 221      AF92588A 
 221      DBC2
 222 002c 8F825997 		.ascii	"\217\202Y\227D\376\015\017\201\202\241Hm\245\370`U\012"
 222      44FE0D0F 
 222      8182A148 
 222      6DA5F860 
 222      550A
 223 003e 282ACB43 		.ascii	"(*\313C@\240\202\340\203\012\362T\001y\354\002E\021"
 223      40A082E0 
 223      830AF254 
 223      0179EC02 
 223      4511
 224 0050 4516582C 		.ascii	"E\026X,[+\33333\367.\027\\\332Nr\366\3369{\316w\316"
 224      5B2BDB33 
 224      33F72E17 
 224      5CDA4E72 
 224      F6DE397B 
 225 0067 7CDFCC5C 		.ascii	"|\337\314\\\236\3438\235\202\343\2340\3024\034\267\037"
 225      9EE3389D 
 225      82E39C30 
 225      C2341CB7 
 225      1F
 226 0078 719C1A7C 		.ascii	"q\234\032|\301`\360\312\025rl\020_1X)X\003X+X'X\037"
 226      C160F0CA 
 226      15726C10 
 226      5F315829 
 226      5803582B 
 227 0090 D8009815 		.ascii	"\330\000\230\025L\0116\0066\016f\003\233\346\026\216"
 227      4C093606 
 227      360E6603 
 227      9BE6168E 
 228 00a0 62113358 		.ascii	"b\0213X\234#\321\267x\224\272\211+u\023G\372\020\304"
 228      9C23D1B7 
 228      7894BA89 
 228      2B751347 
 228      FA10C4
 229 00b3 386F302D 		.ascii	"8o0-X\255\330s5X\015\230\035\254\035l\225\230\243\020"
 229      58ADD873 
 229      35580D98 
ARM GAS  C:\Users\victo\AppData\Local\Temp\ccGQdaR9.s 			page 17


 229      1DAC1D6C 
 229      9598A310 
 230 00c7 F3AC6EF0 		.ascii	"\363\254n\360\310\2324\213\360\356\200\335\027\363o"
 230      C89A348B 
 230      F0EE80DD 
 230      17F36F
 231 00d6 CBF024AC 		.ascii	"\313\360$\254\326%\260\0107\236\"V\241\230\3779X%\330"
 231      D625B008 
 231      379E2256 
 231      A198FF39 
 231      5825D8
 232 00e9 1EB019B0 		.ascii	"\036\260\031\260\247\213z\2240;EL\262\356\261E\270}"
 232      A78B7A94 
 232      303B454C 
 232      B2EEB145 
 232      B87D
 233 00fb 6E7AEC06 		.ascii	"nz\354\006\323\311j,\306\353\0231\027\017\242\233R\304"
 233      D3C96A2C 
 233      C6EB1331 
 233      170FA29B 
 233      52C4
 234 010d B28B7DCA 		.ascii	"\262\213}\312\363$]\027\217I\005z\\\233\234\254\346"
 234      F3245D17 
 234      8F49057A 
 234      5C9B9CAC 
 234      E6
 235 011e 1588BC5F 		.ascii	"\025\210\274_\314\032|(l\270\2141N\301uuh>(.\257\372"
 235      CC1A7C28 
 235      6CB88C31 
 235      4EC17575 
 235      683E282E 
 236 0134 B8C7A802 		.ascii	"\270\307\250\002\255\022\3504\275)\373\026O\247N\222"
 236      AD12E834 
 236      BD29FB16 
 236      4FA74E92 
 237 0144 A7E8E939 		.ascii	"\247\350\3519\351\340\221\340\227\202q<\266eb\376=\016"
 237      E9E091E0 
 237      9782713C 
 237      B66562FE 
 237      3D0E
 238 0156 6DF0451F 		.ascii	"m\360E\037\370r\350\012\362\2030T\2006p\350\022\362"
 238      F872E80A 
 238      F2833054 
 238      803670E8 
 238      12F2
 239 0168 4597912F 		.ascii	"E\227\221/\227\013\005l9\266'\357c\254D\205H@\371\210"
 239      970B056C 
 239      39B627EF 
 239      63AC4485 
 239      4840F988 
 240 017c A7114014 		.ascii	"\247\021@\024\251@\006\361C\245\246\241\331i-T\362\026"
 240      A94006F1 
 240      43A5A6A1 
 240      D9692D54 
 240      F216
 241 018e 9693C2D9 		.ascii	"\226\223\302\331]#vRX+(\310\264\334\361\272H\265\372"
 241      5D237652 
ARM GAS  C:\Users\victo\AppData\Local\Temp\ccGQdaR9.s 			page 18


 241      582B28C8 
 241      B4DCF1BA 
 241      48B5FA
 242 01a1 274C4602 		.ascii	"'LF\002^\256@\301\253\320U(r\015\212p\250\010\255\206"
 242      5EAE40C1 
 242      ABD05528 
 242      720D8A70 
 242      A808AD86 
 243 01b5 DF2F956C 		.ascii	"\337/\225l\011\316\326\262\002\025\277\231\256s\334"
 243      09CED6B2 
 243      0215BF99 
 243      AE73DC
 244 01c4 F1EB84A7 		.ascii	"\361\353\204\247\356\0346\233msO\"\177\301\2468<\347"
 244      EE1C369B 
 244      6D734F22 
 244      7FC1A638 
 244      3CE7
 245 01d6 84A59014 		.ascii	"\204\245\220\024dv5\303\221w\326M1\322A^^f\334s/\376"
 245      647635C3 
 245      9177D64D 
 245      31D2415E 
 245      5E66DC73 
 246 01ec 20C5886B 		.ascii	" \305\210kJ3yS\014\253\243A_\027\217\377v:y\206P\"C"
 246      4A337953 
 246      0CABA341 
 246      5F178FFF 
 246      763A7986 
 247 0203 2891104A 		.ascii	"(\221\020J)Bc\341\331\257\370H\002\240\034>c.\367A~"
 247      294263E1 
 247      D9AFF848 
 247      02A01C3E 
 247      632EF741 
 248 0218 BEBE422E 		.ascii	"\276\276B.%|;\252\004*\312\304x6\262\300?\273\215\374"
 248      257C3BAA 
 248      042ACAC4 
 248      7836B2C0 
 248      3FBB8DFC 
 249 022c 01AF6AFA 		.ascii	"\001\257j\372t\303\361u\340\230\344R\222+`\375\345\260"
 249      74C3F175 
 249      E098E452 
 249      922B60FD 
 249      E5B0
 250 023e 7E287621 		.ascii	"~(v!\376\330\200\222\217\242\022\215&\034\357\323 ?"
 250      FED88092 
 250      8FA2128D 
 250      261CEFD3 
 250      203F
 251 0250 81715FD2 		.ascii	"\201q_\322K\271\257\206\244\033\363\334\023x:\334\324"
 251      4BB9AF86 
 251      A41BF3DC 
 251      13783ADC 
 251      D4
 252 0261 A85AA2C6 		.ascii	"\250Z\242\306t\216\263\\#\210\011)\377#\341\3065\373"
 252      748EB35C 
 252      23880929 
 252      FF23E1C6 
 252      35FB
ARM GAS  C:\Users\victo\AppData\Local\Temp\ccGQdaR9.s 			page 19


 253 0273 034FAAA8 		.ascii	"\003O\252\250\216L\2532\033\263TTQ%\231^\231\3119\347"
 253      8E4CAB32 
 253      1BB35454 
 253      5125995E 
 253      99C939E7 
 254 0287 A54D2570 		.ascii	"\245M%p\031\011X\263\007\325\000\304o\220}\223JZ\213"
 254      190958B3 
 254      07D500C4 
 254      6F907D93 
 254      4A5A8B
 255 029a B4E28E4C 		.ascii	"\264\342\216LN;\237\244T*\230\217\210L$io\353R.\271"
 255      4E3B9FA4 
 255      542A988F 
 255      884C2469 
 255      6FEB522E 
 256 02af 1D6ED1ED 		.ascii	"\035n\321\355P\207\304\375\320\363s\345\033\037\336"
 256      5087C4FD 
 256      D0F373E5 
 256      1B1FDE
 257 02be 48B51CBB 		.ascii	"H\265\034\273:wB\000-M\260\037\252Ry\331\206\200$T/"
 257      3A774200 
 257      2D4DB01F 
 257      AA5279D9 
 257      86802454 
 258 02d3 93B35E92 		.ascii	"\223\263^\222\263\201\312\331\222\235b\027\334\255\336"
 258      B381CAD9 
 258      929D6217 
 258      DCADDE
 259 02e2 DDB687F8 		.ascii	"\335\266\207\370\001\307_'5\362\345\335^\260\274;\256"
 259      01C75F27 
 259      35F2E5DD 
 259      5EB0BC3B 
 259      AE
 260 02f3 E50D7677 		.ascii	"\345\015vw\325x\360\011\010\311O\337Zv\372,\247\035"
 260      D578F009 
 260      08C94FDF 
 260      5A76FA2C 
 260      A71D
 261 0305 B91A3A25 		.ascii	"\271\032:%W\275\017Qw\374d\274\323\323\245\256\235\235"
 261      57BD0F51 
 261      77FC64BC 
 261      D3D3A5AE 
 261      9D9D
 262 0317 ACFB807D 		.ascii	"\254\373\200}w^\335\265rqiu\316U\032\375\016\375\256"
 262      775EDDB5 
 262      72716975 
 262      CE551AFD 
 262      0EFDAE
 263 032a 15FBBD07 		.ascii	"\025\373\275\007\316F\326ojn\3425\201\262L\300\030\313"
 263      CE46D66F 
 263      6A6EE235 
 263      81B24CC0 
 263      18CB
 264 033c 9317F3DB 		.ascii	"\223\027\363\3335\324\007\355\242&D\235\343y\235\337"
 264      35D407ED 
 264      A226449D 
 264      E3799DDF 
ARM GAS  C:\Users\victo\AppData\Local\Temp\ccGQdaR9.s 			page 20


 265 034c 7B2C49FD 		.ascii	"{,I\375\003J}\263D\375\217=\023\027\325|*[\234\305Y"
 265      034A7DB3 
 265      44FD8F3D 
 265      1317D57C 
 265      2A5B9CC5 
 266 0361 5121715F 		.ascii	"Q!q_\236&\347\036\262P\213\214\373\026\211\373V\312"
 266      9E26E71E 
 266      B2508B8C 
 266      FB1689FB 
 266      56CA
 267 0373 7DC6B15B 		.ascii	"}\306\261[\031l\007\024\272zk>u\246\336s\3116\332i\033"
 267      196C0714 
 267      BA7A6B3E 
 267      75A6DE73 
 267      C936DA69 
 268 0388 6D521B09 		.ascii	"mR\033\011\203\317\206\225|\026kc(\305r\337\003\332"
 268      83CF8695 
 268      7C166B63 
 268      28C572DF 
 268      03DA
 269 039a B09A4DE9 		.ascii	"\260\232M\351\371\252\002\\\347tn#\011\250C\326A\207"
 269      F9AA025C 
 269      E7746E23 
 269      09A843D6 
 269      4187
 270 03ac D44127ED 		.ascii	"\324A'\355\340\354\324\253\032\015_\260P$\035\023\351"
 270      E0ECD4AB 
 270      1A0D5FB0 
 270      50241D13 
 270      E9
 271 03bd D48BD932 		.ascii	"\324\213\33125\235\222k\001$\312k\3733\333\333%\321"
 271      359D926B 
 271      0124CA6B 
 271      FB33DBDB 
 271      25D1
 272 03cf 1493A81B 		.ascii	"\024\223\250\033:\1778/\221N.\021,`\331z\316\325>\352"
 272      3A7F382F 
 272      914E2E11 
 272      2C60D97A 
 272      CED53EEA 
 273 03e3 028974A2 		.ascii	"\002\211t\242D\217\300\371\230I\224s\357\345#\037JC"
 273      448FC0F9 
 273      98499473 
 273      EFE5231F 
 273      4A43
 274 03f5 B78B86B7 		.ascii	"\267\213\206\267o\222N\373,I\303\023JC\217D\303lE\343"
 274      6F924EFB 
 274      2C49C313 
 274      4A438F44 
 274      C36C45E3 
 275 0409 88175FC4 		.ascii	"\210\027_\304V\321\334f\271\243\025\325\230K\227\253"
 275      56D1DC66 
 275      B9A315D5 
 275      984B97AB 
 276 0419 0159A857 		.ascii	"\001Y\250W\306E\257\304E\037\345b\246\340a\213\232\277"
 276      C645AFC4 
 276      451FE562 
ARM GAS  C:\Users\victo\AppData\Local\Temp\ccGQdaR9.s 			page 21


 276      A6E0618B 
 276      9ABF
 277 042b C950AA4F 		.ascii	"\311P\252O]\037A\024\305\364\322E&\271\031\373e\000"
 277      5D1F4114 
 277      C5F4D245 
 277      26B919FB 
 277      6500
 278 043d FD12C000 		.ascii	"\375\022\300\000\005H\261\225\335\024\370&\006P\365"
 278      0548B195 
 278      DD14F826 
 278      0650F5
 279 044c 78A2965C 		.ascii	"x\242\226\\\320Vl\256\314\357\324\232\030\004U\020Y"
 279      D0566CAE 
 279      CCEFD49A 
 279      18045510 
 279      59
 280 045d 64181609 		.ascii	"d\030\026\011\303J1\312jK\247\330\327\"\205\302\314"
 280      C34A31CA 
 280      6A4BA7D8 
 280      D72285C2 
 280      CC
 281 046e 0E4D3D60 		.ascii	"\016M=`\237\213\025\234\354c\242e\037\223\364\336\327"
 281      9F8B159C 
 281      EC63A265 
 281      1F93F4DE 
 281      D7
 282 047f 262F7278 		.ascii	"&/rx\261x\030\265\362\263\370\007\271\014\321z_4\314"
 282      B17818B5 
 282      F2B3F807 
 282      B90CD17A 
 282      5F34CC
 283 0492 78BE5E3D 		.ascii	"x\276^=\\\251]\231A\2431\326!zy\016B\370\020\015\037"
 283      5CA95D99 
 283      41A331D6 
 283      217A790E 
 283      42F8100D 
 284 04a7 412BA524 		.ascii	"A+\245$\022\335]\221\325\352!\217\256\371\267\350\372"
 284      12DD5D91 
 284      D5EA218F 
 284      AEF9B7E8 
 284      FA
 285 04b8 B2A15135 		.ascii	"\262\241Q5\357\020wb\345\224S\340\343\331\027\371F\203"
 285      EF107762 
 285      E59453E0 
 285      E3D917F9 
 285      4683
 286 04ca A555B126 		.ascii	"\245U\261&Cq\026g\351\320S\310\002\337\361\344\306\011"
 286      43711667 
 286      E9D053C8 
 286      02DFF1E4 
 286      C609
 287 04dc 8F75E771 		.ascii	"\217u\347q\233\3116gnY\023\007,e`\3020\011@\317\200"
 287      9BC93667 
 287      6E591307 
 287      2C6560C2 
 287      300940CF 
 288 04f1 1ED89EB2 		.ascii	"\036\330\236\262b\243\204$\364\034\255\341\320\030Z"
ARM GAS  C:\Users\victo\AppData\Local\Temp\ccGQdaR9.s 			page 22


 288      62A38424 
 288      F41CADE1 
 288      D0185A
 289 0500 4778785B 		.ascii	"Gxx[\220\244\346/\260\012%qO\343\310\005\014\007\034"
 289      90A4E62F 
 289      B00A2571 
 289      4FE3C805 
 289      0C071C
 290 0513 276660BA 		.ascii	"'f`\272\177:Li\211>P\301t\301Z\324v\250.\021\323=@\357"
 290      7F3A4C69 
 290      893E50C1 
 290      74C15AD4 
 290      76A82E11 
 291 052b 80178C7D 		.ascii	"\200\027\214}\031Q/(\374K\262E\307)\374\320\017\351"
 291      19512F28 
 291      FC4BB245 
 291      C729FCD0 
 291      0FE9
 292 053d 704D9632 		.ascii	"pM\2262\370\344\314\244\327\032\006O?\331\247\023\213"
 292      F8E4CCA4 
 292      D71A064F 
 292      3FD9A713 
 292      8B
 293 054e 6D6A065D 		.ascii	"mj\006]X\271\020\372\325;\320\257(\364\004\201\266Q"
 293      58B910FA 
 293      D53BD0AF 
 293      28F40481 
 293      B651
 294 0560 E8DCE6FE 		.ascii	"\350\334\346\376\\%\177\227A\217\014\326gz2h\025\231"
 294      5C257F97 
 294      418F0CD6 
 294      677A3268 
 294      1599
 295 0572 3B9AD3BF 		.ascii	";\232\323\277\241\310\246\313%x\273\034y\362\035\344"
 295      A1C8A6CB 
 295      2578BB1C 
 295      79F21DE4 
 296 0582 498A3C45 		.ascii	"I\212<E\220\247)\262%\251\277C%\277\231\311V\233\217"
 296      90A729B2 
 296      25A9BF43 
 296      25BF99C9 
 296      569B8F
 297 0595 B7B39B99 		.ascii	"\267\263\233\231<\311Y\277t\342\231B\036L\210\237\017"
 297      3CC959BF 
 297      74E29942 
 297      1E4C889F 
 297      0F
 298 05a6 9E1183C9 		.ascii	"\236\021\203\311sYLd\2241@\265{\357\001]\020\267\316"
 298      73594C64 
 298      943140B5 
 298      7BEF015D 
 298      10B7CE
 299 05b9 3F74B73E 		.ascii	"?t\267>Jo\0103\352\017\035\014\211\2161\204\353C\203"
 299      4A6F0833 
 299      EA0F1D0C 
 299      898E3184 
 299      EB4383
ARM GAS  C:\Users\victo\AppData\Local\Temp\ccGQdaR9.s 			page 23


 300 05cc 43A283B6 		.ascii	"C\242\203\266\204\206\307\032c\017\353\217\370Gp\302"
 300      8486C71A 
 300      630FEB8F 
 300      F84770C2 
 301 05dc 81C07DFB 		.ascii	"\201\300}\373\017\206\030\303\014F\335\222\341$\306"
 301      0F8618C3 
 301      0C46DD92 
 301      E124C6
 302 05eb 3F9CD388 		.ascii	"?\234\323\210\261\321\207\225\341\021a\206e\344'\300"
 302      B1D18795 
 302      E1116186 
 302      65E427C0 
 303 05fb 9B3A8363 		.ascii	"\233:\203c\214!FCd\324\267*\322\300\346M^\2227\320`"
 303      8C214643 
 303      64D4B72A 
 303      D2C0E64D 
 303      5E9237D0 
 304 0610 088BF591 		.ascii	"\010\213\365\221f{\364Gw\304\032\3654h\343Vo\231\373"
 304      667BF447 
 304      77C41AF5 
 304      3468E356 
 304      6F99FB
 305 0623 B328A356 		.ascii	"\263(\243V\232\006\355\373b\327\374\004\212\374Gg\021"
 305      9A06EDFB 
 305      62D7FC04 
 305      8AFC4767 
 305      11
 306 0634 9C9A4647 		.ascii	"\234\232FG\350\217zI/\376[6\006\004\254\370p\343\246"
 306      E88F7A49 
 306      2FFE5B36 
 306      0604ACF8 
 306      70E3A6
 307 0647 CD5B3EDA 		.ascii	"\315[>\332\372q\300'\201;\202v~\272\213[N\377?\034\031"
 307      FA71C027 
 307      813B8276 
 307      7EBA8B5B 
 307      4EFF3F1C 
 308 065c B5D31078 		.ascii	"\265\323\020x\310\240?rd\245\344\010\2166\030\367\306"
 308      C8A03F72 
 308      64A5E408 
 308      8E3618F7 
 308      C6
 309 066d 7CF7B5DE 		.ascii	"|\367\265\336\340-\271\330\364\037>\275\220\014"
 309      E02DB9D8 
 309      F41F3EBD 
 309      900C
 310              		.text
 311              		.section	.gnu.lto_.symtab.91bc92b3,"",%progbits
 312 0000 55415254 		.ascii	"UART_Start\000\000\000\000\000\000\000\000\000\000\000"
 312      5F537461 
 312      72740000 
 312      00000000 
 312      00000000 
 313 0015 00B10000 		.ascii	"\000\261\000\000\000UART_Stop\000\000\000\000\000\000"
 313      00554152 
 313      545F5374 
 313      6F700000 
ARM GAS  C:\Users\victo\AppData\Local\Temp\ccGQdaR9.s 			page 24


 313      00000000 
 314 0029 00000000 		.ascii	"\000\000\000\000\000\000\263\000\000\000UART_PutStr"
 314      0000B300 
 314      00005541 
 314      52545F50 
 314      75745374 
 315 003e 696E6700 		.ascii	"ing\000\000\000\000\000\000\000\000\000\000\000\000"
 315      00000000 
 315      00000000 
 315      000000
 316 004d C3000000 		.ascii	"\303\000\000\000UART_PutArray\000\000\000\000\000\000"
 316      55415254 
 316      5F507574 
 316      41727261 
 316      79000000 
 317 0064 00000000 		.ascii	"\000\000\000\000\000\000\317\000\000\000UART_PutHex"
 317      0000CF00 
 317      00005541 
 317      52545F50 
 317      75744865 
 318 0079 42797465 		.ascii	"Byte\000\000\000\000\000\000\000\000\000\000\000\000"
 318      00000000 
 318      00000000 
 318      00000000 
 319 0089 D3000000 		.ascii	"\323\000\000\000UART_PutHexInt\000\000\000\000\000\000"
 319      55415254 
 319      5F507574 
 319      48657849 
 319      6E740000 
 320 00a1 00000000 		.ascii	"\000\000\000\000\000\000\334\000\000\000UART_PutCRL"
 320      0000DC00 
 320      00005541 
 320      52545F50 
 320      75744352 
 321 00b6 46000000 		.ascii	"F\000\000\000\000\000\000\000\000\000\000\000\000\336"
 321      00000000 
 321      00000000 
 321      00DE
 322 00c4 00000055 		.ascii	"\000\000\000UART_pinDrAdress\000\000\000\000\000\000"
 322      4152545F 
 322      70696E44 
 322      72416472 
 322      65737300 
 323 00dd 00000000 		.ascii	"\000\000\000\000\000\000\355\000\000\000UART_pinPor"
 323      0000ED00 
 323      00005541 
 323      52545F70 
 323      696E506F 
 324 00f2 744E756D 		.ascii	"tNumber\000\000\000\000\000\000\000\000\000\000\000"
 324      62657200 
 324      00000000 
 324      00000000 
 324      0000
 325 0104 00F00000 		.ascii	"\000\360\000\000\000UART_pinNumber\000\000\000\000\000"
 325      00554152 
 325      545F7069 
 325      6E4E756D 
ARM GAS  C:\Users\victo\AppData\Local\Temp\ccGQdaR9.s 			page 25


 325      62657200 
 326 011c 00000000 		.ascii	"\000\000\000\000\000\000\000\363\000\000\000UART_Pu"
 326      000000F3 
 326      00000055 
 326      4152545F 
 326      5075
 327 012e 74436861 		.ascii	"tChar\000\000\002\000\000\000\000\000\000\000\000\000"
 327      72000002 
 327      00000000 
 327      00000000 
 327      00
 328 013f E0000000 		.ascii	"\340\000\000\000"
 329              		.text
 330              		.section	.gnu.lto_.opts,"",%progbits
 331 0000 272D666E 		.ascii	"'-fno-trapv' '-mcpu=cortex-m0' '-mthumb' '-g' '-Os'"
 331      6F2D7472 
 331      61707627 
 331      20272D6D 
 331      6370753D 
 332 0033 20272D57 		.ascii	" '-Werror' '-ffunction-sections' '-finline-function"
 332      6572726F 
 332      72272027 
 332      2D666675 
 332      6E637469 
 333 0066 73272027 		.ascii	"s' '-flto' '-ffat-lto-objects' '-fno-strict-aliasin"
 333      2D666C74 
 333      6F272027 
 333      2D666661 
 333      742D6C74 
 334 0099 672700   		.ascii	"g'\000"
 335              		.text
 336              		.cfi_sections	.debug_frame
 337              		.section	.text.UART_Start,"ax",%progbits
 338              		.align	1
 339              		.global	UART_Start
 340              		.code	16
 341              		.thumb_func
 342              		.type	UART_Start, %function
 343              	UART_Start:
 344              	.LFB0:
 345              		.file 1 ".\\Generated_Source\\PSoC4\\UART.c"
   1:.\Generated_Source\PSoC4/UART.c **** /*******************************************************************************
   2:.\Generated_Source\PSoC4/UART.c **** * File Name: UART.c
   3:.\Generated_Source\PSoC4/UART.c **** * Version 1.50
   4:.\Generated_Source\PSoC4/UART.c **** *
   5:.\Generated_Source\PSoC4/UART.c **** * Description:
   6:.\Generated_Source\PSoC4/UART.c **** *  This file provides the source code to the API for the Software Transmit UART.
   7:.\Generated_Source\PSoC4/UART.c **** *
   8:.\Generated_Source\PSoC4/UART.c **** ********************************************************************************
   9:.\Generated_Source\PSoC4/UART.c **** * Copyright 2013-2015, Cypress Semiconductor Corporation.  All rights reserved.
  10:.\Generated_Source\PSoC4/UART.c **** * You may use this file only in accordance with the license, terms, conditions,
  11:.\Generated_Source\PSoC4/UART.c **** * disclaimers, and limitations in the end user license agreement accompanying
  12:.\Generated_Source\PSoC4/UART.c **** * the software package with which this file was provided.
  13:.\Generated_Source\PSoC4/UART.c **** *******************************************************************************/
  14:.\Generated_Source\PSoC4/UART.c **** 
  15:.\Generated_Source\PSoC4/UART.c **** #include "UART_PVT.h"
  16:.\Generated_Source\PSoC4/UART.c **** 
ARM GAS  C:\Users\victo\AppData\Local\Temp\ccGQdaR9.s 			page 26


  17:.\Generated_Source\PSoC4/UART.c **** #if(UART_PIN_STATIC_MODE == 1u)
  18:.\Generated_Source\PSoC4/UART.c ****     uint32 UART_pinNumber = UART_PIN_NUMBER;
  19:.\Generated_Source\PSoC4/UART.c ****     uint32 UART_pinPortNumber = UART_PIN_PORT_NUMBER;
  20:.\Generated_Source\PSoC4/UART.c ****     #if(CY_PSOC3)
  21:.\Generated_Source\PSoC4/UART.c ****         uint32 pdata UART_pinDrAdress = UART_PIN_DR;
  22:.\Generated_Source\PSoC4/UART.c ****     #else
  23:.\Generated_Source\PSoC4/UART.c ****         uint32 UART_pinDrAdress = UART_PIN_DR;
  24:.\Generated_Source\PSoC4/UART.c ****     #endif /* (CY_PSOC3) */
  25:.\Generated_Source\PSoC4/UART.c **** #else
  26:.\Generated_Source\PSoC4/UART.c ****     uint32 UART_pinNumber;
  27:.\Generated_Source\PSoC4/UART.c ****     uint32 UART_pinPortNumber;
  28:.\Generated_Source\PSoC4/UART.c ****     #if(CY_PSOC3)
  29:.\Generated_Source\PSoC4/UART.c ****         uint32 pdata UART_pinDrAdress;
  30:.\Generated_Source\PSoC4/UART.c ****     #else
  31:.\Generated_Source\PSoC4/UART.c ****         uint32 UART_pinDrAdress;
  32:.\Generated_Source\PSoC4/UART.c ****     #endif /* (CY_PSOC3) */
  33:.\Generated_Source\PSoC4/UART.c **** #endif /* (UART_PIN_STATIC_MODE == 1u) */
  34:.\Generated_Source\PSoC4/UART.c **** 
  35:.\Generated_Source\PSoC4/UART.c **** 
  36:.\Generated_Source\PSoC4/UART.c **** #if(UART_PIN_STATIC_MODE == 1u)
  37:.\Generated_Source\PSoC4/UART.c ****     /*******************************************************************************
  38:.\Generated_Source\PSoC4/UART.c ****     * Function Name: UART_Start
  39:.\Generated_Source\PSoC4/UART.c ****     ********************************************************************************
  40:.\Generated_Source\PSoC4/UART.c ****     *
  41:.\Generated_Source\PSoC4/UART.c ****     * Summary:
  42:.\Generated_Source\PSoC4/UART.c ****     *  Empty function. Included for consistency with other
  43:.\Generated_Source\PSoC4/UART.c ****     *  components. This API is not available when PinAssignmentMethod
  44:.\Generated_Source\PSoC4/UART.c ****     *  is set to Dynamic.
  45:.\Generated_Source\PSoC4/UART.c ****     *
  46:.\Generated_Source\PSoC4/UART.c ****     * Parameters:
  47:.\Generated_Source\PSoC4/UART.c ****     *  None
  48:.\Generated_Source\PSoC4/UART.c ****     *
  49:.\Generated_Source\PSoC4/UART.c ****     * Return:
  50:.\Generated_Source\PSoC4/UART.c ****     *  None
  51:.\Generated_Source\PSoC4/UART.c ****     *
  52:.\Generated_Source\PSoC4/UART.c ****     *******************************************************************************/
  53:.\Generated_Source\PSoC4/UART.c ****     void UART_Start(void) 
  54:.\Generated_Source\PSoC4/UART.c ****     {
 346              		.loc 1 54 0
 347              		.cfi_startproc
  55:.\Generated_Source\PSoC4/UART.c **** 
  56:.\Generated_Source\PSoC4/UART.c ****     }
 348              		.loc 1 56 0
 349              		@ sp needed
 350 0000 7047     		bx	lr
 351              		.cfi_endproc
 352              	.LFE0:
 353              		.size	UART_Start, .-UART_Start
 354              		.section	.text.UART_Stop,"ax",%progbits
 355              		.align	1
 356              		.global	UART_Stop
 357              		.code	16
 358              		.thumb_func
 359              		.type	UART_Stop, %function
 360              	UART_Stop:
 361              	.LFB1:
  57:.\Generated_Source\PSoC4/UART.c **** #else
ARM GAS  C:\Users\victo\AppData\Local\Temp\ccGQdaR9.s 			page 27


  58:.\Generated_Source\PSoC4/UART.c ****     /*******************************************************************************
  59:.\Generated_Source\PSoC4/UART.c ****     * Function Name: UART_StartEx
  60:.\Generated_Source\PSoC4/UART.c ****     ********************************************************************************
  61:.\Generated_Source\PSoC4/UART.c ****     *
  62:.\Generated_Source\PSoC4/UART.c ****     * Summary:
  63:.\Generated_Source\PSoC4/UART.c ****     *  Configures the SW Tx UART to use the pin specified
  64:.\Generated_Source\PSoC4/UART.c ****     *  by the parameters. This API is only available when
  65:.\Generated_Source\PSoC4/UART.c ****     *  PinAssignmentMethod is set to Dynamic.
  66:.\Generated_Source\PSoC4/UART.c ****     *
  67:.\Generated_Source\PSoC4/UART.c ****     * Parameters:
  68:.\Generated_Source\PSoC4/UART.c ****     *  port:  Port number for dynamic pin assignment
  69:.\Generated_Source\PSoC4/UART.c ****     *  pin:   Pin number for dynamic pin assignment
  70:.\Generated_Source\PSoC4/UART.c ****     *
  71:.\Generated_Source\PSoC4/UART.c ****     * Return:
  72:.\Generated_Source\PSoC4/UART.c ****     *  None
  73:.\Generated_Source\PSoC4/UART.c ****     *
  74:.\Generated_Source\PSoC4/UART.c ****     *******************************************************************************/
  75:.\Generated_Source\PSoC4/UART.c ****     void UART_StartEx(uint8 port, uint8 pin) 
  76:.\Generated_Source\PSoC4/UART.c ****     {
  77:.\Generated_Source\PSoC4/UART.c ****         uint32 portConfigAddr;
  78:.\Generated_Source\PSoC4/UART.c **** 
  79:.\Generated_Source\PSoC4/UART.c ****         #if (CY_PSOC4)
  80:.\Generated_Source\PSoC4/UART.c ****             uint32 portDataRegAddr;
  81:.\Generated_Source\PSoC4/UART.c ****         #endif /* (CY_PSOC4) */
  82:.\Generated_Source\PSoC4/UART.c **** 
  83:.\Generated_Source\PSoC4/UART.c ****         if ((pin <= UART_MAX_PIN_NUMBER) && (port <= UART_MAX_PORT_NUMBER))
  84:.\Generated_Source\PSoC4/UART.c ****         {
  85:.\Generated_Source\PSoC4/UART.c ****             #if (!CY_PSOC4)
  86:.\Generated_Source\PSoC4/UART.c ****                 portConfigAddr = UART_PORT_CNF_BASE;
  87:.\Generated_Source\PSoC4/UART.c ****                 portConfigAddr += ((uint32)port * (UART_MAX_PIN_NUMBER + 1u)) + pin;
  88:.\Generated_Source\PSoC4/UART.c ****                 CyPins_SetPinDriveMode(portConfigAddr, CY_PINS_DM_STRONG);
  89:.\Generated_Source\PSoC4/UART.c ****                 CyPins_SetPin(portConfigAddr);
  90:.\Generated_Source\PSoC4/UART.c ****                 UART_pinDrAdress = portConfigAddr;
  91:.\Generated_Source\PSoC4/UART.c ****             #else
  92:.\Generated_Source\PSoC4/UART.c ****                 portConfigAddr = UART_PORT_CNF_BASE + (UART_PORT_CNF_SIZE * port) +
  93:.\Generated_Source\PSoC4/UART.c ****                                                                                 UART_PORT_CNF_MODE_
  94:.\Generated_Source\PSoC4/UART.c ****                 CY_SYS_PINS_SET_DRIVE_MODE(portConfigAddr, pin, CY_SYS_PINS_DM_STRONG);
  95:.\Generated_Source\PSoC4/UART.c ****                 portDataRegAddr = UART_PORT_CNF_BASE + (UART_PORT_CNF_SIZE * port) +
  96:.\Generated_Source\PSoC4/UART.c ****                                                                                 UART_PORT_CNF_DR_OF
  97:.\Generated_Source\PSoC4/UART.c ****                 CY_SYS_PINS_SET_PIN(portDataRegAddr, pin);
  98:.\Generated_Source\PSoC4/UART.c ****                 UART_pinDrAdress = portDataRegAddr;
  99:.\Generated_Source\PSoC4/UART.c ****             #endif /* (!CY_PSOC4) */
 100:.\Generated_Source\PSoC4/UART.c ****             UART_pinNumber = pin;
 101:.\Generated_Source\PSoC4/UART.c ****             UART_pinPortNumber = port;
 102:.\Generated_Source\PSoC4/UART.c ****         }
 103:.\Generated_Source\PSoC4/UART.c ****     }
 104:.\Generated_Source\PSoC4/UART.c **** #endif /* (UART_PIN_STATIC_MODE == 1u) */
 105:.\Generated_Source\PSoC4/UART.c **** 
 106:.\Generated_Source\PSoC4/UART.c **** 
 107:.\Generated_Source\PSoC4/UART.c **** /*******************************************************************************
 108:.\Generated_Source\PSoC4/UART.c **** * Function Name: UART_Stop
 109:.\Generated_Source\PSoC4/UART.c **** ********************************************************************************
 110:.\Generated_Source\PSoC4/UART.c **** *
 111:.\Generated_Source\PSoC4/UART.c **** * Summary:
 112:.\Generated_Source\PSoC4/UART.c **** *  Empty function. Included for consistency with other components.
 113:.\Generated_Source\PSoC4/UART.c **** *
 114:.\Generated_Source\PSoC4/UART.c **** * Parameters:
ARM GAS  C:\Users\victo\AppData\Local\Temp\ccGQdaR9.s 			page 28


 115:.\Generated_Source\PSoC4/UART.c **** *  None
 116:.\Generated_Source\PSoC4/UART.c **** *
 117:.\Generated_Source\PSoC4/UART.c **** * Return:
 118:.\Generated_Source\PSoC4/UART.c **** *  None
 119:.\Generated_Source\PSoC4/UART.c **** *
 120:.\Generated_Source\PSoC4/UART.c **** *******************************************************************************/
 121:.\Generated_Source\PSoC4/UART.c **** void UART_Stop(void) 
 122:.\Generated_Source\PSoC4/UART.c **** {
 362              		.loc 1 122 0
 363              		.cfi_startproc
 123:.\Generated_Source\PSoC4/UART.c **** 
 124:.\Generated_Source\PSoC4/UART.c **** }
 364              		.loc 1 124 0
 365              		@ sp needed
 366 0000 7047     		bx	lr
 367              		.cfi_endproc
 368              	.LFE1:
 369              		.size	UART_Stop, .-UART_Stop
 370              		.section	.text.UART_PutString,"ax",%progbits
 371              		.align	1
 372              		.global	UART_PutString
 373              		.code	16
 374              		.thumb_func
 375              		.type	UART_PutString, %function
 376              	UART_PutString:
 377              	.LFB2:
 125:.\Generated_Source\PSoC4/UART.c **** 
 126:.\Generated_Source\PSoC4/UART.c **** 
 127:.\Generated_Source\PSoC4/UART.c **** /*******************************************************************************
 128:.\Generated_Source\PSoC4/UART.c **** * Function Name: UART_PutString
 129:.\Generated_Source\PSoC4/UART.c **** ********************************************************************************
 130:.\Generated_Source\PSoC4/UART.c **** *
 131:.\Generated_Source\PSoC4/UART.c **** * Summary:
 132:.\Generated_Source\PSoC4/UART.c **** *  Sends a NULL terminated string via the Tx pin.
 133:.\Generated_Source\PSoC4/UART.c **** *
 134:.\Generated_Source\PSoC4/UART.c **** * Parameters:
 135:.\Generated_Source\PSoC4/UART.c **** *  string: Pointer to the null terminated string to send
 136:.\Generated_Source\PSoC4/UART.c **** *
 137:.\Generated_Source\PSoC4/UART.c **** * Return:
 138:.\Generated_Source\PSoC4/UART.c **** *  None
 139:.\Generated_Source\PSoC4/UART.c **** *
 140:.\Generated_Source\PSoC4/UART.c **** *******************************************************************************/
 141:.\Generated_Source\PSoC4/UART.c **** void UART_PutString(const char8 string[]) 
 142:.\Generated_Source\PSoC4/UART.c **** {
 378              		.loc 1 142 0
 379              		.cfi_startproc
 380              	.LVL0:
 381 0000 38B5     		push	{r3, r4, r5, lr}
 382              		.cfi_def_cfa_offset 16
 383              		.cfi_offset 3, -16
 384              		.cfi_offset 4, -12
 385              		.cfi_offset 5, -8
 386              		.cfi_offset 14, -4
 143:.\Generated_Source\PSoC4/UART.c ****     uint8 stringIndex = 1u;
 387              		.loc 1 143 0
 388 0002 0124     		mov	r4, #1
 142:.\Generated_Source\PSoC4/UART.c ****     uint8 stringIndex = 1u;
ARM GAS  C:\Users\victo\AppData\Local\Temp\ccGQdaR9.s 			page 29


 389              		.loc 1 142 0
 390 0004 051C     		mov	r5, r0
 144:.\Generated_Source\PSoC4/UART.c ****     char8 current = *string;
 391              		.loc 1 144 0
 392 0006 0078     		ldrb	r0, [r0]
 393              	.LVL1:
 394              	.L4:
 145:.\Generated_Source\PSoC4/UART.c **** 
 146:.\Generated_Source\PSoC4/UART.c ****     /* Until null is reached, print next character */
 147:.\Generated_Source\PSoC4/UART.c ****     while((char8) '\0' != current)
 395              		.loc 1 147 0
 396 0008 0028     		cmp	r0, #0
 397 000a 05D0     		beq	.L7
 148:.\Generated_Source\PSoC4/UART.c ****     {
 149:.\Generated_Source\PSoC4/UART.c ****         UART_PutChar((uint8)current);
 398              		.loc 1 149 0
 399 000c FFF7FEFF 		bl	UART_PutChar
 400              	.LVL2:
 150:.\Generated_Source\PSoC4/UART.c ****         current = string[stringIndex];
 401              		.loc 1 150 0
 402 0010 285D     		ldrb	r0, [r5, r4]
 403              	.LVL3:
 151:.\Generated_Source\PSoC4/UART.c ****         stringIndex++;
 404              		.loc 1 151 0
 405 0012 0134     		add	r4, r4, #1
 406              	.LVL4:
 407 0014 E4B2     		uxtb	r4, r4
 408              	.LVL5:
 409 0016 F7E7     		b	.L4
 410              	.L7:
 152:.\Generated_Source\PSoC4/UART.c ****     }
 153:.\Generated_Source\PSoC4/UART.c **** }
 411              		.loc 1 153 0
 412              		@ sp needed
 413              	.LVL6:
 414              	.LVL7:
 415 0018 38BD     		pop	{r3, r4, r5, pc}
 416              		.cfi_endproc
 417              	.LFE2:
 418              		.size	UART_PutString, .-UART_PutString
 419              		.section	.text.UART_PutArray,"ax",%progbits
 420              		.align	1
 421              		.global	UART_PutArray
 422              		.code	16
 423              		.thumb_func
 424              		.type	UART_PutArray, %function
 425              	UART_PutArray:
 426              	.LFB3:
 154:.\Generated_Source\PSoC4/UART.c **** 
 155:.\Generated_Source\PSoC4/UART.c **** 
 156:.\Generated_Source\PSoC4/UART.c **** /*******************************************************************************
 157:.\Generated_Source\PSoC4/UART.c **** * Function Name: UART_PutArray
 158:.\Generated_Source\PSoC4/UART.c **** ********************************************************************************
 159:.\Generated_Source\PSoC4/UART.c **** *
 160:.\Generated_Source\PSoC4/UART.c **** * Summary:
 161:.\Generated_Source\PSoC4/UART.c **** *  Sends byteCount bytes from a memory array via the Tx pin.
 162:.\Generated_Source\PSoC4/UART.c **** *
ARM GAS  C:\Users\victo\AppData\Local\Temp\ccGQdaR9.s 			page 30


 163:.\Generated_Source\PSoC4/UART.c **** * Parameters:
 164:.\Generated_Source\PSoC4/UART.c **** *  data: Pointer to the memory array
 165:.\Generated_Source\PSoC4/UART.c **** *  byteCount: Number of bytes to be transmitted
 166:.\Generated_Source\PSoC4/UART.c **** *
 167:.\Generated_Source\PSoC4/UART.c **** * Return:
 168:.\Generated_Source\PSoC4/UART.c **** *  None
 169:.\Generated_Source\PSoC4/UART.c **** *
 170:.\Generated_Source\PSoC4/UART.c **** *******************************************************************************/
 171:.\Generated_Source\PSoC4/UART.c **** void UART_PutArray(const uint8 array[], uint32 byteCount) 
 172:.\Generated_Source\PSoC4/UART.c **** {
 427              		.loc 1 172 0
 428              		.cfi_startproc
 429              	.LVL8:
 430 0000 38B5     		push	{r3, r4, r5, lr}
 431              		.cfi_def_cfa_offset 16
 432              		.cfi_offset 3, -16
 433              		.cfi_offset 4, -12
 434              		.cfi_offset 5, -8
 435              		.cfi_offset 14, -4
 436 0002 041C     		mov	r4, r0
 437 0004 4518     		add	r5, r0, r1
 438              	.LVL9:
 439              	.L9:
 173:.\Generated_Source\PSoC4/UART.c ****     uint32 arrayIndex;
 174:.\Generated_Source\PSoC4/UART.c **** 
 175:.\Generated_Source\PSoC4/UART.c ****     for (arrayIndex = 0u; arrayIndex < byteCount; arrayIndex++)
 440              		.loc 1 175 0 discriminator 1
 441 0006 AC42     		cmp	r4, r5
 442 0008 04D0     		beq	.L11
 176:.\Generated_Source\PSoC4/UART.c ****     {
 177:.\Generated_Source\PSoC4/UART.c ****         UART_PutChar(array[arrayIndex]);
 443              		.loc 1 177 0 discriminator 3
 444 000a 2078     		ldrb	r0, [r4]
 445 000c FFF7FEFF 		bl	UART_PutChar
 446              	.LVL10:
 447 0010 0134     		add	r4, r4, #1
 448              	.LVL11:
 449 0012 F8E7     		b	.L9
 450              	.L11:
 178:.\Generated_Source\PSoC4/UART.c ****     }
 179:.\Generated_Source\PSoC4/UART.c **** }
 451              		.loc 1 179 0
 452              		@ sp needed
 453              	.LVL12:
 454 0014 38BD     		pop	{r3, r4, r5, pc}
 455              		.cfi_endproc
 456              	.LFE3:
 457              		.size	UART_PutArray, .-UART_PutArray
 458              		.section	.text.UART_PutHexByte,"ax",%progbits
 459              		.align	1
 460              		.global	UART_PutHexByte
 461              		.code	16
 462              		.thumb_func
 463              		.type	UART_PutHexByte, %function
 464              	UART_PutHexByte:
 465              	.LFB4:
 180:.\Generated_Source\PSoC4/UART.c **** 
ARM GAS  C:\Users\victo\AppData\Local\Temp\ccGQdaR9.s 			page 31


 181:.\Generated_Source\PSoC4/UART.c **** 
 182:.\Generated_Source\PSoC4/UART.c **** /*******************************************************************************
 183:.\Generated_Source\PSoC4/UART.c **** * Function Name: UART_PutHexByte
 184:.\Generated_Source\PSoC4/UART.c **** ********************************************************************************
 185:.\Generated_Source\PSoC4/UART.c **** *
 186:.\Generated_Source\PSoC4/UART.c **** * Summary:
 187:.\Generated_Source\PSoC4/UART.c **** *  Sends a byte in Hex representation (two characters, uppercase for A-F) via
 188:.\Generated_Source\PSoC4/UART.c **** *  the Tx pin.
 189:.\Generated_Source\PSoC4/UART.c **** *
 190:.\Generated_Source\PSoC4/UART.c **** * Parameters:
 191:.\Generated_Source\PSoC4/UART.c **** *  TxHexByte: The byte to be converted to ASCII characters and
 192:.\Generated_Source\PSoC4/UART.c **** *             sent via the Tx pin.
 193:.\Generated_Source\PSoC4/UART.c **** *
 194:.\Generated_Source\PSoC4/UART.c **** * Return:
 195:.\Generated_Source\PSoC4/UART.c **** *  None
 196:.\Generated_Source\PSoC4/UART.c **** *
 197:.\Generated_Source\PSoC4/UART.c **** *******************************************************************************/
 198:.\Generated_Source\PSoC4/UART.c **** void UART_PutHexByte(uint8 txHexByte) 
 199:.\Generated_Source\PSoC4/UART.c **** {
 466              		.loc 1 199 0
 467              		.cfi_startproc
 468              	.LVL13:
 469 0000 38B5     		push	{r3, r4, r5, lr}
 470              		.cfi_def_cfa_offset 16
 471              		.cfi_offset 3, -16
 472              		.cfi_offset 4, -12
 473              		.cfi_offset 5, -8
 474              		.cfi_offset 14, -4
 200:.\Generated_Source\PSoC4/UART.c ****     static char8 const CYCODE UART_hex[] = "0123456789ABCDEF";
 201:.\Generated_Source\PSoC4/UART.c **** 
 202:.\Generated_Source\PSoC4/UART.c ****     UART_PutChar((uint8) UART_hex[txHexByte >> UART_BYTE_UPPER_NIBBLE_SHIFT]);
 475              		.loc 1 202 0
 476 0002 064C     		ldr	r4, .L13
 477 0004 0309     		lsr	r3, r0, #4
 199:.\Generated_Source\PSoC4/UART.c ****     static char8 const CYCODE UART_hex[] = "0123456789ABCDEF";
 478              		.loc 1 199 0
 479 0006 051C     		mov	r5, r0
 480              		.loc 1 202 0
 481 0008 E05C     		ldrb	r0, [r4, r3]
 482              	.LVL14:
 483 000a FFF7FEFF 		bl	UART_PutChar
 484              	.LVL15:
 203:.\Generated_Source\PSoC4/UART.c ****     UART_PutChar((uint8) UART_hex[txHexByte & UART_BYTE_LOWER_NIBBLE_MASK]);
 485              		.loc 1 203 0
 486 000e 0F20     		mov	r0, #15
 487 0010 2840     		and	r0, r5
 488 0012 205C     		ldrb	r0, [r4, r0]
 489 0014 FFF7FEFF 		bl	UART_PutChar
 490              	.LVL16:
 204:.\Generated_Source\PSoC4/UART.c **** }
 491              		.loc 1 204 0
 492              		@ sp needed
 493 0018 38BD     		pop	{r3, r4, r5, pc}
 494              	.L14:
 495 001a C046     		.align	2
 496              	.L13:
 497 001c 00000000 		.word	.LANCHOR0
ARM GAS  C:\Users\victo\AppData\Local\Temp\ccGQdaR9.s 			page 32


 498              		.cfi_endproc
 499              	.LFE4:
 500              		.size	UART_PutHexByte, .-UART_PutHexByte
 501              		.section	.text.UART_PutHexInt,"ax",%progbits
 502              		.align	1
 503              		.global	UART_PutHexInt
 504              		.code	16
 505              		.thumb_func
 506              		.type	UART_PutHexInt, %function
 507              	UART_PutHexInt:
 508              	.LFB5:
 205:.\Generated_Source\PSoC4/UART.c **** 
 206:.\Generated_Source\PSoC4/UART.c **** 
 207:.\Generated_Source\PSoC4/UART.c **** /*******************************************************************************
 208:.\Generated_Source\PSoC4/UART.c **** * Function Name: UART_PutHexInt
 209:.\Generated_Source\PSoC4/UART.c **** ********************************************************************************
 210:.\Generated_Source\PSoC4/UART.c **** *
 211:.\Generated_Source\PSoC4/UART.c **** * Summary:
 212:.\Generated_Source\PSoC4/UART.c **** *  Sends a 16-bit unsigned integer in Hex representation (four characters,
 213:.\Generated_Source\PSoC4/UART.c **** *  uppercase for A-F) via the Tx pin.
 214:.\Generated_Source\PSoC4/UART.c **** *
 215:.\Generated_Source\PSoC4/UART.c **** * Parameters:
 216:.\Generated_Source\PSoC4/UART.c **** *  TxHexInt: The uint16 to be converted to ASCII characters and sent via
 217:.\Generated_Source\PSoC4/UART.c **** *            the Tx pin.
 218:.\Generated_Source\PSoC4/UART.c **** *
 219:.\Generated_Source\PSoC4/UART.c **** * Return:
 220:.\Generated_Source\PSoC4/UART.c **** *  None
 221:.\Generated_Source\PSoC4/UART.c **** *
 222:.\Generated_Source\PSoC4/UART.c **** *******************************************************************************/
 223:.\Generated_Source\PSoC4/UART.c **** void UART_PutHexInt(uint16 txHexInt) 
 224:.\Generated_Source\PSoC4/UART.c **** {
 509              		.loc 1 224 0
 510              		.cfi_startproc
 511              	.LVL17:
 512 0000 10B5     		push	{r4, lr}
 513              		.cfi_def_cfa_offset 8
 514              		.cfi_offset 4, -8
 515              		.cfi_offset 14, -4
 516              		.loc 1 224 0
 517 0002 041C     		mov	r4, r0
 225:.\Generated_Source\PSoC4/UART.c ****     UART_PutHexByte((uint8)(txHexInt >> UART_U16_UPPER_BYTE_SHIFT));
 518              		.loc 1 225 0
 519 0004 000A     		lsr	r0, r0, #8
 520              	.LVL18:
 521 0006 FFF7FEFF 		bl	UART_PutHexByte
 522              	.LVL19:
 226:.\Generated_Source\PSoC4/UART.c ****     UART_PutHexByte((uint8)(txHexInt & UART_U16_LOWER_BYTE_MASK));
 523              		.loc 1 226 0
 524 000a E0B2     		uxtb	r0, r4
 525 000c FFF7FEFF 		bl	UART_PutHexByte
 526              	.LVL20:
 227:.\Generated_Source\PSoC4/UART.c **** }
 527              		.loc 1 227 0
 528              		@ sp needed
 529 0010 10BD     		pop	{r4, pc}
 530              		.cfi_endproc
 531              	.LFE5:
ARM GAS  C:\Users\victo\AppData\Local\Temp\ccGQdaR9.s 			page 33


 532              		.size	UART_PutHexInt, .-UART_PutHexInt
 533              		.section	.text.UART_PutCRLF,"ax",%progbits
 534              		.align	1
 535              		.global	UART_PutCRLF
 536              		.code	16
 537              		.thumb_func
 538              		.type	UART_PutCRLF, %function
 539              	UART_PutCRLF:
 540              	.LFB6:
 228:.\Generated_Source\PSoC4/UART.c **** 
 229:.\Generated_Source\PSoC4/UART.c **** 
 230:.\Generated_Source\PSoC4/UART.c **** /*******************************************************************************
 231:.\Generated_Source\PSoC4/UART.c **** * Function Name: UART_PutCRLF
 232:.\Generated_Source\PSoC4/UART.c **** ********************************************************************************
 233:.\Generated_Source\PSoC4/UART.c **** *
 234:.\Generated_Source\PSoC4/UART.c **** * Summary:
 235:.\Generated_Source\PSoC4/UART.c **** *  Sends a carriage return (0x0D) and a line feed (0x0A) via the Tx pin.
 236:.\Generated_Source\PSoC4/UART.c **** *
 237:.\Generated_Source\PSoC4/UART.c **** * Parameters:
 238:.\Generated_Source\PSoC4/UART.c **** *  None
 239:.\Generated_Source\PSoC4/UART.c **** *
 240:.\Generated_Source\PSoC4/UART.c **** * Return:
 241:.\Generated_Source\PSoC4/UART.c **** *  None
 242:.\Generated_Source\PSoC4/UART.c **** *
 243:.\Generated_Source\PSoC4/UART.c **** *******************************************************************************/
 244:.\Generated_Source\PSoC4/UART.c **** void UART_PutCRLF(void) 
 245:.\Generated_Source\PSoC4/UART.c **** {
 541              		.loc 1 245 0
 542              		.cfi_startproc
 543 0000 08B5     		push	{r3, lr}
 544              		.cfi_def_cfa_offset 8
 545              		.cfi_offset 3, -8
 546              		.cfi_offset 14, -4
 246:.\Generated_Source\PSoC4/UART.c ****     UART_PutChar(0x0Du);
 547              		.loc 1 246 0
 548 0002 0D20     		mov	r0, #13
 549 0004 FFF7FEFF 		bl	UART_PutChar
 550              	.LVL21:
 247:.\Generated_Source\PSoC4/UART.c ****     UART_PutChar(0x0Au);
 551              		.loc 1 247 0
 552 0008 0A20     		mov	r0, #10
 553 000a FFF7FEFF 		bl	UART_PutChar
 554              	.LVL22:
 248:.\Generated_Source\PSoC4/UART.c **** }
 555              		.loc 1 248 0
 556              		@ sp needed
 557 000e 08BD     		pop	{r3, pc}
 558              		.cfi_endproc
 559              	.LFE6:
 560              		.size	UART_PutCRLF, .-UART_PutCRLF
 561              		.global	UART_pinDrAdress
 562              		.global	UART_pinPortNumber
 563              		.global	UART_pinNumber
 564              		.section	.rodata
 565              		.set	.LANCHOR0,. + 0
 566              		.type	UART_hex.4188, %object
 567              		.size	UART_hex.4188, 17
ARM GAS  C:\Users\victo\AppData\Local\Temp\ccGQdaR9.s 			page 34


 568              	UART_hex.4188:
 569 0000 30313233 		.ascii	"0123456789ABCDEF\000"
 569      34353637 
 569      38394142 
 569      43444546 
 569      00
 570              		.data
 571              		.align	2
 572              		.type	UART_pinDrAdress, %object
 573              		.size	UART_pinDrAdress, 4
 574              	UART_pinDrAdress:
 575 0000 00020440 		.word	1074004480
 576              		.type	UART_pinPortNumber, %object
 577              		.size	UART_pinPortNumber, 4
 578              	UART_pinPortNumber:
 579 0004 02000000 		.word	2
 580              		.type	UART_pinNumber, %object
 581              		.size	UART_pinNumber, 4
 582              	UART_pinNumber:
 583 0008 06000000 		.word	6
 584              		.text
 585              	.Letext0:
 586              		.file 2 ".\\Generated_Source\\PSoC4\\cytypes.h"
 587              		.file 3 ".\\Generated_Source\\PSoC4\\UART.h"