ARM GAS  C:\Users\victo\AppData\Local\Temp\ccnpFI2s.s 			page 1


   1              		.cpu cortex-m0
   2              		.fpu softvfp
   3              		.eabi_attribute 20, 1
   4              		.eabi_attribute 21, 1
   5              		.eabi_attribute 23, 3
   6              		.eabi_attribute 24, 1
   7              		.eabi_attribute 25, 1
   8              		.eabi_attribute 26, 1
   9              		.eabi_attribute 30, 4
  10              		.eabi_attribute 34, 0
  11              		.eabi_attribute 18, 4
  12              		.code	16
  13              		.file	"UART_PM.c"
  14              		.text
  15              	.Ltext0:
  16              		.section	.gnu.lto_.profile.797e49ea,"",%progbits
  17 0000 789C6366 		.ascii	"x\234cf```a\200\000F\006\005\036\000\000\300\0005"
  17      60606061 
  17      80004606 
  17      051E0000 
  17      C00035
  18              		.text
  19              		.section	.gnu.lto_.jmpfuncs.797e49ea,"",%progbits
  20 0000 789C6366 		.ascii	"x\234cf\300\016\270\2404\023\234\000\000\001z\000\022"
  20      C00EB8A0 
  20      34139C00 
  20      00017A00 
  20      12
  21              		.text
  22              		.section	.gnu.lto_.inline.797e49ea,"",%progbits
  23 0000 789C6366 		.ascii	"x\234cf\300\016\214\2404\023\003\003'7#\003\023\327"
  23      C00E8CA0 
  23      34130303 
  23      27372303 
  23      13D7
  24 0012 043F06B6 		.ascii	"\004?\006\266\005\362L 1F.\260\004;'P\234\355\203\036"
  24      05F24C20 
  24      31462EB0 
  24      043B2750 
  24      9CED831E 
  25 0026 AA380300 		.ascii	"\2528\003\000s4\004\024"
  25      73340414 
  26              		.text
  27              		.section	.gnu.lto_.pureconst.797e49ea,"",%progbits
  28 0000 789C6366 		.ascii	"x\234cf```e\200\000&\006)&\011\000\000\371\000?"
  28      60606065 
  28      80002606 
  28      29260900 
  28      00F9003F 
  29              		.text
  30              		.section	.gnu.lto_UART_Sleep.797e49ea,"",%progbits
  31 0000 789C6551 		.ascii	"x\234eQ\317KTQ\024>\337\271w\336\214ND\270\022\0037"
  31      CF4B5451 
  31      143EDFB9 
  31      77DE8C4E 
  31      44B81203 
  32 0015 FD7093B6 		.ascii	"\375p\223\266\250\177 \\\010\201 Y\273\001\011\233\255"
ARM GAS  C:\Users\victo\AppData\Local\Temp\ccnpFI2s.s 			page 2


  32      A87F205C 
  32      08812059 
  32      BB01099B 
  32      AD
  33 0026 82E472F0 		.ascii	"\202\344r\360\276\346E\021Q:\030\214d\355\252\2511-"
  33      BEE64511 
  33      513A188C 
  33      64EDAAA9 
  33      312D
  34 0038 A528DD3C 		.ascii	"\245(\335<ZD\024\026!\026\211\250\201A\355R!y\210\351"
  34      5A441416 
  34      211689A8 
  34      8141ED52 
  34      217988E9 
  35 004c 39EFB990 		.ascii	"9\357\271\220z\360\356}\347\273\337\371\316\367\276"
  35      7AF0EE7D 
  35      E7BBDFF9 
  35      CEF7BE
  36 005b 6BE8FFE7 		.ascii	"k\350\377\347\224\274\233 :&;R\004\036\374H\344g\230"
  36      94BC9B20 
  36      3A263B52 
  36      041EFC48 
  36      E46798
  37 006e CD7423B9 		.ascii	"\315t#\271Z\373\345$\271\003\0066\201-\240\037\004\032"
  37      5AFBE524 
  37      B9030636 
  37      812DA01F 
  37      041A
  38 0080 60633180 		.ascii	"`c1\200_\274\306\030\014\253\345l\323\003\347\334\357"
  38      5FBCC618 
  38      0CABE56C 
  38      D303E7DC 
  38      EF
  39 0091 D254FDD5 		.ascii	"\322T\375\325\372\210\21168\321\307#4\221p\326\202\355"
  39      FA888936 
  39      38D1C723 
  39      349170D6 
  39      82ED
  40 00a3 AF592F10 		.ascii	"\257Y/\020\316\241\344\014\025x2\227&\352B\267\2633"
  40      CEA1E40C 
  40      15783297 
  40      26EA42B7 
  40      B333
  41 00b5 353BF4EE 		.ascii	"5;\364\3568\327\030\212\030V\026N\311b<Y,\321\252\360"
  41      38D7188A 
  41      1856164E 
  41      C9623C59 
  41      2CD1AAF0 
  42 00c9 75EC0F66 		.ascii	"u\354\017f\335\315\002\336\374\271\361\266\362\022\252"
  42      DDCD02DE 
  42      FCB9F1B6 
  42      F212AA
  43 00d8 B1C946E4 		.ascii	"\261\311F\344_\255\177(\231\237\034q\312\271Qgu\342"
  43      5FAD7F28 
  43      999F1C71 
  43      CAB95167 
  43      75E2
ARM GAS  C:\Users\victo\AppData\Local\Temp\ccnpFI2s.s 			page 3


  44 00ea F2EAA7CF 		.ascii	"\362\352\247\317\231\030\"-W\356\274\336\302=\334\365"
  44      9918222D 
  44      57EEBCDE 
  44      C23DDCF5 
  45 00fa 0344ECE1 		.ascii	"\003D\354\3411\032\360\004\015\342\243*(-\340\312\322"
  45      311AF004 
  45      0DE2A32A 
  45      282DE0CA 
  45      D2
  46 010b B5459B08 		.ascii	"\265E\233\010Z\321\024\244XN'uJ\240\375\202b\007c\322"
  46      5AD114A4 
  46      584E2775 
  46      4AA0FD82 
  46      620763D2 
  47 011f AB4D7B14 		.ascii	"\253M{\024ei]\372~T\001a\337\237\2735\316\205-w\335"
  47      65695DFA 
  47      7E540161 
  47      DF9FBB35 
  47      CE852D77 
  48 0134 65224E6F 		.ascii	"e\"No\353/\357\327H\307e\305\017FcSNY\031<E\001\343"
  48      EB2FEFD7 
  48      48C765C5 
  48      0F466353 
  48      4E59193C 
  49 014b EA4ACEFE 		.ascii	"\352J\316\376\216\335\236\364\232\253\222Xx\"\342\032"
  49      8EDD9EF4 
  49      9AAB9258 
  49      7822E21A 
  50 015b 4C08713D 		.ascii	"L\010q=N\025\317\320,#i\036\301\267bu\370\360\236\005"
  50      4E15CFD0 
  50      2C23691E 
  50      C1B76275 
  50      F8F09E05 
  51 016f E9F11FCE 		.ascii	"\351\361\037\316\334L\253\274\244\206\347*D\032\233"
  51      DC4CABBC 
  51      A486E72A 
  51      441A9B
  52 017e A1E946B3 		.ascii	"\241\351F\263\210b8\362\376\240\222\351_\177\265\033"
  52      886238F2 
  52      FEA092E9 
  52      5F7FB51B 
  53 018e 2C778149 		.ascii	",w\201I\024$\361l\334c\343\250\227\340\207/\316\306"
  53      1424F16C 
  53      DC63E3A8 
  53      97E0872F 
  53      CEC6
  54 01a0 3DA41701 		.ascii	"=\244\027\001E\305\304\221\226\\[\276'\337w\361r\376"
  54      45C5C491 
  54      965C5BBE 
  54      27DF77F1 
  54      72FE
  55 01b2 5257676F 		.ascii	"RWgo\177_w>\327\321\331\333z:w\341\314\271\363]\035"
  55      7F5F773E 
  55      D7D1D9DB 
  55      7A3A77E1 
  55      CCB9F35D 
  56 01c7 ED2DDDB4 		.ascii	"\355-\335\264\013\374K\2767"
ARM GAS  C:\Users\victo\AppData\Local\Temp\ccnpFI2s.s 			page 4


  56      0BFC4BBE 
  56      37
  57              		.text
  58              		.section	.gnu.lto_UART_Wakeup.797e49ea,"",%progbits
  59 0000 789C654F 		.ascii	"x\234eO\277KBQ\024>\347\334\347S2\"\232\244\301%\302"
  59      BF4B4251 
  59      143EE7DC 
  59      E7533222 
  59      9AA4C125 
  60 0015 21D4A1FE 		.ascii	"!\324\241\376\201hh\210B\2626A\302\336\252 5\212\367"
  60      81686888 
  60      42B23641 
  60      C2DEAA20 
  60      358AF7
  61 0028 E50B1CA2 		.ascii	"\345\013\034\242\242)\350\307VY\232QA\203-\357/0BR\212"
  61      A229E8C7 
  61      56599A51 
  61      41832DEF 
  61      2F304252 
  62 003d 7E2C06B5 		.ascii	"~,\006\265\245\016\361\010\263{\237CP\027.\347\336\357"
  62      A50EF108 
  62      B37B9F43 
  62      50172EE7 
  62      DEEF
  63 004f 7CDFF9BE 		.ascii	"|\337\371\276\303\340\377\031\025w\012\001\206EE\007"
  63      C3E0FF19 
  63      15770A01 
  63      86454507 
  64 005f 206D9601 		.ascii	" m\226\001t\027\021+y\201\367(\325 \360^\206J\027V\020"
  64      7417112B 
  64      7981F728 
  64      D520F05E 
  64      864A1756 
  65 0074 E50310D2 		.ascii	"\345\003\020\322\304\024L\343;5\0107\315\374\266\333"
  65      C4144CE3 
  65      3B350837 
  65      CDFCB6DB 
  66 0084 77C039FF 		.ascii	"w\3009\377h\326<\253\036\213\000Z\324\235\217G\350\003"
  66      68D63CAB 
  66      1E8B005A 
  66      D49D8F47 
  66      E803
  67 0096 C16918ED 		.ascii	"\301i\030\355\232[5\004\247\277\333\303\034\252\302"
  67      9A5B3504 
  67      A7BFDBC3 
  67      1CAAC2
  68 00a5 17CE064C 		.ascii	"\027\316\006L\336\351\\\326\267\262A\346``\221\000\353"
  68      DEE95CD6 
  68      B7B241E6 
  68      60609100 
  68      EB
  69 00b6 82207D5E 		.ascii	"\202 }^\211de\017\270ru^\2558\245\346\223\230\030\267"
  69      8964650F 
  69      B872755E 
  69      AD38A5E6 
  69      939818B7 
  70 00ca 5F592F52 		.ascii	"_Y/R\352\213g\271\313\"j\313\201\002}\251\337\334\272"
ARM GAS  C:\Users\victo\AppData\Local\Temp\ccnpFI2s.s 			page 5


  70      EA8B67B9 
  70      CB226ACB 
  70      81027DA9 
  70      DFDCBA
  71 00dd DE4820F6 		.ascii	"\336H \3667\247\033\273\270\207;:\227,\206\307\230\302"
  71      37A71BBB 
  71      B8873B3A 
  71      972C86C7 
  71      98C2
  72 00ef 131CB47B 		.ascii	"\023\034\264{\337\205\215\013\325?b\221\202y\301i\332"
  72      DF858D0B 
  72      D53F6291 
  72      8279C169 
  72      DA
  73 0100 71B1807E 		.ascii	"q\261\200~\270C\343>\023\377\265\322\017\257\327\234"
  73      B843E33E 
  73      13FFB5D2 
  73      0FAFD79C 
  74 0110 72A80886 		.ascii	"r\250\010\206\247R\0162\031\203\222\227=b\306|*\367"
  74      A7520E32 
  74      19839297 
  74      3D62C67C 
  74      2AF7
  75 0122 4932FC4D 		.ascii	"I2\374M\345h\331\212\"\246\304R\252\255Q\354m\236Q7"
  75      E568D98A 
  75      22A6C452 
  75      AAAD51EC 
  75      6D9E5137 
  76 0136 AD195B03 		.ascii	"\255\031[\003rW\224\250\360\037\012D&\265\270\226\\"
  76      725794A8 
  76      F01F0A44 
  76      26B5B896 
  76      5C
  77 0147 58D216A3 		.ascii	"X\322\026\243\341\304r2\246EB\341\304\304Xd~|v.\032"
  77      E1C47232 
  77      A64542E1 
  77      C4C45864 
  77      7E7C762E 
  78 015c 9A0EC4E0 		.ascii	"\232\016\304\340\007\256\312\202z"
  78      07AECA82 
  78      7A
  79              		.text
  80              		.section	.gnu.lto_.symbol_nodes.797e49ea,"",%progbits
  81 0000 789C4DC8 		.ascii	"x\234M\310A\015\2000\024\004\321\351\376\222 \250V\320"
  81      410D8030 
  81      1404D1E9 
  81      FE9220A8 
  81      56D0
  82 0012 B3958002 		.ascii	"\263\225\200\002\002\036\212\015TT\010M\340\320\235"
  82      021E8A0D 
  82      5454084D 
  82      E0D09D
  83 0021 D3DB0036 		.ascii	"\323\333\0006\376)\031\366\007l\216se\201KFr\232\357"
  83      FE2919F6 
  83      076C8E73 
  83      65814B46 
  83      729AEF
ARM GAS  C:\Users\victo\AppData\Local\Temp\ccnpFI2s.s 			page 6


  84 0034 14D6676A 		.ascii	"\024\326gj\035\314\216\2111\352w\011ez+\274f\334\024"
  84      1DCC8E89 
  84      31EA7709 
  84      657A2BBC 
  84      66DC14
  85 0047 48       		.ascii	"H"
  86              		.text
  87              		.section	.gnu.lto_.refs.797e49ea,"",%progbits
  88 0000 789C6366 		.ascii	"x\234cf``\340f\200\000F\006FFVF& \311\000\000\001\201"
  88      6060E066 
  88      80004606 
  88      46465646 
  88      2620C900 
  89 0017 001C     		.ascii	"\000\034"
  90              		.text
  91              		.section	.gnu.lto_.decls.797e49ea,"",%progbits
  92 0000 789C8D94 		.ascii	"x\234\215\224}LSW\024\300\337y\227\226\362\350\200\214"
  92      7D4C5357 
  92      14C0DF79 
  92      9796F2E8 
  92      808C
  93 0012 044DFF2A 		.ascii	"\004M\377*\2224\333B0\321\305\370\337T\\\\b\266\020"
  93      9234DB42 
  93      30D1C5F8 
  93      DF545C5C 
  93      62B610
  94 0025 816CC948 		.ascii	"\201l\311H\010\262\227\315H(a%\213\331\037\273@\220"
  94      08B297CD 
  94      48286125 
  94      8BD91FBB 
  94      4090
  95 0037 66210C18 		.ascii	"f!\014\030(\272\205\025\001\005\204R@a|h\213\016\304"
  95      28BA8515 
  95      01058452 
  95      40617C68 
  95      8B0EC4
  96 004a 319DCA47 		.ascii	"1\235\312G\347\346\034l\222\241\213\261D\263\310\310"
  96      E7E61C6C 
  96      92A18BB1 
  96      44B3C8C8 
  97 005a ECCE3DEF 		.ascii	"\354\316=\357\225\326\371\021or\332{\336;\347w\316="
  97      95D6F911 
  97      6F72DA7B 
  97      DE3BE777 
  97      CE3D
  98 006c E7BCCB24 		.ascii	"\347\274\313$I\272\205\022\3045c\220\244y\3343\224\014"
  98      49BA8512 
  98      C4356390 
  98      A479DC33 
  98      940C
  99 007e 29BCA250 		.ascii	")\274\242P\272P\334(\036\224>\024@\031\223\036_\302"
  99      BA50DC28 
  99      1E943E14 
  99      4019931E 
  99      5FC2
 100 0090 C6ACFB26 		.ascii	"\306\254\373&\243L\240L\242$\241\314\242\314\240\314"
 100      A34CA04C 
ARM GAS  C:\Users\victo\AppData\Local\Temp\ccnpFI2s.s 			page 7


 100      A224A1CC 
 100      A2CCA0CC 
 101 00a0 A19C4119 		.ascii	"\241\234A\031D\361\243t\350\254a\024Ygx\236\301\027"
 101      44F1A374 
 101      E8AC6114 
 101      5967789E 
 101      C117
 102 00b2 F1A3757E 		.ascii	"\361\243u~\322\013\260\334\317\311uY\206\251\337\037"
 102      D20BB0DC 
 102      CFC97559 
 102      86A9DF1F 
 103 00c2 DE372FC9 		.ascii	"\3367/\311\020\247$\010\365\250\177\361\001C\325\254"
 103      10A72408 
 103      F5A87FF1 
 103      0143D5AC 
 104 00d2 C8421D58 		.ascii	"\310B\035X\371\273\307\270\256\201\213U\316\023d\310"
 104      F9BBC7B8 
 104      AE818B55 
 104      CE1364C8 
 105 00e2 48821360 		.ascii	"H\202\023`\201v\260 \261\003\326\341\357\373Q\032\351"
 105      8176B020 
 105      B103D6E1 
 105      EFFB511A 
 105      E9
 106 00f3 D19FADE3 		.ascii	"\321\237\255\343\012\223A\354[\032\027f\224\324N\364"
 106      0A9341EC 
 106      5B1A1766 
 106      94D44EF4 
 107 0103 7272DF12 		.ascii	"rr\337\022\204\303-\237\274S\021km\342.O\240\253\357"
 107      84C32D9F 
 107      BC53116B 
 107      6DE22E4F 
 107      A0ABEF
 108 0116 203BC25D 		.ascii	" ;\302]\245\374Q0\010\004\203N`p\022R\205\255\330\223"
 108      A5FC5130 
 108      0804834E 
 108      60701252 
 108      85ADD893 
 109 012a 13748115 		.ascii	"\023t\201\025\035\027\273O\334\216c[\211~\314?\3501"
 109      1D17BB4F 
 109      DC8E635B 
 109      897ECC3F 
 109      E831
 110 013c 11C4E56D 		.ascii	"\021\304\345m3\266s_0\370\006\371wG\370w\207\374\335"
 110      33B6735F 
 110      30F806F9 
 110      7747F877 
 110      87FCDD
 111 014f E47FBCAE 		.ascii	"\344\177\274\256\364\366Kl'\371\317\256N\017\307\241"
 111      F4F64B6C 
 111      27F9CFAE 
 111      4E0FC7A1 
 112 015f FF3CF734 		.ascii	"\377<\3674\375\361\311\021\336\034\231CO\004\243'\304"
 112      FDF1C911 
 112      DE1C9943 
 112      4F04A327 
 112      C4
ARM GAS  C:\Users\victo\AppData\Local\Temp\ccnpFI2s.s 			page 8


 113 0170 F010A377 		.ascii	"\360\020\243wi\341.cvbLt^;k \206\353\327\226\203\326"
 113      69E12E63 
 113      76624C74 
 113      5E3B6B20 
 113      86EBD796 
 114 0186 88247A23 		.ascii	"\210$z#\000\275!@\037\001:K\333\032\200}J\2009oe\245"
 114      00BD2140 
 114      1F013A4B 
 114      DB1A807D 
 114      4A80396F 
 115 019c 89550329 		.ascii	"\211U\003)\245\307G\252\242\261\354I\012U\251z\352\350"
 115      A5C747AA 
 115      A2B1EC49 
 115      0A55A97A 
 115      EAE8
 116 01ae 18233528 		.ascii	"\030#5(^\313\327\257\327\2570PlN\316\313x\240\216\263"
 116      5ECBD7AF 
 116      D7AF3050 
 116      6C4ECECB 
 116      78A08EB3 
 117 01c2 F512A45A 		.ascii	"\365\022\244Z\340U\213\004\337\202\015\315( \234\306"
 117      E0558B04 
 117      DF820DCD 
 117      28209CC6 
 118 01d2 CE0C6067 		.ascii	"\316\014`gZ\261\356\201\256\012\367\356r\276\015\006"
 118      5AB1EE81 
 118      AE0AF7EE 
 118      72BE0D06 
 119 01e2 4181536B 		.ascii	"A\201Sk)Q\004\275\027^\367t\243\211\015P\006\254\372"
 119      295104BD 
 119      175EF774 
 119      A3890D50 
 119      06ACFA
 120 01f5 7EE9783C 		.ascii	"~\351x<lH\264\2710F\240\351\374\275\367\226\313x\325"
 120      6C48B4B9 
 120      3046A0E9 
 120      FCBDF796 
 120      CB78D5
 121 0208 7A721F42 		.ascii	"zr\037B\367\021H\014\205|E\364\3765\374\221j\305\\\004"
 121      F711480C 
 121      857C45F4 
 121      FE35FC91 
 121      6AC55C04 
 122 021c CA304A28 		.ascii	"\3120J(\037\211\0141\026\214bb\303\260\201\202\211\204"
 122      1F890C31 
 122      168C6262 
 122      C3B08182 
 122      8984
 123 022e E6475B8C 		.ascii	"\346G[\214\034\304k)T\236P&\362\364\227m\355\012$\332"
 123      1CC46B29 
 123      549E5026 
 123      F2F4976D 
 123      ED0A24DA 
 124 0242 9EE4C159 		.ascii	"\236\344\301Y\304<\023\351\3157\301\031|\331\037>\237"
 124      C43C13E9 
 124      CD37C119 
 124      7CD91F3E 
ARM GAS  C:\Users\victo\AppData\Local\Temp\ccnpFI2s.s 			page 9


 124      9F
 125 0253 E0870E78 		.ascii	"\340\207\016x\347\206\277>\236\235\323J\\_\273z3v\313"
 125      E786BF3E 
 125      9E9DD34A 
 125      5C5FBB7A 
 125      3376CB
 126 0266 29EE7469 		.ascii	")\356ti>\010\022\005\243i\255\012\316\306\2454s\227"
 126      3E081205 
 126      A369AD0A 
 126      CEC6A534 
 126      7397
 127 0278 2BD035BC 		.ascii	"+\3205\274\000\207\261\251\234\213v\222\241W\203\257"
 127      0087B1A9 
 127      9C8B7692 
 127      A15783AF 
 128 0288 1DD02B7A 		.ascii	"\035\320+z\012>\330\"\301\030\244\240\373\220\373\301"
 128      0A3ED822 
 128      C118A4A0 
 128      FB90FBC1 
 129 0298 A558FA84 		.ascii	"\245X\372\204\254\2026\\7\331h\244O(J\024\266\356\237"
 129      AC82365C 
 129      37D968A4 
 129      4F284A14 
 129      B6EE9F
 130 02ab 7B5764B0 		.ascii	"{Wd\260X\224F\374\026\036\342\005\363Y\220\301\004("
 130      589446FC 
 130      161EE205 
 130      F35990C1 
 130      0428
 131 02bd 92D07DCE 		.ascii	"\222\320}\316\332c;\235\377\212{'\370E4=v\212\032\324"
 131      DA633B9D 
 131      FF8A7B27 
 131      F845343D 
 131      768A1AD4 
 132 02d1 94F398B7 		.ascii	"\224\363\230\267$8\207\015=O\237\232x#\3018\352\337"
 132      2438870D 
 132      3D4F9F9A 
 132      7823C138 
 132      EADF
 133 02e3 A12E548C 		.ascii	"\241.T\214t\370\320\324\327\321\3542\235/\252\271\342"
 133      74F8D0D4 
 133      D7D1EC32 
 133      9D2FAAB9 
 133      E2
 134 02f4 D02F2688 		.ascii	"\320/&\210\261\330,\2254%e5\011\341*~\217\225\233\204"
 134      B1D82C95 
 134      34256535 
 134      09E12A7E 
 134      8F959B84 
 135 0308 18445C44 		.ascii	"\030D\\D\304\024\"\032\271\211\236\264\3227\272M\354"
 135      C414221A 
 135      B9899EB4 
 135      D237BA4D 
 135      EC
 136 0319 E1823EAD 		.ascii	"\341\202>\255\332\022\371i6\342\007\3039\353\006\376"
 136      DA12F969 
 136      36E207C3 
ARM GAS  C:\Users\victo\AppData\Local\Temp\ccnpFI2s.s 			page 10


 136      39EB06FE 
 137 0329 32B099C7 		.ascii	"2\260\231\307'6Y\233\330\337\276Zi\215!U\034%^<Z\370"
 137      2736599B 
 137      D8DFBE5A 
 137      698D2155 
 137      1C255E3C 
 138 033f C93F1ACD 		.ascii	"\311?\032\315~&s\371n}Y0\026l\2126\232\343\332h^\305"
 138      7E2673F9 
 138      6E7D5930 
 138      166C8A36 
 138      9AE3DA68 
 139 0355 D9FA31DC 		.ascii	"\331\3721\334\272d}4i\312\377W\001\270\202'H\326\347"
 139      BA647D34 
 139      69CAFF57 
 139      01B88227 
 139      48D6E7
 140 0368 FC123EBC 		.ascii	"\374\022>\274\254\265n\250\341\352\005Eq\212\333\351"
 140      ACB56EA8 
 140      E1EA0545 
 140      718ADBE9 
 141 0378 C53C645F 		.ascii	"\305<d_\177\315\252Y\317d\276\252\277U\346<\012f0\223"
 141      7FCDAA59 
 141      CF64BEAA 
 141      BF55E63C 
 141      0A663093 
 142 038c 1FC2995C 		.ascii	"\037\302\231\\\203p*O\202\247\237\236\312\342\255oV"
 142      83702A4F 
 142      82A79F9E 
 142      CAE2AD6F 
 142      56
 143 039d 8DE6CFD7 		.ascii	"\215\346\317\327\222'h\270\203\263`\246\233\000\377"
 143      922768B8 
 143      83B360A6 
 143      9B00FF
 144 03ac D178FE66 		.ascii	"\321x\376fy\207!\322XLZ\330xN7\236#\343\033\027G\374"
 144      798721D2 
 144      584C5AD8 
 144      784E379E 
 144      23E31B17 
 145 03c2 4AA4B1B8 		.ascii	"J\244\261\270f\302\306~0\207\022\307\255\244do\337\223"
 145      66C2C67E 
 145      308712C7 
 145      ADA4646F 
 145      DF93
 146 03d4 959B59A0 		.ascii	"\225\233Y\240\252E\306]\357d[\323\245\224\264\234]j"
 146      AA45C65D 
 146      EF645BD3 
 146      A594B49C 
 146      5D6A
 147 03e6 A15A9CE7 		.ascii	"\241Z\234\347P?\310\315\264\227\024\347\2539\031\231"
 147      503FC8CD 
 147      B49714E7 
 147      AB391999 
 148 03f6 F6F4D773 		.ascii	"\366\364\327s\3104\343\355\264|)\226\266\357\346\355"
 148      C834E3ED 
 148      B47C2996 
 148      B6EFE6ED 
ARM GAS  C:\Users\victo\AppData\Local\Temp\ccnpFI2s.s 			page 11


 149 0406 574B8A62 		.ascii	"WK\212b4\202\303^d}\256g\332G\272\333\233\205y{\013"
 149      3482C35E 
 149      647DAE67 
 149      DA47BADB 
 149      9B85797B 
 150 041b D49769BF 		.ascii	"\324\227i\277c{\372\356\354\214\334\314\254=\331\351"
 150      637BFAEE 
 150      EC8CDCCC 
 150      AC3DD9E9 
 151 042b 5986927D 		.ascii	"Y\206\222}\205\216\255\311Ogl\314?\3408P\244~,0*\021"
 151      858EADC9 
 151      4F676CCC 
 151      3FE03850 
 151      A47E2C30 
 152 0441 321D68A4 		.ascii	"2\035h\244!\367\346\345\357/)2\344\356\260\333\013\014"
 152      21F7E6E5 
 152      EF2F2932 
 152      E4EEB0DB 
 152      0B0C
 153 0453 C5EA879B 		.ascii	"\305\352\207\2337\031\005k\363\246\377\000(\335)C"
 153      3719056B 
 153      F3A6FF00 
 153      28DD2943 
 154              		.text
 155              		.section	.gnu.lto_.symtab.797e49ea,"",%progbits
 156 0000 55415254 		.ascii	"UART_Sleep\000\000\000\000\000\000\000\000\000\000\000"
 156      5F536C65 
 156      65700000 
 156      00000000 
 156      00000000 
 157 0015 00AC0000 		.ascii	"\000\254\000\000\000UART_backup\000\000\000\000\000"
 157      00554152 
 157      545F6261 
 157      636B7570 
 157      00000000 
 158 002a 00000000 		.ascii	"\000\000\000\000\000\000\000\301\000\000\000UART_Wa"
 158      000000C1 
 158      00000055 
 158      4152545F 
 158      5761
 159 003c 6B657570 		.ascii	"keup\000\000\000\000\000\000\000\000\000\000\000\000"
 159      00000000 
 159      00000000 
 159      00000000 
 160 004c AE000000 		.ascii	"\256\000\000\000UART_Stop\000\000\002\000\000\000\000"
 160      55415254 
 160      5F53746F 
 160      70000002 
 160      00000000 
 161 0060 00000000 		.ascii	"\000\000\000\000\000\260\000\000\000UART_Enable\000"
 161      00B00000 
 161      00554152 
 161      545F456E 
 161      61626C65 
 162 0075 00020000 		.ascii	"\000\002\000\000\000\000\000\000\000\000\000\262\000"
 162      00000000 
 162      000000B2 
ARM GAS  C:\Users\victo\AppData\Local\Temp\ccnpFI2s.s 			page 12


 162      00
 163 0082 0000     		.ascii	"\000\000"
 164              		.text
 165              		.section	.gnu.lto_.opts,"",%progbits
 166 0000 272D666E 		.ascii	"'-fno-trapv' '-mcpu=cortex-m0' '-mthumb' '-g' '-Os'"
 166      6F2D7472 
 166      61707627 
 166      20272D6D 
 166      6370753D 
 167 0033 20272D57 		.ascii	" '-Werror' '-ffunction-sections' '-finline-function"
 167      6572726F 
 167      72272027 
 167      2D666675 
 167      6E637469 
 168 0066 73272027 		.ascii	"s' '-flto' '-ffat-lto-objects' '-fno-strict-aliasin"
 168      2D666C74 
 168      6F272027 
 168      2D666661 
 168      742D6C74 
 169 0099 672700   		.ascii	"g'\000"
 170              		.text
 171              		.cfi_sections	.debug_frame
 172              		.section	.text.UART_Sleep,"ax",%progbits
 173              		.align	1
 174              		.global	UART_Sleep
 175              		.code	16
 176              		.thumb_func
 177              		.type	UART_Sleep, %function
 178              	UART_Sleep:
 179              	.LFB0:
 180              		.file 1 ".\\Generated_Source\\PSoC4\\UART_PM.c"
   1:.\Generated_Source\PSoC4/UART_PM.c **** /***************************************************************************//**
   2:.\Generated_Source\PSoC4/UART_PM.c **** * \file UART_PM.c
   3:.\Generated_Source\PSoC4/UART_PM.c **** * \version 3.20
   4:.\Generated_Source\PSoC4/UART_PM.c **** *
   5:.\Generated_Source\PSoC4/UART_PM.c **** * \brief
   6:.\Generated_Source\PSoC4/UART_PM.c **** *  This file provides the source code to the Power Management support for
   7:.\Generated_Source\PSoC4/UART_PM.c **** *  the SCB Component.
   8:.\Generated_Source\PSoC4/UART_PM.c **** *
   9:.\Generated_Source\PSoC4/UART_PM.c **** * Note:
  10:.\Generated_Source\PSoC4/UART_PM.c **** *
  11:.\Generated_Source\PSoC4/UART_PM.c **** ********************************************************************************
  12:.\Generated_Source\PSoC4/UART_PM.c **** * \copyright
  13:.\Generated_Source\PSoC4/UART_PM.c **** * Copyright 2013-2016, Cypress Semiconductor Corporation.  All rights reserved.
  14:.\Generated_Source\PSoC4/UART_PM.c **** * You may use this file only in accordance with the license, terms, conditions,
  15:.\Generated_Source\PSoC4/UART_PM.c **** * disclaimers, and limitations in the end user license agreement accompanying
  16:.\Generated_Source\PSoC4/UART_PM.c **** * the software package with which this file was provided.
  17:.\Generated_Source\PSoC4/UART_PM.c **** *******************************************************************************/
  18:.\Generated_Source\PSoC4/UART_PM.c **** 
  19:.\Generated_Source\PSoC4/UART_PM.c **** #include "UART.h"
  20:.\Generated_Source\PSoC4/UART_PM.c **** #include "UART_PVT.h"
  21:.\Generated_Source\PSoC4/UART_PM.c **** 
  22:.\Generated_Source\PSoC4/UART_PM.c **** #if(UART_SCB_MODE_I2C_INC)
  23:.\Generated_Source\PSoC4/UART_PM.c ****     #include "UART_I2C_PVT.h"
  24:.\Generated_Source\PSoC4/UART_PM.c **** #endif /* (UART_SCB_MODE_I2C_INC) */
  25:.\Generated_Source\PSoC4/UART_PM.c **** 
  26:.\Generated_Source\PSoC4/UART_PM.c **** #if(UART_SCB_MODE_EZI2C_INC)
ARM GAS  C:\Users\victo\AppData\Local\Temp\ccnpFI2s.s 			page 13


  27:.\Generated_Source\PSoC4/UART_PM.c ****     #include "UART_EZI2C_PVT.h"
  28:.\Generated_Source\PSoC4/UART_PM.c **** #endif /* (UART_SCB_MODE_EZI2C_INC) */
  29:.\Generated_Source\PSoC4/UART_PM.c **** 
  30:.\Generated_Source\PSoC4/UART_PM.c **** #if(UART_SCB_MODE_SPI_INC || UART_SCB_MODE_UART_INC)
  31:.\Generated_Source\PSoC4/UART_PM.c ****     #include "UART_SPI_UART_PVT.h"
  32:.\Generated_Source\PSoC4/UART_PM.c **** #endif /* (UART_SCB_MODE_SPI_INC || UART_SCB_MODE_UART_INC) */
  33:.\Generated_Source\PSoC4/UART_PM.c **** 
  34:.\Generated_Source\PSoC4/UART_PM.c **** 
  35:.\Generated_Source\PSoC4/UART_PM.c **** /***************************************
  36:.\Generated_Source\PSoC4/UART_PM.c **** *   Backup Structure declaration
  37:.\Generated_Source\PSoC4/UART_PM.c **** ***************************************/
  38:.\Generated_Source\PSoC4/UART_PM.c **** 
  39:.\Generated_Source\PSoC4/UART_PM.c **** #if(UART_SCB_MODE_UNCONFIG_CONST_CFG || \
  40:.\Generated_Source\PSoC4/UART_PM.c ****    (UART_SCB_MODE_I2C_CONST_CFG   && (!UART_I2C_WAKE_ENABLE_CONST))   || \
  41:.\Generated_Source\PSoC4/UART_PM.c ****    (UART_SCB_MODE_EZI2C_CONST_CFG && (!UART_EZI2C_WAKE_ENABLE_CONST)) || \
  42:.\Generated_Source\PSoC4/UART_PM.c ****    (UART_SCB_MODE_SPI_CONST_CFG   && (!UART_SPI_WAKE_ENABLE_CONST))   || \
  43:.\Generated_Source\PSoC4/UART_PM.c ****    (UART_SCB_MODE_UART_CONST_CFG  && (!UART_UART_WAKE_ENABLE_CONST)))
  44:.\Generated_Source\PSoC4/UART_PM.c **** 
  45:.\Generated_Source\PSoC4/UART_PM.c ****     UART_BACKUP_STRUCT UART_backup =
  46:.\Generated_Source\PSoC4/UART_PM.c ****     {
  47:.\Generated_Source\PSoC4/UART_PM.c ****         0u, /* enableState */
  48:.\Generated_Source\PSoC4/UART_PM.c ****     };
  49:.\Generated_Source\PSoC4/UART_PM.c **** #endif
  50:.\Generated_Source\PSoC4/UART_PM.c **** 
  51:.\Generated_Source\PSoC4/UART_PM.c **** 
  52:.\Generated_Source\PSoC4/UART_PM.c **** /*******************************************************************************
  53:.\Generated_Source\PSoC4/UART_PM.c **** * Function Name: UART_Sleep
  54:.\Generated_Source\PSoC4/UART_PM.c **** ****************************************************************************//**
  55:.\Generated_Source\PSoC4/UART_PM.c **** *
  56:.\Generated_Source\PSoC4/UART_PM.c **** *  Prepares the UART component to enter Deep Sleep.
  57:.\Generated_Source\PSoC4/UART_PM.c **** *  The “Enable wakeup from Deep Sleep Mode” selection has an influence on this 
  58:.\Generated_Source\PSoC4/UART_PM.c **** *  function implementation:
  59:.\Generated_Source\PSoC4/UART_PM.c **** *  - Checked: configures the component to be wakeup source from Deep Sleep.
  60:.\Generated_Source\PSoC4/UART_PM.c **** *  - Unchecked: stores the current component state (enabled or disabled) and 
  61:.\Generated_Source\PSoC4/UART_PM.c **** *    disables the component. See SCB_Stop() function for details about component 
  62:.\Generated_Source\PSoC4/UART_PM.c **** *    disabling.
  63:.\Generated_Source\PSoC4/UART_PM.c **** *
  64:.\Generated_Source\PSoC4/UART_PM.c **** *  Call the UART_Sleep() function before calling the 
  65:.\Generated_Source\PSoC4/UART_PM.c **** *  CyPmSysDeepSleep() function. 
  66:.\Generated_Source\PSoC4/UART_PM.c **** *  Refer to the PSoC Creator System Reference Guide for more information about 
  67:.\Generated_Source\PSoC4/UART_PM.c **** *  power management functions and Low power section of this document for the 
  68:.\Generated_Source\PSoC4/UART_PM.c **** *  selected mode.
  69:.\Generated_Source\PSoC4/UART_PM.c **** *
  70:.\Generated_Source\PSoC4/UART_PM.c **** *  This function should not be called before entering Sleep.
  71:.\Generated_Source\PSoC4/UART_PM.c **** *
  72:.\Generated_Source\PSoC4/UART_PM.c **** *******************************************************************************/
  73:.\Generated_Source\PSoC4/UART_PM.c **** void UART_Sleep(void)
  74:.\Generated_Source\PSoC4/UART_PM.c **** {
 181              		.loc 1 74 0
 182              		.cfi_startproc
 183 0000 08B5     		push	{r3, lr}
 184              		.cfi_def_cfa_offset 8
 185              		.cfi_offset 3, -8
 186              		.cfi_offset 14, -4
  75:.\Generated_Source\PSoC4/UART_PM.c **** #if(UART_SCB_MODE_UNCONFIG_CONST_CFG)
  76:.\Generated_Source\PSoC4/UART_PM.c **** 
  77:.\Generated_Source\PSoC4/UART_PM.c ****     if(UART_SCB_WAKE_ENABLE_CHECK)
ARM GAS  C:\Users\victo\AppData\Local\Temp\ccnpFI2s.s 			page 14


  78:.\Generated_Source\PSoC4/UART_PM.c ****     {
  79:.\Generated_Source\PSoC4/UART_PM.c ****         if(UART_SCB_MODE_I2C_RUNTM_CFG)
  80:.\Generated_Source\PSoC4/UART_PM.c ****         {
  81:.\Generated_Source\PSoC4/UART_PM.c ****             UART_I2CSaveConfig();
  82:.\Generated_Source\PSoC4/UART_PM.c ****         }
  83:.\Generated_Source\PSoC4/UART_PM.c ****         else if(UART_SCB_MODE_EZI2C_RUNTM_CFG)
  84:.\Generated_Source\PSoC4/UART_PM.c ****         {
  85:.\Generated_Source\PSoC4/UART_PM.c ****             UART_EzI2CSaveConfig();
  86:.\Generated_Source\PSoC4/UART_PM.c ****         }
  87:.\Generated_Source\PSoC4/UART_PM.c ****     #if(!UART_CY_SCBIP_V1)
  88:.\Generated_Source\PSoC4/UART_PM.c ****         else if(UART_SCB_MODE_SPI_RUNTM_CFG)
  89:.\Generated_Source\PSoC4/UART_PM.c ****         {
  90:.\Generated_Source\PSoC4/UART_PM.c ****             UART_SpiSaveConfig();
  91:.\Generated_Source\PSoC4/UART_PM.c ****         }
  92:.\Generated_Source\PSoC4/UART_PM.c ****         else if(UART_SCB_MODE_UART_RUNTM_CFG)
  93:.\Generated_Source\PSoC4/UART_PM.c ****         {
  94:.\Generated_Source\PSoC4/UART_PM.c ****             UART_UartSaveConfig();
  95:.\Generated_Source\PSoC4/UART_PM.c ****         }
  96:.\Generated_Source\PSoC4/UART_PM.c ****     #endif /* (!UART_CY_SCBIP_V1) */
  97:.\Generated_Source\PSoC4/UART_PM.c ****         else
  98:.\Generated_Source\PSoC4/UART_PM.c ****         {
  99:.\Generated_Source\PSoC4/UART_PM.c ****             /* Unknown mode */
 100:.\Generated_Source\PSoC4/UART_PM.c ****         }
 101:.\Generated_Source\PSoC4/UART_PM.c ****     }
 102:.\Generated_Source\PSoC4/UART_PM.c ****     else
 103:.\Generated_Source\PSoC4/UART_PM.c ****     {
 104:.\Generated_Source\PSoC4/UART_PM.c ****         UART_backup.enableState = (uint8) UART_GET_CTRL_ENABLED;
 105:.\Generated_Source\PSoC4/UART_PM.c **** 
 106:.\Generated_Source\PSoC4/UART_PM.c ****         if(0u != UART_backup.enableState)
 107:.\Generated_Source\PSoC4/UART_PM.c ****         {
 108:.\Generated_Source\PSoC4/UART_PM.c ****             UART_Stop();
 109:.\Generated_Source\PSoC4/UART_PM.c ****         }
 110:.\Generated_Source\PSoC4/UART_PM.c ****     }
 111:.\Generated_Source\PSoC4/UART_PM.c **** 
 112:.\Generated_Source\PSoC4/UART_PM.c **** #else
 113:.\Generated_Source\PSoC4/UART_PM.c **** 
 114:.\Generated_Source\PSoC4/UART_PM.c ****     #if (UART_SCB_MODE_I2C_CONST_CFG && UART_I2C_WAKE_ENABLE_CONST)
 115:.\Generated_Source\PSoC4/UART_PM.c ****         UART_I2CSaveConfig();
 116:.\Generated_Source\PSoC4/UART_PM.c **** 
 117:.\Generated_Source\PSoC4/UART_PM.c ****     #elif (UART_SCB_MODE_EZI2C_CONST_CFG && UART_EZI2C_WAKE_ENABLE_CONST)
 118:.\Generated_Source\PSoC4/UART_PM.c ****         UART_EzI2CSaveConfig();
 119:.\Generated_Source\PSoC4/UART_PM.c **** 
 120:.\Generated_Source\PSoC4/UART_PM.c ****     #elif (UART_SCB_MODE_SPI_CONST_CFG && UART_SPI_WAKE_ENABLE_CONST)
 121:.\Generated_Source\PSoC4/UART_PM.c ****         UART_SpiSaveConfig();
 122:.\Generated_Source\PSoC4/UART_PM.c **** 
 123:.\Generated_Source\PSoC4/UART_PM.c ****     #elif (UART_SCB_MODE_UART_CONST_CFG && UART_UART_WAKE_ENABLE_CONST)
 124:.\Generated_Source\PSoC4/UART_PM.c ****         UART_UartSaveConfig();
 125:.\Generated_Source\PSoC4/UART_PM.c **** 
 126:.\Generated_Source\PSoC4/UART_PM.c ****     #else
 127:.\Generated_Source\PSoC4/UART_PM.c **** 
 128:.\Generated_Source\PSoC4/UART_PM.c ****         UART_backup.enableState = (uint8) UART_GET_CTRL_ENABLED;
 187              		.loc 1 128 0
 188 0002 044B     		ldr	r3, .L7
 189 0004 044A     		ldr	r2, .L7+4
 190 0006 1B68     		ldr	r3, [r3]
 191 0008 DB0F     		lsr	r3, r3, #31
 192 000a 1370     		strb	r3, [r2]
ARM GAS  C:\Users\victo\AppData\Local\Temp\ccnpFI2s.s 			page 15


 129:.\Generated_Source\PSoC4/UART_PM.c **** 
 130:.\Generated_Source\PSoC4/UART_PM.c ****         if(0u != UART_backup.enableState)
 193              		.loc 1 130 0
 194 000c 01D0     		beq	.L1
 131:.\Generated_Source\PSoC4/UART_PM.c ****         {
 132:.\Generated_Source\PSoC4/UART_PM.c ****             UART_Stop();
 195              		.loc 1 132 0
 196 000e FFF7FEFF 		bl	UART_Stop
 197              	.LVL0:
 198              	.L1:
 133:.\Generated_Source\PSoC4/UART_PM.c ****         }
 134:.\Generated_Source\PSoC4/UART_PM.c **** 
 135:.\Generated_Source\PSoC4/UART_PM.c ****     #endif /* defined (UART_SCB_MODE_I2C_CONST_CFG) && (UART_I2C_WAKE_ENABLE_CONST) */
 136:.\Generated_Source\PSoC4/UART_PM.c **** 
 137:.\Generated_Source\PSoC4/UART_PM.c **** #endif /* (UART_SCB_MODE_UNCONFIG_CONST_CFG) */
 138:.\Generated_Source\PSoC4/UART_PM.c **** }
 199              		.loc 1 138 0
 200              		@ sp needed
 201 0012 08BD     		pop	{r3, pc}
 202              	.L8:
 203              		.align	2
 204              	.L7:
 205 0014 00000740 		.word	1074200576
 206 0018 00000000 		.word	.LANCHOR0
 207              		.cfi_endproc
 208              	.LFE0:
 209              		.size	UART_Sleep, .-UART_Sleep
 210              		.section	.text.UART_Wakeup,"ax",%progbits
 211              		.align	1
 212              		.global	UART_Wakeup
 213              		.code	16
 214              		.thumb_func
 215              		.type	UART_Wakeup, %function
 216              	UART_Wakeup:
 217              	.LFB1:
 139:.\Generated_Source\PSoC4/UART_PM.c **** 
 140:.\Generated_Source\PSoC4/UART_PM.c **** 
 141:.\Generated_Source\PSoC4/UART_PM.c **** /*******************************************************************************
 142:.\Generated_Source\PSoC4/UART_PM.c **** * Function Name: UART_Wakeup
 143:.\Generated_Source\PSoC4/UART_PM.c **** ****************************************************************************//**
 144:.\Generated_Source\PSoC4/UART_PM.c **** *
 145:.\Generated_Source\PSoC4/UART_PM.c **** *  Prepares the UART component for Active mode operation after 
 146:.\Generated_Source\PSoC4/UART_PM.c **** *  Deep Sleep.
 147:.\Generated_Source\PSoC4/UART_PM.c **** *  The “Enable wakeup from Deep Sleep Mode” selection has influence on this 
 148:.\Generated_Source\PSoC4/UART_PM.c **** *  function implementation:
 149:.\Generated_Source\PSoC4/UART_PM.c **** *  - Checked: restores the component Active mode configuration.
 150:.\Generated_Source\PSoC4/UART_PM.c **** *  - Unchecked: enables the component if it was enabled before enter Deep Sleep.
 151:.\Generated_Source\PSoC4/UART_PM.c **** *
 152:.\Generated_Source\PSoC4/UART_PM.c **** *  This function should not be called after exiting Sleep.
 153:.\Generated_Source\PSoC4/UART_PM.c **** *
 154:.\Generated_Source\PSoC4/UART_PM.c **** *  \sideeffect
 155:.\Generated_Source\PSoC4/UART_PM.c **** *   Calling the UART_Wakeup() function without first calling the 
 156:.\Generated_Source\PSoC4/UART_PM.c **** *   UART_Sleep() function may produce unexpected behavior.
 157:.\Generated_Source\PSoC4/UART_PM.c **** *
 158:.\Generated_Source\PSoC4/UART_PM.c **** *******************************************************************************/
 159:.\Generated_Source\PSoC4/UART_PM.c **** void UART_Wakeup(void)
 160:.\Generated_Source\PSoC4/UART_PM.c **** {
ARM GAS  C:\Users\victo\AppData\Local\Temp\ccnpFI2s.s 			page 16


 218              		.loc 1 160 0
 219              		.cfi_startproc
 220 0000 08B5     		push	{r3, lr}
 221              		.cfi_def_cfa_offset 8
 222              		.cfi_offset 3, -8
 223              		.cfi_offset 14, -4
 161:.\Generated_Source\PSoC4/UART_PM.c **** #if(UART_SCB_MODE_UNCONFIG_CONST_CFG)
 162:.\Generated_Source\PSoC4/UART_PM.c **** 
 163:.\Generated_Source\PSoC4/UART_PM.c ****     if(UART_SCB_WAKE_ENABLE_CHECK)
 164:.\Generated_Source\PSoC4/UART_PM.c ****     {
 165:.\Generated_Source\PSoC4/UART_PM.c ****         if(UART_SCB_MODE_I2C_RUNTM_CFG)
 166:.\Generated_Source\PSoC4/UART_PM.c ****         {
 167:.\Generated_Source\PSoC4/UART_PM.c ****             UART_I2CRestoreConfig();
 168:.\Generated_Source\PSoC4/UART_PM.c ****         }
 169:.\Generated_Source\PSoC4/UART_PM.c ****         else if(UART_SCB_MODE_EZI2C_RUNTM_CFG)
 170:.\Generated_Source\PSoC4/UART_PM.c ****         {
 171:.\Generated_Source\PSoC4/UART_PM.c ****             UART_EzI2CRestoreConfig();
 172:.\Generated_Source\PSoC4/UART_PM.c ****         }
 173:.\Generated_Source\PSoC4/UART_PM.c ****     #if(!UART_CY_SCBIP_V1)
 174:.\Generated_Source\PSoC4/UART_PM.c ****         else if(UART_SCB_MODE_SPI_RUNTM_CFG)
 175:.\Generated_Source\PSoC4/UART_PM.c ****         {
 176:.\Generated_Source\PSoC4/UART_PM.c ****             UART_SpiRestoreConfig();
 177:.\Generated_Source\PSoC4/UART_PM.c ****         }
 178:.\Generated_Source\PSoC4/UART_PM.c ****         else if(UART_SCB_MODE_UART_RUNTM_CFG)
 179:.\Generated_Source\PSoC4/UART_PM.c ****         {
 180:.\Generated_Source\PSoC4/UART_PM.c ****             UART_UartRestoreConfig();
 181:.\Generated_Source\PSoC4/UART_PM.c ****         }
 182:.\Generated_Source\PSoC4/UART_PM.c ****     #endif /* (!UART_CY_SCBIP_V1) */
 183:.\Generated_Source\PSoC4/UART_PM.c ****         else
 184:.\Generated_Source\PSoC4/UART_PM.c ****         {
 185:.\Generated_Source\PSoC4/UART_PM.c ****             /* Unknown mode */
 186:.\Generated_Source\PSoC4/UART_PM.c ****         }
 187:.\Generated_Source\PSoC4/UART_PM.c ****     }
 188:.\Generated_Source\PSoC4/UART_PM.c ****     else
 189:.\Generated_Source\PSoC4/UART_PM.c ****     {
 190:.\Generated_Source\PSoC4/UART_PM.c ****         if(0u != UART_backup.enableState)
 191:.\Generated_Source\PSoC4/UART_PM.c ****         {
 192:.\Generated_Source\PSoC4/UART_PM.c ****             UART_Enable();
 193:.\Generated_Source\PSoC4/UART_PM.c ****         }
 194:.\Generated_Source\PSoC4/UART_PM.c ****     }
 195:.\Generated_Source\PSoC4/UART_PM.c **** 
 196:.\Generated_Source\PSoC4/UART_PM.c **** #else
 197:.\Generated_Source\PSoC4/UART_PM.c **** 
 198:.\Generated_Source\PSoC4/UART_PM.c ****     #if (UART_SCB_MODE_I2C_CONST_CFG  && UART_I2C_WAKE_ENABLE_CONST)
 199:.\Generated_Source\PSoC4/UART_PM.c ****         UART_I2CRestoreConfig();
 200:.\Generated_Source\PSoC4/UART_PM.c **** 
 201:.\Generated_Source\PSoC4/UART_PM.c ****     #elif (UART_SCB_MODE_EZI2C_CONST_CFG && UART_EZI2C_WAKE_ENABLE_CONST)
 202:.\Generated_Source\PSoC4/UART_PM.c ****         UART_EzI2CRestoreConfig();
 203:.\Generated_Source\PSoC4/UART_PM.c **** 
 204:.\Generated_Source\PSoC4/UART_PM.c ****     #elif (UART_SCB_MODE_SPI_CONST_CFG && UART_SPI_WAKE_ENABLE_CONST)
 205:.\Generated_Source\PSoC4/UART_PM.c ****         UART_SpiRestoreConfig();
 206:.\Generated_Source\PSoC4/UART_PM.c **** 
 207:.\Generated_Source\PSoC4/UART_PM.c ****     #elif (UART_SCB_MODE_UART_CONST_CFG && UART_UART_WAKE_ENABLE_CONST)
 208:.\Generated_Source\PSoC4/UART_PM.c ****         UART_UartRestoreConfig();
 209:.\Generated_Source\PSoC4/UART_PM.c **** 
 210:.\Generated_Source\PSoC4/UART_PM.c ****     #else
 211:.\Generated_Source\PSoC4/UART_PM.c **** 
ARM GAS  C:\Users\victo\AppData\Local\Temp\ccnpFI2s.s 			page 17


 212:.\Generated_Source\PSoC4/UART_PM.c ****         if(0u != UART_backup.enableState)
 224              		.loc 1 212 0
 225 0002 034B     		ldr	r3, .L14
 226 0004 1B78     		ldrb	r3, [r3]
 227 0006 002B     		cmp	r3, #0
 228 0008 01D0     		beq	.L9
 213:.\Generated_Source\PSoC4/UART_PM.c ****         {
 214:.\Generated_Source\PSoC4/UART_PM.c ****             UART_Enable();
 229              		.loc 1 214 0
 230 000a FFF7FEFF 		bl	UART_Enable
 231              	.LVL1:
 232              	.L9:
 215:.\Generated_Source\PSoC4/UART_PM.c ****         }
 216:.\Generated_Source\PSoC4/UART_PM.c **** 
 217:.\Generated_Source\PSoC4/UART_PM.c ****     #endif /* (UART_I2C_WAKE_ENABLE_CONST) */
 218:.\Generated_Source\PSoC4/UART_PM.c **** 
 219:.\Generated_Source\PSoC4/UART_PM.c **** #endif /* (UART_SCB_MODE_UNCONFIG_CONST_CFG) */
 220:.\Generated_Source\PSoC4/UART_PM.c **** }
 233              		.loc 1 220 0
 234              		@ sp needed
 235 000e 08BD     		pop	{r3, pc}
 236              	.L15:
 237              		.align	2
 238              	.L14:
 239 0010 00000000 		.word	.LANCHOR0
 240              		.cfi_endproc
 241              	.LFE1:
 242              		.size	UART_Wakeup, .-UART_Wakeup
 243              		.global	UART_backup
 244              		.bss
 245              		.set	.LANCHOR0,. + 0
 246              		.type	UART_backup, %object
 247              		.size	UART_backup, 1
 248              	UART_backup:
 249 0000 00       		.space	1
 250              		.text
 251              	.Letext0:
 252              		.file 2 "Generated_Source\\PSoC4/cytypes.h"
 253              		.file 3 ".\\Generated_Source\\PSoC4\\UART.h"