ARM GAS  C:\Users\victo\AppData\Local\Temp\ccIqk2i6.s 			page 1


   1              		.cpu cortex-m0
   2              		.fpu softvfp
   3              		.eabi_attribute 20, 1
   4              		.eabi_attribute 21, 1
   5              		.eabi_attribute 23, 3
   6              		.eabi_attribute 24, 1
   7              		.eabi_attribute 25, 1
   8              		.eabi_attribute 26, 1
   9              		.eabi_attribute 30, 4
  10              		.eabi_attribute 34, 0
  11              		.eabi_attribute 18, 4
  12              		.code	16
  13              		.file	"UART_SPI_UART.c"
  14              		.text
  15              	.Ltext0:
  16              		.section	.gnu.lto_.profile.797e4622,"",%progbits
  17 0000 789C6366 		.ascii	"x\234cf```a\200\000F\006\033-\000\001\026\000o"
  17      60606061 
  17      80004606 
  17      1B2D0001 
  17      16006F
  18              		.text
  19              		.section	.gnu.lto_.jmpfuncs.797e4622,"",%progbits
  20 0000 789C6D8A 		.ascii	"x\234m\212\311\011\0000\014\303\344\270\347\"]3\253"
  20      C9090030 
  20      0CC3E4B8 
  20      E7225D33 
  20      AB
  21 0011 378F3E6B 		.ascii	"7\217>k\020\002a\363\337y\336\205 \300\222\262\205\344"
  21      100261F3 
  21      DF79DE85 
  21      20C092B2 
  21      85E4
  22 0023 CC2A1D06 		.ascii	"\314*\035\006LX\365\270)Q\001\337"
  22      4C58F5B8 
  22      295101DF 
  23              		.text
  24              		.section	.gnu.lto_.inline.797e4622,"",%progbits
  25 0000 789C6366 		.ascii	"x\234cf\300\016\366@iN\006\006\026fF\006&\246\013\374"
  25      C00EF640 
  25      694E0606 
  25      16664606 
  25      26A60BFC 
  26 0014 0C6C0BE4 		.ascii	"\014l\013\344\231@b\214\014\254,@!\226\005\362p!&\006"
  26      9940628C 
  26      0CAC2C40 
  26      219605F2 
  26      70212606 
  27 0028 4E0EA010 		.ascii	"N\016\240\020\317\203X\270\0203\003\207>P\210\253\343"
  27      CF8358B8 
  27      10330387 
  27      3E5088AB 
  27      E3
  28 0039 182B5C8C 		.ascii	"\030+\\\214\205\201k\031#\010\000upM\333\312\006\221"
  28      85816B19 
  28      23080075 
  28      704DDBCA 
ARM GAS  C:\Users\victo\AppData\Local\Temp\ccIqk2i6.s 			page 2


  28      0691
  29 004b 600119C0 		.ascii	"`\001\031\300\315\310\3008\301\217\025\323h6L\243\331"
  29      CDC8C038 
  29      C18F15D3 
  29      68364CA3 
  29      D9
  30 005c 31557160 		.ascii	"1Uq`\0121\000\000\204\031\023g"
  30      0A310000 
  30      84191367 
  31              		.text
  32              		.section	.gnu.lto_.pureconst.797e4622,"",%progbits
  33 0000 789C6366 		.ascii	"x\234cf``\020f\200\000N\006)F)&)f)\026IV)6)v)\016)\000"
  33      60601066 
  33      80004E06 
  33      29462926 
  33      29662916 
  34 001e 0C49012D 		.ascii	"\014I\001-"
  35              		.text
  36              		.section	.gnu.lto_UART_SpiUartReadRxData.797e4622,"",%progbits
  37 0000 789C6550 		.ascii	"x\234eP\317+\303a\030\177>\357w\255\311\212\344\264"
  37      CF2BC361 
  37      187F3EEF 
  37      77ADC98A 
  37      E4B4
  38 0012 0BB58394 		.ascii	"\013\265\203\224v\220\177@\224\334\226Q\324j\255\331"
  38      76907F40 
  38      94DC9651 
  38      D46AADD9 
  39 0022 152DE4E6 		.ascii	"\025-\344\346\335\254\035\234$\207i\026\016\362\373"
  39      DDAC1D9C 
  39      24876916 
  39      0EF2FB
  40 0031 47B4C31C 		.ascii	"G\264\303\034\364\315i)\344\262\025\305\324dJ!\242\035"
  40      F4CD6929 
  40      E4B215C5 
  40      D4644A21 
  40      A21D
  41 0043 34CFB350 		.ascii	"4\317\263P\362\324\333\363<\357\373\371<\237\317\363"
  41      F2D4DBF3 
  41      3CEFFBF9 
  41      3C9FCFF3 
  42 0053 1AF43F1C 		.ascii	"\032\364?\034|\306A\324\312\031\006A\315\234\021\205"
  42      7CC641D4 
  42      CA190641 
  42      CD9C1185 
  43 0063 6D0A9082 		.ascii	"m\012\220\202@\223\012\223xP/\012\351\235\267\323\352"
  43      40930A93 
  43      78502F0A 
  43      E99DB7D3 
  43      EA
  44 0074 A22A296A 		.ascii	"\242*)j$n\017g3q\253\264\260H\233\313\306sUM+ZG\236"
  44      246E0F67 
  44      3371ABB4 
  44      B0489BCB 
  44      C673554D 
  45 008c F75323F3 		.ascii	"\367S#\363sK\374\242\350U\021V\341\300\032D\010\353"
  45      734BFCA2 
ARM GAS  C:\Users\victo\AppData\Local\Temp\ccIqk2i6.s 			page 3


  45      E8551156 
  45      E1C01A44 
  45      08EB
  46 009e 6812ECFD 		.ascii	"h\022\354\375\343\321\242\305h\201\324\371\243\304s"
  46      E3D1A2C5 
  46      6881D4F9 
  46      A3C473
  47 00ad 8D739979 		.ascii	"\215s\231y\371\355\251\023\273\316\350h\276\\n`26`\374"
  47      F9EDA913 
  47      BBCEE868 
  47      BE5C6E60 
  47      323660FC 
  48 00c1 E54B30E5 		.ascii	"\345K0\345%\372\231\253\266F\265\326\265\330\204SDx"
  48      25FA99AB 
  48      B646B5D6 
  48      B5D88453 
  48      4478
  49 00d3 F616ACBC 		.ascii	"\366\026\254\274\007\344f\267\316\324\345\362A\366\""
  49      07E466B7 
  49      CED4E5F2 
  49      41F622
  50 00e2 E354064F 		.ascii	"\343T\006O\020\020\025\030%;\335\261-\316F\026\021\363"
  50      10101518 
  50      253BDDB1 
  50      2DCE4616 
  50      11F3
  51 00f4 2A565FE1 		.ascii	"*V_\3411\200\347\336\024\316/l\305\212o\3026+^\342\370"
  51      3180E7DE 
  51      14CE2F6C 
  51      C58A6FC2 
  51      362B5EE2 
  52 0109 7DFA6CAD 		.ascii	"}\372l\255_0\037J\376\340\346)\177k\027\210a\306\026"
  52      5F301F4A 
  52      FEE0E629 
  52      7F6B1788 
  52      61C616
  53 011c 7465F15F 		.ascii	"te\361_\226Q1WH\247S\226$\022\341h\330t\225\224\005"
  53      96513157 
  53      48A75396 
  53      2412E168 
  53      D8749594 
  54 0131 3B6C7F57 		.ascii	";l\177W\354c\017I\020\313\352\201\037Q\036J\327\010"
  54      EC630F49 
  54      10CBEA81 
  54      1F511E4A 
  54      D708
  55 0143 9B8913FB 		.ascii	"\233\211\023\373\267\006\211Q\210A.\233]\336\256\340"
  55      B7068951 
  55      88412E9B 
  55      5DDEAEE0 
  56 0153 5030E41F 		.ascii	"P0\344\037\015\016\372<\303c\241@\320\353\366\014w\264"
  56      0D0EFA3C 
  56      C363A140 
  56      D0EBF60C 
  56      77B4
  57 0165 79FBDA7B 		.ascii	"y\373\332{z}\036w\267O\012W\200\254\241\211N\377\250"
  57      7A7D1E77 
ARM GAS  C:\Users\victo\AppData\Local\Temp\ccIqk2i6.s 			page 4


  57      B74F0A57 
  57      80ACA189 
  57      4EFFA8
  58 0178 FF0BA594 		.ascii	"\377\013\245\224\230\233"
  58      989B
  59              		.text
  60              		.section	.gnu.lto_UART_SpiUartGetRxBufferSize.797e4622,"",%progbits
  61 0000 789C654F 		.ascii	"x\234eOK(\204a\024\275\347\373\307xM\221\245\015e!\245"
  61      4B288461 
  61      14BDE7FB 
  61      C7784D91 
  61      A50D6521 
  62 0015 C9C25AC9 		.ascii	"\311\302Z\311Bv2\224\305\324$\376\205\015\032,\330\370"
  62      42763294 
  62      C5D424FE 
  62      850D1A2C 
  62      D8F8
  63 0027 8621D990 		.ascii	"\206!\331\220,LLXx3\224\025)\323\224\362\3103\231B\306"
  63      2C4C4C58 
  63      78339415 
  63      29D394F2 
  63      C8339942 
  64 003c 62141B11 		.ascii	"b\024\033\021a\026\032\367\376l\344\326\327}|\347\334"
  64      61161AF7 
  64      FE6CE4D6 
  64      D77D7CE7 
  64      DC
  65 004d 7B8E41FF 		.ascii	"{\216A\377#\227_\027\210J8\303 \250\221c\"_\232\002"
  65      23975F17 
  65      884A38C3 
  65      20A89163 
  65      225F9A02 
  66 0061 A420508F 		.ascii	"\244 P\217B\017\036\325\213\302f\350\355(\363A%\024"
  66      420F1ED5 
  66      8BC266E8 
  66      ED28F341 
  66      2514
  67 0073 E513B75B 		.ascii	"\345\023\267[\243{\343via\2236z9\036M/\234\325\272\367"
  67      A37BE376 
  67      69619336 
  67      7A391E4D 
  67      2F9CD5BA 
  68 0088 F93CDA16 		.ascii	"\371<\332\026\030\233\346\037E\257\2120\217\\,@\016"
  68      189BE61F 
  68      45AF8A30 
  68      8F5C2C40 
  68      0E
  69 0099 61118582 		.ascii	"a\021\205\202=\335\367]g\031\305\220:\036Yy\312(\230"
  69      3DDDF75D 
  69      6719C590 
  69      3A1E5979 
  69      CA2898
  70 00ac 61DEDD4E 		.ascii	"a\336\335N\377\201C\357i\377]2\231\307d,\301\370\313"
  70      FF8143EF 
  70      69FF5D32 
  70      99C7642C 
  70      C1F8CB
ARM GAS  C:\Users\victo\AppData\Local\Temp\ccIqk2i6.s 			page 5


  71 00bf 9760CA8B 		.ascii	"\227`\312\213\377+\232i\367k\255\263\261\214\0029\302"
  71      FF2B9A69 
  71      F76BADB3 
  71      B18C0239 
  71      C2
  72 00d0 BB576067 		.ascii	"\273W`g\037\220\311ZNX'\223\033\261\363\3012eS\224P"
  72      1F90C95A 
  72      4E582793 
  72      1BB1F3C1 
  72      32655394 
  73 00e5 063B1324 		.ascii	"\006;\023$\305\031*\306\356Y\033g\343\012\221\367\241"
  73      C5192AC6 
  73      EE591B67 
  73      E30A91F7 
  73      A1
  74 00f6 DB50BDB0 		.ascii	"\333P\275\260?\224\270\234;\231:\265l\331\006\007&\265"
  74      3F94B89C 
  74      3B993AB5 
  74      6CD90607 
  74      26B5
  75 0108 652D163F 		.ascii	"e-\026?9K\263F\326\371\300\326M\320\021\304\204\317"
  75      394BB346 
  75      D6F9C0D6 
  75      4DD011C4 
  75      84CF
  76 011a 8F844AC1 		.ascii	"\217\204J\301*\313\013\211<\254!\010\272B\337\347\300"
  76      2ACB0B89 
  76      3CAC2108 
  76      BA42DFE7 
  76      C0
  77 012b 85FA5968 		.ascii	"\205\372Yh\374\354\334\036\036\336M\225\005F\036a\235"
  77      FCECDC1E 
  77      1EDE4D95 
  77      05461E61 
  77      9D
  78 013c B197B000 		.ascii	"\261\227\260\000\242\211At\013_8v\350\370\345\220\310"
  78      A2894174 
  78      0B5F3876 
  78      E8F8E590 
  78      C8
  79 014d 84C863B1 		.ascii	"\204\310c\261ENw\245\331bz\033:\314&\217\253\265\323"
  79      454E77A5 
  79      D9627A1B 
  79      3ACC268F 
  79      ABB5D3
  80 0160 DB68BAAB 		.ascii	"\333h\272\253]\255\025\245\356\272\362\232Z\217\253"
  80      5DAD15A5 
  80      EEBAF29A 
  80      5A8FAB
  81 016f BACA2385 		.ascii	"\272\312#\205\263\221l\355\315\335\3467\030R\226/"
  81      B3916CED 
  81      CDDDE637 
  81      1852962F 
  82              		.text
  83              		.section	.gnu.lto_UART_SpiUartClearRxBuffer.797e4622,"",%progbits
  84 0000 789C8D91 		.ascii	"x\234\215\221\261K\002q\024\307\337\367]\036\222D\321"
  84      B14B0271 
ARM GAS  C:\Users\victo\AppData\Local\Temp\ccIqk2i6.s 			page 6


  84      14C7DFF7 
  84      5D1E9244 
  84      D1
  85 0011 E83F2011 		.ascii	"\350? \021\270\324\324\026\015\321&Y\233`aBS\202\324"
  85      B8D4D416 
  85      0DD12659 
  85      9B606142 
  85      5382D4
  86 0024 EC594743 		.ascii	"\354YGC4HD\004%A\020iV\006m\321 \315\221\204\204 T\213"
  86      34484404 
  86      25411069 
  86      56066DD1 
  86      20CD9184 
  87 003c 85352596 		.ascii	"\2055%\226%\021\327\373\335\271\005\322\301\275\337"
  87      2511D7FB 
  87      DDB905D2 
  87      C1BDDF
  88 004b EFEE3EF7 		.ascii	"\357\356>\367\371\276{\247\321\337\303+\3479\210\006"
  88      F9BE7BA7 
  88      D1DFC32B 
  88      E7398806 
  89 005b 658546E0 		.ascii	"e\205F\340\324\015Q\322\315\200\332\020(\301H\340\205"
  89      D40D51D2 
  89      CD80DA10 
  89      28C148E0 
  89      85
  90 006c EB8C5421 		.ascii	"\353\214T!\267\355\361\035\030\206\361\266\334\2307"
  90      B7EDF11D 
  90      1886F1B6 
  90      DC9837
  91 007b 36675A4C 		.ascii	"6gZL\324`\307\203C\370H\240\272\371S\366\350\246@}\316"
  91      D460C783 
  91      43F848A0 
  91      BAF953F6 
  91      E8A6407D 
  92 0090 3364A08B 		.ascii	"3d\240\213\237\362\375\005\303\262\032\327\245\332\220"
  92      9FF2FD05 
  92      C3B21AD7 
  92      A5DA90
  93 009f E6666AB1 		.ascii	"\346fj\261\244Iq\251\242\253BT\025^\245>1\253U\253\340"
  93      A44971A9 
  93      A2AB4254 
  93      155EA53E 
  93      31AB55AB 
  94 00b4 AAB9F67C 		.ascii	"\252\271\366|9\242\024\237\254Z\270(\337\227zj\334b"
  94      39A2149F 
  94      AC5AB828 
  94      DF977A6A 
  94      DC62
  95 00c6 3657778D 		.ascii	"6Ww\215.\025\370X-\336\272\355[d_\246\367\357<i\354"
  95      2E15F858 
  95      2DDEBAED 
  95      5B645FA6 
  95      F7EF3C69 
  96 00db 244DB458 		.ascii	"$M\264XC\026^\034A>\0229\244A\025\254\274\353\216Ns"
  96      43165E1C 
  96      413E1239 
ARM GAS  C:\Users\victo\AppData\Local\Temp\ccIqk2i6.s 			page 7


  96      A44115AC 
  96      BCEB8E4E 
  97 00f0 8C5B1F99 		.ascii	"\214[\037\231\254\256^\207!>\034\013+\261\033PP'\335"
  97      ACAE5E87 
  97      213E1C0B 
  97      2BB11B50 
  97      5027DD
  98 0103 89E844A2 		.ascii	"\211\350D\242\340f\267ctu\342O\333\361_\355\3706\377"
  98      E066B763 
  98      7475E24F 
  98      DBF15FED 
  98      F836FF
  99 0116 6A16D761 		.ascii	"j\026\327a\307[\326\267\325K\310\377\267\2013\273\001"
  99      C75BD6B7 
  99      D54BC8FF 
  99      B78133BB 
  99      01
 100 0127 9D1E902C 		.ascii	"\235\036\220,\354\025Y\341\352?Te\2202;\031\306\200"
 100      EC1559E1 
 100      EA3F5465 
 100      90323B19 
 100      C680
 101 0139 3F341E5D 		.ascii	"?4\036]\210\306g\027\243s\341`l)\036\211\206\002\301"
 101      88C66717 
 101      A373E160 
 101      6C291E89 
 101      8602C1
 102 014c D8D87068 		.ascii	"\330\330phztr*\034\014L\204\325\306\037\241_\022\000"
 102      7A74722A 
 102      1C0C4C84 
 102      D5C61FA1 
 102      5F1200
 103 015f A55B     		.ascii	"\245["
 104              		.text
 105              		.section	.gnu.lto_UART_SpiUartWriteTxData.797e4622,"",%progbits
 106 0000 789C6591 		.ascii	"x\234e\221AHTQ\024\206\317\177\356{\317\251\251\210"
 106      41485451 
 106      1486CF7F 
 106      EE7BCFA9 
 106      A988
 107 0012 9642D446 		.ascii	"\226B\324F$\010\027\321\276$!\332IS\273\201i\260Y\264"
 107      240817D1 
 107      BE2421DA 
 107      4953BB81 
 107      69B059B4 
 108 0026 499009DA 		.ascii	"I\220\011\332uG\337b\220`LL\006\314ETdi3\245\233\212"
 108      7547DF62 
 108      90604C4C 
 108      06CC4554 
 108      646933A5 
 109 003c 889720D5 		.ascii	"\210\227 \325\"3*,\013\333\214P\013\303!\321^Tv\316"
 109      22332A2C 
 109      0BDB8C50 
 109      0BC321D1 
 109      5E5476CE 
 110 0050 DC6AE383 		.ascii	"\334j\343\203{\317=\227\377\374\347;\367\031\332\374"
 110      7BCF3D97 
ARM GAS  C:\Users\victo\AppData\Local\Temp\ccIqk2i6.s 			page 8


 110      FFFCE73B 
 110      F719DAFC 
 111 0060 75C89A07 		.ascii	"u\310\232\007\321\001\211\010\010<0KTH0\214;\030\366"
 111      D1018908 
 111      083C304B 
 111      5448308C 
 111      3B18F6
 112 0073 2F3E25B2 		.ascii	"/>%\262[\275\260\211\3546\337\335\267{\200F\002]`\343"
 112      5BBDB089 
 112      EC36DFDD 
 112      B77B8046 
 112      025D60E3 
 113 0087 7B90DDF9 		.ascii	"{\220\335\371}\341:c \032/'[oXkW\006/\235\261C\247b"
 113      7DE13A63 
 113      201A2F27 
 113      5B6F586B 
 113      57062F9D 
 114 009f 26FAC64E 		.ascii	"&\372\306N\201\233h\025M\365\343\364\262o\366\203\344"
 114      819B6815 
 114      4DF5E3F4 
 114      B26FF683 
 114      E4
 115 00b0 FCA0B2FA 		.ascii	"\374\240\262\372\"\371\231c\306^M\037\016>+\007\232"
 115      22F99963 
 115      C65E4D1F 
 115      0E3E2B07 
 115      9A
 116 00c1 B2A7E9DA 		.ascii	"\262\247\351\332\207\347\313\311\226k\326\366F\357'"
 116      87E7CBC9 
 116      966BD6F6 
 116      46EF27
 117 00d0 ED612F66 		.ascii	"\355a/f\2031\030\361\303-4\3436\232I\256\010\343hQy"
 117      833118F1 
 117      C32D34E3 
 117      369A49AE 
 117      08E36851 
 118 00e5 3DFC359F 		.ascii	"=\3745\237\014Bi\276\323\365\304\004\002\231\220\252"
 118      0C4269BE 
 118      D3F5C404 
 118      029990AA 
 119 00f5 BB22BBB1 		.ascii	"\273\"\273\26115\363\246x\310\013Xj<\243\233\214\242"
 119      3135F3A6 
 119      78C80B58 
 119      6A3CA39B 
 119      8CA2
 120 0107 955413AD 		.ascii	"\225T\023\255\314Xc\226`\226\304Q&4\013\230^\353\377"
 120      CC586396 
 120      6096C451 
 120      26340B98 
 120      5EEBFF
 121 011a 3AFB18EA 		.ascii	":\373\030\352\262\316:\335\\u\356\311v\305\363\213\341"
 121      B2CE3ADD 
 121      5C75EEC9 
 121      76C5F38B 
 121      E1
 122 012b 15DB40FC 		.ascii	"\025\333@\374T{\371*\321\270\"M\307\356\227\257\372"
 122      547BF92A 
ARM GAS  C:\Users\victo\AppData\Local\Temp\ccIqk2i6.s 			page 9


 122      D1B8224D 
 122      C7EE97AF 
 122      FA
 123 013c A3182984 		.ascii	"\243\030)\204\2109\300\035\241\254\010%\241\212Q\320"
 123      8839C01D 
 123      A1AC0825 
 123      A18A51D0 
 124 014c 02FABE07 		.ascii	"\002\372\276\007\316\3168\307G\245\322L\223\226{{\010"
 124      CECE38C7 
 124      47A5D24C 
 124      93967B7B 
 124      08
 125 015d 7745F916 		.ascii	"wE\371\026\341\273\276\312\337\236F\024\327/\017O\370"
 125      E1BBBECA 
 125      DF9E4614 
 125      D72F0F4F 
 125      F8
 126 016e 0D458270 		.ascii	"\015E\202pO\275H\211}\222\237\203%y'A\026\324\341\372"
 126      4FBD4889 
 126      7D929F83 
 126      25792741 
 126      16D4E1FA 
 127 0182 CFA12D5A 		.ascii	"\317\241-Z\245\230\305\376\225\035\015\246\350\037f"
 127      A598C5FE 
 127      951D0DA6 
 127      E81F66
 128 0191 E9F78FB2 		.ascii	"\351\367\217\262\343*D\273\225l\362?\331\224\220\255"
 128      E32A44BB 
 128      956CF23F 
 128      D99490AD 
 129 01a1 8BCF220A 		.ascii	"\213\317\"\012Q\374\232\325\303\265\200X\313\313\354"
 129      51FC9AD5 
 129      C3B58058 
 129      CBCBEC
 130 01b0 6B4B1FCD 		.ascii	"kK\037\315\235\315\365d\363\271\323\231T\367\271\236"
 130      9DCDF564 
 130      F3B9D399 
 130      54F7B99E 
 131 01c0 AE5CBA33 		.ascii	"\256\\\2723\325}\344`\372d\373\361\023\231T\347\261"
 131      D57DE460 
 131      FA64FBF1 
 131      139954E7 
 131      B1
 132 01d1 8C1EDABA 		.ascii	"\214\036\332\272(\310\237\357\310\346\263\177\000\275"
 132      28C89FEF 
 132      C8E6B37F 
 132      00BD
 133 01df 51BB8F   		.ascii	"Q\273\217"
 134              		.text
 135              		.section	.gnu.lto_UART_SpiUartPutArray.797e4622,"",%progbits
 136 0000 789C6592 		.ascii	"x\234e\222Kh\023Q\024\206\317\177\357L2I*-.\273Q(\241"
 136      4B681351 
 136      1486CF7F 
 136      EF4C3249 
 136      2A2D2EBB 
 137 0017 0852415C 		.ascii	"\010RA\\\350\316\307B\304M1\272\013D\211)t\323BiqUz"
 137      E8CEC742 
ARM GAS  C:\Users\victo\AppData\Local\Temp\ccIqk2i6.s 			page 10


 137      C44D31BA 
 137      0B448929 
 137      74D34269 
 138 002e DB8436A0 		.ascii	"\333\2046\240h(.\242RE\304GmLj\265\013]\305\"Z\212\017"
 138      68282EA2 
 138      5245C447 
 138      6D4C6AB5 
 138      0B5DC522 
 139 0045 8A748444 		.ascii	"\212t\204Dj\026\251((\030RL\207\"\361\334\231\012>."
 139      6A16A928 
 139      2818524C 
 139      8722F1DC 
 139      990A3E2E 
 140 0059 C9DC7B4F 		.ascii	"\311\334{O\316\367\237\363\237\211\244\377\327q\376"
 140      CEF79FF3 
 140      9F89A4FF 
 140      D771FE
 141 0068 4E0BA203 		.ascii	"N\013\242\003\274\303G\020\2317D\243\226\200\341\035"
 141      BCC34710 
 141      993744A3 
 141      9680E11D 
 142 0078 A4777866 		.ascii	"\244wxf\031B^xI\244\202f\312O\252\305\004t\234@#B\032"
 142      19425E78 
 142      49A48266 
 142      CA4FAAC5 
 142      04749C40 
 143 008f 26468441 		.ascii	"&F\204Ah\362jue\277\210\232@\2468\223\015u\336VJ}_\230"
 143      68F26A75 
 143      65BF889A 
 143      40A63893 
 143      0D75DE56 
 144 00a7 EF55974F 		.ascii	"\357U\227O;\\\250.\274\302\270\213N\316)\225r\013!\271"
 144      3B5CA82E 
 144      BCC2B88B 
 144      4ECE2995 
 144      720B21B9 
 145 00bb 1BC4E727 		.ascii	"\033\304\347'\371\365\327\241\317\302\021\330\251\257"
 145      F9F5D7A1 
 145      CFC211D8 
 145      A9AF
 146 00c9 4F2717B3 		.ascii	"O'\027\263>}ei\276\226g/e\255\360-\245\306\212\3459"
 146      3E7D6569 
 146      BE96672F 
 146      65ADF02D 
 146      A5C68AE5 
 147 00de 75D07084 		.ascii	"u\320p\204\304=H\326\3034\332q\037\355\304!\302\014"
 147      C43D48D6 
 147      C334DA71 
 147      1FEDC421 
 147      C20C
 148 00f0 C21ACE4F 		.ascii	"\302\032\316O\346Cr\257\253\233\253,=\227\036\271\351"
 148      E64372AF 
 148      AB9BAB2C 
 148      3D971EB9 
 148      E9
 149 0101 910672FF 		.ascii	"\221\006r\377\222\334\376\003\204u\372\372D\241\354"
 149      92DCFE03 
ARM GAS  C:\Users\victo\AppData\Local\Temp\ccIqk2i6.s 			page 11


 149      8475FAFA 
 149      44A1EC
 150 0110 97FB5DF4 		.ascii	"\227\373]\364Jsj%\320q\223\321J\376\374R\213ZT\251J"
 150      4A736A25 
 150      D07193D1 
 150      4AFEFC52 
 150      8B5A54A9 
 151 0125 B3B9432B 		.ascii	"\263\271C+\344\377V\360\026#\265\324\317\367!_\212]"
 151      E4FF56F0 
 151      1623B5D4 
 151      CFF7215F 
 151      8A5D
 152 0137 B7A1800E 		.ascii	"\267\241\200\016\3170f\341\003o:R\330^T\315f\335^I\357"
 152      CF3066E1 
 152      036F3A52 
 152      D85E54CD 
 152      66DD5E49 
 153 014c 3143201D 		.ascii	"1C \0352\240\213\363L\271y\237\266\341\347\207i\361"
 153      32A08BF3 
 153      4CB9799F 
 153      B6E1E787 
 153      69F1
 154 015e C3177413 		.ascii	"\303\027t\023\210\252,\303\223_\023\2027ic\254X\263"
 154      88AA2CC3 
 154      935F1382 
 154      376963AC 
 154      58B3
 155 0170 5B5D59FE 		.ascii	"[]Y\376\231\313~\254\276]\266\364\264\014.\363\320m"
 155      99CB7EAC 
 155      BE5DB6F4 
 155      B40C2EF3 
 155      D06D
 156 0182 688DC7C1 		.ascii	"h\215\307\301\357L\226\220\314\216\333e\033:\275!\370"
 156      EF4C9690 
 156      CC8EDB65 
 156      1B3ABD21 
 156      F8
 157 0193 633604A8 		.ascii	"c6\004\250\204\261\037A/\344\377S@\2726\3467n|\3336"
 157      84B11F41 
 157      2FE4FF53 
 157      40BA36E6 
 157      376E7CDB 
 158 01a8 856B7084 		.ascii	"\205kp\204\237\031\314iI<\302\224\013\256N|\335R\263"
 158      9F19CC69 
 158      493CC294 
 158      0BAE4E7C 
 158      DD52B3
 159 01bb 98A60F30 		.ascii	"\230\246\0170\364Ms\327\337]\314\213\341M\225V\226#"
 159      F44D73D7 
 159      DF5DCC8B 
 159      E14D9556 
 159      9623
 160 01cd ACBAD0AE 		.ascii	"\254\272\320\256\037c\2308\323\021\001f\223\223\343"
 160      1F639838 
 160      D3110166 
 160      9393E3
 161 01dc 2FCA992D 		.ascii	"/\312\231-:\310\2150\264|\365N\262\325m\236\3471\317"
ARM GAS  C:\Users\victo\AppData\Local\Temp\ccIqk2i6.s 			page 12


 161      3AC88D30 
 161      B47CF54E 
 161      B2D56D9E 
 161      E731CF
 162 01ef 956C88DF 		.ascii	"\225l\210\337\3368\311\365b\020\377\341\264\3616\362"
 162      DE38C9F5 
 162      6210FFE1 
 162      B4F136F2 
 163 01ff C2A015A4 		.ascii	"\302\240\025\244^%{<%4\264s\242O\200\266/6$\2032\035"
 163      5E257B3C 
 163      2534B473 
 163      A24F80B6 
 163      2F362483 
 164 0215 60D2D413 		.ascii	"`\322\324\023[\305h\321\261]U\235Ve<\345\347\231\356"
 164      5BC568D1 
 164      B15D559D 
 164      56653CE5 
 164      E799EE
 165 0228 EA8A1E4D 		.ascii	"\352\212\036M\364%\006\316\014&\316\306\"\375C\003\361"
 165      F42506CE 
 165      0C26CEC6 
 165      22FD4303 
 165      F1
 166 0239 44B43BD2 		.ascii	"D\264;\322\177d_\364\324\241\023'c\221\356c1}\350\212"
 166      7F645FF4 
 166      D4A11327 
 166      6391EE63 
 166      317DE88A 
 167 024d 93796EE0 		.ascii	"\223yn\340\360P\217\031\357\037\352\033D\357/\264\015"
 167      F0508F19 
 167      EF1FEA1B 
 167      44EF2FB4 
 167      0D
 168 025e FCB7     		.ascii	"\374\267"
 169              		.text
 170              		.section	.gnu.lto_UART_SpiUartGetTxBufferSize.797e4622,"",%progbits
 171 0000 789C654F 		.ascii	"x\234eO\313+\304a\024\275\347\373\215\361\216,m(\013"
 171      CB2BC461 
 171      14BDE7FB 
 171      8DF18E2C 
 171      6D280B
 172 0013 9164E11F 		.ascii	"\221d\341\037\220\205\354&CYLM\342\267\260!\257\005"
 172      9085EC26 
 172      43594C4D 
 172      E2B7B021 
 172      AF05
 173 0025 1BDFF04B 		.ascii	"\033\337\360KbA\262\0301\305B\306s\224\015\242P\012"
 173      6241B218 
 173      31C542C6 
 173      73940DA2 
 173      500A
 174 0037 85214C8D 		.ascii	"\205!L\215\302b\210\215G\204Yh\334;l\344\326\327}|\347"
 174      C262888D 
 174      47845968 
 174      DC3B6CE4 
 174      D6D77D7C 
 175 004c DC7B8E41 		.ascii	"\334{\216A\377#\233_'\210J8\303 \250\341#\"O\222\002"
ARM GAS  C:\Users\victo\AppData\Local\Temp\ccIqk2i6.s 			page 13


 175      FF239B5F 
 175      27884A38 
 175      C320A8E1 
 175      23224F92 
 176 0061 A42050B7 		.ascii	"\244 P\267B7\036\324\213\302\332\322\333a\352\275\212"
 176      42371ED4 
 176      8BC2DAD2 
 176      DB61EABD 
 176      8A
 177 0072 2ACA256E 		.ascii	"*\312%n\327G\366\274via\2236t\341\015%\347Ok\335\363"
 177      D747F6BC 
 177      76696193 
 177      3674E10D 
 177      25E74F6B 
 178 0088 7CBAD932 		.ascii	"|\272\33126:\311?\212^\025a\006\331\360C\016a\026\371"
 178      363AC93F 
 178      8A5E1561 
 178      06D9F043 
 178      0E6116F9 
 179 009c 820DEE7B 		.ascii	"\202\015\356{.3\214\"H\035\331YxL\311\233b\336\315\323"
 179      2E338C22 
 179      481DD959 
 179      784CC99B 
 179      62DECDD3 
 180 00b0 E0419ADE 		.ascii	"\340A\232\336\323\326M,\226\303d\314\301\370\313\227"
 180      D3D64D2C 
 180      96C364CC 
 180      C1F8CB97 
 181 00c0 60CA8BF5 		.ascii	"`\312\213\365\025J\265[Z\353L\314#O\216\360\356\005"
 181      154AB55B 
 181      5AEB4CCC 
 181      234F8EF0 
 181      EE05
 182 00d2 D8D90764 		.ascii	"\330\331\007d\022\310\332\322\261\330\312\307\271\277"
 182      12C8DAD2 
 182      B1D8CAC7 
 182      B9BF
 183 00e0 D06E5314 		.ascii	"\320nS\024U\006;\023$E\030*\306nY\033g#\214\235\367"
 183      55063B13 
 183      2445182A 
 183      C66E591B 
 183      67238C9D 
 184 00f5 81BB875A 		.ascii	"\201\273\207Za\177(q\031\014\004\267\323\305\226\255"
 184      617F2871 
 184      190C04B7 
 184      D3C596AD 
 185 0105 DF9AD071 		.ascii	"\337\232\320qk\327\221\343\223\244\370(~\336\277\352"
 185      6BD791E3 
 185      93A4F828 
 185      7EDEBFEA 
 186 0115 9D4AF061 		.ascii	"\235J\360a\334c!\252\022\260\310\362\226D\036\002\360"
 186      DC6321AA 
 186      12B0C8F2 
 186      96441E02 
 186      F0
 187 0126 81C2E8FD 		.ascii	"\201\302\350\375\354;S?\013\215\237\235\033CC\273\211"
 187      EC3B533F 
ARM GAS  C:\Users\victo\AppData\Local\Temp\ccIqk2i6.s 			page 14


 187      0B8D9F9D 
 187      1B4343BB 
 187      89
 188 0137 B2C0C821 		.ascii	"\262\300\310!,3\366\002q\200hb\020]\301\263u\022N\373"
 188      2C33F602 
 188      71806862 
 188      105DC1B3 
 188      75124EFB 
 189 014b E590C884 		.ascii	"\345\220\310\204\310c\261\005\305\256\012\263\311l\255"
 189      C863B105 
 189      C5AE0AB3 
 189      C96CAD
 190 015a 6B371BDC 		.ascii	"k7\033\334\316\346\216\326z\323\345p6\227\227\272j\312"
 190      CEE68ED6 
 190      7AD3E570 
 190      369797BA 
 190      6ACA
 191 016c AAAADD4E 		.ascii	"\252\252\335NG\245[\212\342z\262\2655v\231\337\226\337"
 191      47A55B8A 
 191      E27AB2B5 
 191      357699DF 
 191      96DF
 192 017e 96B2     		.ascii	"\226\262"
 193              		.text
 194              		.section	.gnu.lto_UART_SpiUartClearTxBuffer.797e4622,"",%progbits
 195 0000 789C8D91 		.ascii	"x\234\215\221\261K\002q\024\307\337{\227\207\344P4\372"
 195      B14B0271 
 195      14C7DF7B 
 195      9787E450 
 195      34FA
 196 0012 0F48044E 		.ascii	"\017H\004NM5EC\264I\326&X\330\015-\011R\263?\351h\210"
 196      4D354543 
 196      B449D626 
 196      58D80D2D 
 196      0952B33F 
 197 0029 069108C9 		.ascii	"\006\221\010\311\034#\315\312\300\241U\372\003\222\226"
 197      1C23CDCA 
 197      C0A155FA 
 197      039296
 198 0038 228324D0 		.ascii	"\"\203$\320\320\206H*\353\212\270\336\363\334\002\351"
 198      D086482A 
 198      EB8AB8DE 
 198      F3DC02E9 
 199 0048 E0DEEF77 		.ascii	"\340\336\357ww\237\373|\337\275\323\340\357\341\345"
 199      779FFB7C 
 199      DFBDD3E0 
 199      EFE1E5
 200 0057 B3840063 		.ascii	"\263\204\000c\274\242\006H\311K\200\204\233\020e\003"
 200      BCA20648 
 200      C94B8084 
 200      9B106503 
 201 0067 0871C238 		.ascii	"\010q\3028\266\250M\230,\027\322\036\337\201R\352%u"
 201      B6A84D98 
 201      2C17D21E 
 201      DF8152EA 
 201      2575
 202 0079 BBA27616 		.ascii	"\273\242v\026-\002x%\307\203\207\350\003\206\332\346"
ARM GAS  C:\Users\victo\AppData\Local\Temp\ccIqk2i6.s 			page 15


 202      2D027825 
 202      C78387E8 
 202      0386DAE6 
 203 0089 CF8D4737 		.ascii	"\317\215G7\031\032v\236a\016u\366Cq\244\254l\273\324"
 203      191A769E 
 203      610E75F6 
 203      4371A4AC 
 203      6CBBD4
 204 009c B86E4EEA 		.ascii	"\270nN\352n\002\2138\215\213K\212.\005\240\316\274\244"
 204      6E028B38 
 204      8D8B4B8A 
 204      2E05A0CE 
 204      BCA4
 205 00ae 368864D5 		.ascii	"6\210d\325\252x\321\331z|\236\020\305\007I\013\231\315"
 205      AA78D1D9 
 205      7A7C9E10 
 205      C507490B 
 205      99CD
 206 00c0 D61E35C9 		.ascii	"\326\0365\311\"2\315}5 \201\265z\345\312\335\275\005"
 206      2232CD7D 
 206      352081B5 
 206      7AE5CADD 
 206      BD05
 207 00d2 72F9F095 		.ascii	"r\371\360\225>\367d1\2230\321\"\015\363\350\305#\344"
 207      3EF76431 
 207      9330D122 
 207      0DF3E8C5 
 207      23E4
 208 00e4 8FC40266 		.ascii	"\217\304\002f\021\252\270\361\246;:\3151\356\276\347"
 208      11AAB8F1 
 208      A63B3ACD 
 208      31EEBEE7 
 209 00f4 F2BABC8E 		.ascii	"\362\272\274\216\212}x\314,\307\246P\240~\272\023\326"
 209      8A7D78CC 
 209      2CC7A650 
 209      A07EBA13 
 209      D6
 210 0105 B144E0CE 		.ascii	"\261D\340\316\240ct\365\343O{\361\237\275\370\036\377"
 210      A06374F5 
 210      E34F7BF1 
 210      9FBDF81E 
 210      FF
 211 0116 6456B6B1 		.ascii	"dV\266\261\033o\333\337\366\020`\361\277\015\234u\033"
 211      1B6FDBDF 
 211      F61060F1 
 211      BF0D9C75 
 211      1B
 212 0127 D0E11E13 		.ascii	"\320\341\036\023\345\332\035\011.\377\241\316\203\344"
 212      E5DA1D09 
 212      2EFFA1CE 
 212      83E4
 213 0135 D9F13046 		.ascii	"\331\3610F\375\241\031c\325\210-\255\031\313\341`t="
 213      FDA11963 
 213      D5882DAD 
 213      19CBE160 
 213      743D
 214 0147 16314281 		.ascii	"\0261B\201`tz<\264057\037\016\006f\303\262\361G\340"
ARM GAS  C:\Users\victo\AppData\Local\Temp\ccIqk2i6.s 			page 16


 214      60747A3C 
 214      B4303537 
 214      1F0E0666 
 214      C3B2F147 
 215 015c 17FFC8A5 		.ascii	"\027\377\310\245\351"
 215      E9
 216              		.text
 217              		.section	.gnu.lto_UART_SpiUartDisableIntRx.797e4622,"",%progbits
 218 0000 789C654F 		.ascii	"x\234eOM(\303q\030~\237\337\177\366\3214rt@9,%'\256"
 218      4D28C371 
 218      187E9FDF 
 218      7FF6D134 
 218      72744039 
 219 0018 2407B92D 		.ascii	"$\007\271-#\227\325\022;\270P\342\354\367\327\016\222"
 219      2397D512 
 219      3BB850E2 
 219      ECF7D70E 
 219      92
 220 0029 F29132B1 		.ascii	"\362\2212\261\306\201\371\376\310\311GZ.\333\005\271"
 220      C681F9FE 
 220      C8C9475A 
 220      2EDB05B9 
 221 0039 6C7140A2 		.ascii	"lq@\242H\311\020\355\240y\337qY\336\372\365{\277\236"
 221      48C910ED 
 221      A079DF71 
 221      59DEFAF5 
 221      7BBF9E
 222 004c F7791E83 		.ascii	"\367y\036\203\376G)\277I\020\325\361\017\203\240&\316"
 222      FE4729BF 
 222      4910D5F1 
 222      0F83A026 
 222      CE
 223 005d 884CBB02 		.ascii	"\210L\273\002$!\320\220\302\020\236TZa\177\353\343\324"
 223      2421D090 
 223      C2109E54 
 223      5A617FEB 
 223      E3D4
 224 006f F9A8328A 		.ascii	"\371\2502\212*\210\313\203\251D\310*%,R\246\222\241"
 224      2A88CB83 
 224      A944C82A 
 224      252C52A6 
 224      92A1
 225 0081 94C3BDA4 		.ascii	"\224\303\275\244\365\360\353]\272svz\201'\212\336\025"
 225      F5F0EB5D 
 225      BA73767A 
 225      81278ADE 
 225      15
 226 0092 218A52AC 		.ascii	"!\212R\254@\210\260\012\267\354\276\304\027F\212\214"
 226      4088B00A 
 226      B7ECBEC4 
 226      17468A8C 
 227 00a2 6A481EDA 		.ascii	"jH\036\332\033\277qU.2\35664\036/\324\011\035\274\315"
 227      1BBF7155 
 227      2E32EE36 
 227      341E2FD4 
 227      091DBCCD 
 228 00b6 66CB198C 		.ascii	"f\313\031\2145\030\371x\011\206\244\203\337)\2475\250"
ARM GAS  C:\Users\victo\AppData\Local\Temp\ccIqk2i6.s 			page 17


 228      3518F978 
 228      0986A483 
 228      DF29A735 
 228      A8
 229 00c7 B52EC63A 		.ascii	"\265.\306:*\205\204oo\300\312> \235\355\222\230\316"
 229      2A85846F 
 229      6FC0CA3E 
 229      209DED92 
 229      98CE
 230 00d9 66DFE333 		.ascii	"f\337\3433\217n\233\205/\310\022\335\363\226xz`Y\374"
 230      8F6E9B85 
 230      2FC812DD 
 230      F396787A 
 230      6059FC
 231 00ec 1B5738F9 		.ascii	"\033W8\371\034Mf\352\005\370\245\304\340h4\022q\211"
 231      1C4D66EA 
 231      05F8A5C4 
 231      E0683412 
 231      7189
 232 00fe 23231199 		.ascii	"##\021\231\3279W7\367\347\027\366\\+\307|\371\366|\354"
 232      D7395737 
 232      F7E717F6 
 232      5C2BC77C 
 232      F9F67CEC 
 233 0112 0A63CE0C 		.ascii	"\012c\316\014\232\261\252\214\262`\223\265m\2116l#\014"
 233      9AB1AA8C 
 233      B26093B5 
 233      6D89366C 
 233      230C
 234 0124 4A625837 		.ascii	"JbX7\344\2240%\037%&y\3359\353\220V\036\034\371\340"
 234      E4943025 
 234      1F252679 
 234      DD39EB90 
 234      561E1CF9 
 235 0139 1D06F3DC 		.ascii	"\035\006\363\334\\>\034\263\011[\001\367vyr\0153vT\366"
 235      5C3E1CB3 
 235      095B01F7 
 235      7679720D 
 235      337654F6 
 236 014d A790C403 		.ascii	"\247\220\304\003D;\247U5\276\346@o\240\277s \320\355"
 236      443BA755 
 236      35BEE640 
 236      6FA0BF73 
 236      20D0ED
 237 0160 F7F60DF6 		.ascii	"\367\366\015\366w\005|\036o_S\255\257\275\261\265\315"
 237      77057C1E 
 237      6F5F53AD 
 237      AFBDB1B5 
 237      CD
 238 0171 EFF5B4F8 		.ascii	"\357\365\264\370%\251\351\"GO\357\300\357\302\017\205"
 238      25A9E922 
 238      474FEFC0 
 238      EFC20F85 
 239 0181 01A275   		.ascii	"\001\242u"
 240              		.text
 241              		.section	.gnu.lto_UART_SpiUartDisableIntTx.797e4622,"",%progbits
 242 0000 789C654F 		.ascii	"x\234eO;H\202Q\024>\347\376\246\206\011\321\350b\340"
ARM GAS  C:\Users\victo\AppData\Local\Temp\ccIqk2i6.s 			page 18


 242      3B488251 
 242      143EE7FE 
 242      A68609D1 
 242      E862E0
 243 0013 1041B5D4 		.ascii	"\020A\265\324\322\030\015\321\020D\366X\004\021s\210"
 243      D2180DD1 
 243      1044F658 
 243      04117388 
 244 0023 A0A06CEE 		.ascii	"\240\240l\356\376\342\020\021\364 \310\250\350\001e"
 244      FEE21011 
 244      F420C8A8 
 244      E80165
 245 0032 4FB5360B 		.ascii	"O\2656\013B\032\252\245\"\002\245\006{\240P\264hE!\025"
 245      421AAAA5 
 245      2202A506 
 245      7BA050B4 
 245      68452115 
 246 0046 76CE5F8B 		.ascii	"v\316_\213t\341r\317\371\356\371\316\367}\012\374?\026"
 246      74E172CF 
 246      F9EEF9CE 
 246      F77D0AFC 
 246      3F16
 247 0058 BA930850 		.ascii	"\272\223\010PO/*\200b\342\034@5\012D.\000aX\3400>\211"
 247      4F2F2A80 
 247      62E21C40 
 247      350A442E 
 247      006158E0 
 248 006f ACC068E8 		.ascii	"\254\300h\350\355\314\364(r\002\312\201\332\375\251"
 248      EDCCF428 
 248      7202CA81 
 248      DAFDA9
 249 007e D3809E5B 		.ascii	"\323\200\236[\324q\233\210\007\022\305\025\253R\372"
 249      D4719B88 
 249      0712C515 
 249      AB52FA
 250 008d 32471FAE 		.ascii	"2G\037\256\331\351%\372\021\360*\000\203h\301ud!\334"
 250      D9E925FA 
 250      11F02A00 
 250      8368C175 
 250      6421DC
 251 00a0 C00A9EDD 		.ascii	"\300\012\236\335[y\211\032\224*\344\372\3523\370`\262"
 251      5B79891A 
 251      942AE4FA 
 251      EA33F860 
 251      B2
 252 00b1 2D13EFEE 		.ascii	"-\023\357\356p\374\244D\236J\377]>o%2n\242R\310\347"
 252      70FCA444 
 252      9E4AFF5D 
 252      3E6F2532 
 252      6EA252C8 
 253 00c6 4394ACFF 		.ascii	"C\224\254\377;a\322\373\245\224\245\270\2056\026\241"
 253      3B61D2FB 
 253      A594A5B8 
 253      853616A1 
 254 00d6 DDDBA8A7 		.ascii	"\335\333\250\247\034\310H\270,&\363\371\327\344\314"
 254      1CC848B8 
 254      2C26F3F9 
ARM GAS  C:\Users\victo\AppData\Local\Temp\ccIqk2i6.s 			page 19


 254      D7E4CC
 255 00e5 7AAD4147 		.ascii	"z\255AG\033x\010R4\305\231\322d\213^\345\006\217\336"
 255      1B780852 
 255      34C599D2 
 255      648B5EE5 
 255      068FDE
 256 00f8 478FBF3A 		.ascii	"G\217\277:\231\370!8`\362:{o\346D\312\310\342\274\324"
 256      99F82138 
 256      60F23A7B 
 256      6FE644CA 
 256      C8E2BCD4 
 257 010c 52DDA62E 		.ascii	"R\335\246..\215\032\244)\347\"\351g\\\3009\325\257\306"
 257      2E8D1AA4 
 257      29E722E9 
 257      675CC039 
 257      D5AFC6
 258 011f AA734287 		.ascii	"\252sB\207;\344-\304\3360L8\304\321'\2734'$IK\201D2"
 258      3BE42DC4 
 258      DE304C38 
 258      C4D127BB 
 258      34272449 
 259 0137 91B40615 		.ascii	"\221\264\006\025\320\261\220\034!\224\376\325\265\203"
 259      D0B1901C 
 259      2194FED5 
 259      B583
 260 0145 3103AB15 		.ascii	"1\003\253\025\021\266K?ITc\001\353\237C\340\014\310"
 260      11B64B3F 
 260      49546301 
 260      EB9F43E0 
 260      0CC8
 261 0157 DEA9ACAC 		.ascii	"\336\251\254\254q4y\372<\003.\257\247\333i\357\037\032"
 261      713479FA 
 261      3C032EAF 
 261      A7DB69EF 
 261      1F1A
 262 0169 707B1CAD 		.ascii	"p{\034\255\366\376\306:GGC[\273\323\336\332\354\344"
 262      F6FEC63A 
 262      4747435B 
 262      BBD3DEDA 
 262      ECE4
 263 017b A2C60DE6 		.ascii	"\242\306\015\346\236>\357\357@\213k\260\367\007\337"
 263      9E3EEFEF 
 263      408B6BB0 
 263      F707DF
 264 018a A2A591   		.ascii	"\242\245\221"
 265              		.text
 266              		.section	.gnu.lto_.symbol_nodes.797e4622,"",%progbits
 267 0000 789C55C7 		.ascii	"x\234U\307\271\015\200@\020\004\301\276\335\373r!\310"
 267      B90D8040 
 267      1004C1BE 
 267      DDFB7221 
 267      C8
 268 0011 49011B03 		.ascii	"I\001\033\003!\002\"\025\"@\302\301`\312\253\0046>\201"
 268      21022215 
 268      2240C2C1 
 268      60CAAB04 
 268      363E81
ARM GAS  C:\Users\victo\AppData\Local\Temp\ccIqk2i6.s 			page 20


 269 0024 60BD4062 		.ascii	"`\275@b?&QT\354\241\260\247\322^U\355M\315\336\325\355"
 269      3F265154 
 269      ECA1B0A7 
 269      D25E55ED 
 269      4DCDDED5 
 270 0039 43C33E35 		.ascii	"C\303>5\377\317\232\234\317\275\360\002?\215(\344"
 270      FFCF9A9C 
 270      CFBDF002 
 270      3F8D28E4 
 271              		.text
 272              		.section	.gnu.lto_.refs.797e4622,"",%progbits
 273 0000 789C6366 		.ascii	"x\234cf```d\200\002\000\000=\000\005"
 273      60606064 
 273      80020000 
 273      3D0005
 274              		.text
 275              		.section	.gnu.lto_.decls.797e4622,"",%progbits
 276 0000 789C8D54 		.ascii	"x\234\215T[L\024W\030>g\016\273\270\343\202>\230\305"
 276      5B4C1457 
 276      183E670E 
 276      BBB8E382 
 276      3E98C5
 277 0013 D2268517 		.ascii	"\322&\205\027\022\023B\023\354\203o\255\305\004yi\010"
 277      12134213 
 277      EC836FAD 
 277      C5047969 
 277      08
 278 0024 97F44112 		.ascii	"\227\364A\022\272\305\261nb\320,K\002}\232\012\251\213"
 278      BAC5B16E 
 278      62D02C4B 
 278      027D9A0A 
 278      A98B
 279 0036 B4420956 		.ascii	"\264B\011V\204DI@\271)\320r\221\313Za\005\226\313\356"
 279      84444940 
 279      B929D072 
 279      91CB5A61 
 279      0596CBEE 
 280 004a 02B28254 		.ascii	"\002\262\202TS\261\326\326\212\264K\334Z\321\266\333"
 280      53B1D6D6 
 280      8AB44BDC 
 280      5AD1B6DB 
 281 005a FF9C9961 		.ascii	"\377\234\231a\007\034\012'\371w\347\234\363\177\337"
 281      071C0A27 
 281      F977E79C 
 281      F37FDF
 282 0069 FF9D7FBE 		.ascii	"\377\235\177\2769\004!t\224C(\010\343O\035B)\030!\036"
 282      39042174 
 282      94432808 
 282      E34F1D42 
 282      2918211E 
 283 007d D6525168 		.ascii	"\326RQh\030 : \272 z \034\020\243\020\343\020n\010/"
 283      18203A20 
 283      BA207A20 
 283      1C10A310 
 283      E3106E08 
 284 0092 C4147A7D 		.ascii	"\304\024z}P\014P\242H\010#D+\304m\010\237\274\217\345"
 284      500C50A2 
ARM GAS  C:\Users\victo\AppData\Local\Temp\ccIqk2i6.s 			page 21


 284      48082344 
 284      2BC46D08 
 284      9FBC8FE5 
 285 00a6 9CF583D6 		.ascii	"\234\365\203\326\321\257\303\305j`\2734\260T_\230\254"
 285      D1AFC3C5 
 285      6A60BB34 
 285      B0545F98 
 285      AC
 286 00b7 5F0BD3A3 		.ascii	"_\013\323\243\201\241\347\011\2271\233\325th\340i/\370"
 286      81A1E709 
 286      97319BD5 
 286      7468E069 
 286      2FF8
 287 00c9 75F89B32 		.ascii	"u\370\2332\207I\346qB\314B\364\311\030N\306i\361\215"
 287      8749E671 
 287      42CC42F4 
 287      C9184EC6 
 287      69F18D
 288 00dc 6FF1FCE3 		.ascii	"o\361\374\343\032X\367&\347wk`\274\032\365\024\\\254"
 288      1A58F726 
 288      E7776B60 
 288      BC1AF514 
 288      5CAC
 289 00ee 0AEBD5C0 		.ascii	"\012\353\325\300Nm\021\253\345\217e\016\367\266\006"
 289      4E6D11AB 
 289      E58F650E 
 289      F7B606
 290 00fd 3CDB1F73 		.ascii	"<\333\037s8\222\217\241\323\276\212\321*=L\215|\030"
 290      38928FA1 
 290      D3BE8AD1 
 290      2A3D4C8D 
 290      7C18
 291 010f 9D3EB833 		.ascii	"\235>\2703\347\010'\034\246\317uU\017|||\263(\212vq"
 291      E708271C 
 291      A6CF7555 
 291      0F7C7C7C 
 291      B3288A76 
 292 0124 60148728 		.ascii	"`\024\207(>\277\334\377e8`by6\275_\263Ro`Sj\351\035"
 292      3EBFDCFF 
 292      65386062 
 292      7936BD5F 
 292      B3526F60 
 293 013c B0C42D55 		.ascii	"\260\304-U\236\014n\307q|=\200\375\215\201\037\336\022"
 293      9E0C6EC7 
 293      717C3D80 
 293      FD8D811F 
 293      DE12
 294 014e C530DC8A 		.ascii	"\3050\334\212y\334\204\011n\306\361T\"E\323a\027\305"
 294      79DC8409 
 294      6EC6F154 
 294      2245D361 
 294      17C5
 295 0160 93627991 		.ascii	"\223by\221h8\210p\003\216\306\2158\032\341\2538\016"
 295      68388870 
 295      038EC68D 
 295      381AE1AB 
 295      380E
ARM GAS  C:\Users\victo\AppData\Local\Temp\ccIqk2i6.s 			page 22


 296 0172 12582A6E 		.ascii	"\022X*n\201\305+\260\010\245&~z\361\314\310\304\357"
 296      81C52BB0 
 296      08A5267E 
 296      7AF1CCC8 
 296      C4EF
 297 0184 A4D3EAB9 		.ascii	"\244\323\352\271G\001\302\304stz\321\321\0344D\235\025"
 297      4701C2C4 
 297      73747AD1 
 297      D11C3444 
 297      9D15
 298 0196 E9281277 		.ascii	"\351(\022wr\254b\033\240\333\001\215\360\2678\012~\017"
 298      72AC621B 
 298      A0DB018D 
 298      F0B7380A 
 298      7E0F
 299 01a8 85498768 		.ascii	"\205I\207h\360\325=\213 \211\354\244\265C\317\177\217"
 299      F0D53D8B 
 299      2089ECA4 
 299      B543CF7F 
 299      8F
 300 01b9 88B920D6 		.ascii	"\210\271 \326\266\373\317?|\362\361\327Eb\245\270\020"
 300      B6FBCF3F 
 300      7CF2F1D7 
 300      4562A5B8 
 300      10
 301 01ca 0CBECD30 		.ascii	"\014\276\3150\370\273U\315\210>K\015\356\3001\000\274"
 301      F8BB55CD 
 301      883E4B0D 
 301      EEC03100 
 301      BC
 302 01db 34EFBE15 		.ascii	"4\357\276\025I\362\030I\337\364\337\377r\214\244\366"
 302      49F21849 
 302      DFF4DFFF 
 302      728CA4F6 
 303 01eb FA257DA3 		.ascii	"\372%}\2438\020\014\276\307\360\235*|\247\202\357b\370"
 303      38100CBE 
 303      C7F09D2A 
 303      7CA782EF 
 303      62F8
 304 01fd EE95E76D 		.ascii	"\356\225\347mz\265\342T\223Jp\367\032\301\367g\206J"
 304      7AB5E254 
 304      934A70F7 
 304      1AC1F767 
 304      864A
 305 020f 3129C3AC 		.ascii	"1)\303\254\330H\315\325\277\"Y\261\205*\327\210Q\224"
 305      D848CDD5 
 305      BF2259B1 
 305      852AD788 
 305      5194
 306 0221 CA3108BE 		.ascii	"\3121\010\276\246\252wM\251\327\303\352\235\256/n\345"
 306      A6AA774D 
 306      A9D7C3EA 
 306      9DAE2F6E 
 306      E5
 307 0232 C3E04B60 		.ascii	"\303\340K`\2559\304^\371\271\342s-dC\015}LC/\226E,\006"
 307      AD39C45E 
 307      F9B9E273 
ARM GAS  C:\Users\victo\AppData\Local\Temp\ccIqk2i6.s 			page 23


 307      2D64430D 
 307      7D4C432F 
 308 024a 9E0E4790 		.ascii	"\236\016G\220&ID\311\344\362\025\014\"\026\332kK\232"
 308      264944C9 
 308      E4F2150C 
 308      2216DA6B 
 308      4B9A
 309 025c 94130300 		.ascii	"\224\023\003\000\367\253\024\364+\012\034L\201\342\035"
 309      F7AB14F4 
 309      2B0A1C4C 
 309      81E21D
 310 026b 93E49D33 		.ascii	"\223\344\2353\023\325\203\204M\203\214r\366\306\251"
 310      13D58384 
 310      4D838C72 
 310      F6C6A9
 311 027a 53DBC820 		.ascii	"S\333\310 \343\347\346\347+W\010\346\343\230C\374\025"
 311      E3E7E6E7 
 311      2B5708E6 
 311      E39843FC 
 311      15
 312 028b 22D98D70 		.ascii	"\"\331\215p|4\336\003\376\030\004\177\230d\177\\\007"
 312      7C34DE03 
 312      FE18047F 
 312      98647F5C 
 312      07
 313 029c B1DF8358 		.ascii	"\261\337\203X\311l~\311l\003p\276\033!\263\231\370U"
 313      C96C7EC9 
 313      6C0370BE 
 313      1B21B399 
 313      F855
 314 02ae F77AABED 		.ascii	"\367z\253\355\001\236\2279\355\233pB\376\217+/+\015"
 314      019E9739 
 314      ED9B7042 
 314      FE8F2B2F 
 314      2B0D
 315 02c0 C6D3AB2E 		.ascii	"\306\323\253.\305N\240V\214\212\360Ml\224\211\265\232"
 315      C54EA056 
 315      8C8AF04D 
 315      6C9489B5 
 315      9A
 316 02d1 BB5CD730 		.ascii	"\273\\\3270m`k\220\207\2070[\\\272<S\022\276a\307GX"
 316      6D606B90 
 316      8787305B 
 316      5CBA3C53 
 316      12BE61C7 
 317 02e7 C787958E 		.ascii	"\307\207\225\216\227<\374\247\223#.\251\343S]\277\226"
 317      973CFCA7 
 317      93232EA9 
 317      E3535DBF 
 317      96
 318 02f8 11D9A845 		.ascii	"\021\331\250E\213i*\243\002\012\273Tmw)m\037em\257)"
 318      8B692AA3 
 318      020ABB54 
 318      6D77296D 
 318      1F656DAF 
 319 030d 7F3A40C8 		.ascii	"\177:@\310=\211\305\177\307}o\207d\236\245RW\310<\324"
 319      3D89C57F 
ARM GAS  C:\Users\victo\AppData\Local\Temp\ccIqk2i6.s 			page 24


 319      C77D6F87 
 319      649EA552 
 319      57C83CD4 
 320 0321 AC632A8E 		.ascii	"\254c*\2161\205c\234q\014;\246\374:\362B\342p>y\374"
 320      3185639C 
 320      710C3BA6 
 320      FC3AF242 
 320      E2703E79 
 321 0336 5272FBC2 		.ascii	"Rr\373\302\230g\235\001'T\034\023\012\207\233q\314}"
 321      98679D01 
 321      27541C13 
 321      0A879B71 
 321      CC7D
 322 0348 551A3092 		.ascii	"U\0320\222\012\351\202\371\343\033O\271A\3428S6\262"
 322      0AE982F9 
 322      E31B4FB9 
 322      41E23853 
 322      36B2
 323 035a 568747C5 		.ascii	"V\207G\305\341Q8\274\214\343\256\323\351$\244E\3428"
 323      E15138BC 
 323      8CE3AED3 
 323      E924A445 
 323      E238
 324 036c 5FE971C8 		.ascii	"_\351q\310_\235\243M\375\325M\252\010&\025\202)F`\257"
 324      5F9DA34D 
 324      FDD54DAA 
 324      08261582 
 324      294660AF 
 325 0380 E85ED491 		.ascii	"\350^\324\221!\211\240\367\354\264\213\331\241h\213"
 325      2189A0F7 
 325      ECB48BD9 
 325      A1688B
 326 038f 971037D0 		.ascii	"\227\0207\320Q\376\312\270z\271U\375r\260X|\037\373"
 326      51FECAB8 
 326      7AB955FD 
 326      72B0587C 
 326      1FFB
 327 03a1 E0954F87 		.ascii	"\340\225O\207\374v\013\207n\267\327\211g\264o\267G?"
 327      FC760B87 
 327      6EB7D789 
 327      67B46FB7 
 327      473F
 328 03b3 5F7CA557 		.ascii	"_|\245W;\315\267\306i\267%\247\321\177H\276\360\333"
 328      3BCDB7C6 
 328      69B725A7 
 328      D17F48BE 
 328      F0DB
 329 03c5 DD2FB6A9 		.ascii	"\335/\266\251\223\351\207\027J\236\225\223\351\277>"
 329      93E98717 
 329      4A9E9593 
 329      E9BF3E
 330 03d4 DF926BDB 		.ascii	"\337\222k\333\233\250O\37603&\011\305&\013\271\202\325"
 330      9BA84FFE 
 330      30332609 
 330      C5260BB9 
 330      82D5
 331 03e6 6C130E67 		.ascii	"l\023\016g\247\037\317\267\346\010Y\251\351\307\223"
ARM GAS  C:\Users\victo\AppData\Local\Temp\ccIqk2i6.s 			page 25


 331      A71FCFB7 
 331      E60859A9 
 331      E9C793
 332 03f5 DE7D27A7 		.ascii	"\336}'\247\320VxB\310K8\212L\231\373\3232\262\323OX"
 332      D0567842 
 332      C84B388A 
 332      4C99FBD3 
 332      32B2D34F 
 333 040a 32CD565B 		.ascii	"2\315V[\232`>\234Vp\300l3\357I\310\322\206fI\371\251"
 333      9A603E9C 
 333      5670C06C 
 333      33EF49C8 
 333      D2866649 
 334 0420 29D9F421 		.ascii	")\331\364!!\007\275\251&H\026li\005\037\344\0379\"X"
 334      2107BDA9 
 334      2648166C 
 334      69051FE4 
 334      1F392258 
 335 0434 D32D9F09 		.ascii	"\323-\237\011o\250\367\222\216\011f\253\262\033\245"
 335      6FA8F792 
 335      8E0966AB 
 335      B21BA5
 336 0443 DEF9C86A 		.ascii	"\336\371\310j\261\011\031\254\256\216\312\337\267K\275"
 336      B10919AC 
 336      AE8ECADF 
 336      B74BBD
 337 0452 9B9A6FDB 		.ascii	"\233\232o\333o\265\232\013\327\027\312\370\337B\312"
 337      6FB59A0B 
 337      D717CAF8 
 337      DF42CA
 338 0461 EE6EF5CE 		.ascii	"\356n\365\316\001K\236\371\223cBJ.\250\334`#\243@g\025"
 338      014B9EF9 
 338      9363424A 
 338      2EA8DC60 
 338      23A34067 
 339 0476 3EDD9BF8 		.ascii	">\335\233\370\037\210\221{\360"
 339      1F88917B 
 339      F0
 340              		.text
 341              		.section	.gnu.lto_.symtab.797e4622,"",%progbits
 342 0000 55415254 		.ascii	"UART_SpiUartReadRxData\000\000\000\000\000\000\000\000"
 342      5F537069 
 342      55617274 
 342      52656164 
 342      52784461 
 343 001e 00000000 		.ascii	"\000\000\000\000\263\000\000\000UART_SpiUartGetRxBu"
 343      B3000000 
 343      55415254 
 343      5F537069 
 343      55617274 
 344 0039 66666572 		.ascii	"fferSize\000\000\000\000\000\000\000\000\000\000\000"
 344      53697A65 
 344      00000000 
 344      00000000 
 344      000000
 345 004c 00B50000 		.ascii	"\000\265\000\000\000UART_SpiUartClearRxBuffer\000\000"
 345      00554152 
ARM GAS  C:\Users\victo\AppData\Local\Temp\ccIqk2i6.s 			page 26


 345      545F5370 
 345      69556172 
 345      74436C65 
 346 006c 00000000 		.ascii	"\000\000\000\000\000\000\000\000\000\000\270\000\000"
 346      00000000 
 346      0000B800 
 346      00
 347 0079 00554152 		.ascii	"\000UART_SpiUartWriteTxData\000\000\000\000\000\000"
 347      545F5370 
 347      69556172 
 347      74577269 
 347      74655478 
 348 0097 00000000 		.ascii	"\000\000\000\000\000\000\274\000\000\000UART_SpiUar"
 348      0000BC00 
 348      00005541 
 348      52545F53 
 348      70695561 
 349 00ac 74507574 		.ascii	"tPutArray\000\000\000\000\000\000\000\000\000\000\000"
 349      41727261 
 349      79000000 
 349      00000000 
 349      00000000 
 350 00c0 00C80000 		.ascii	"\000\310\000\000\000UART_SpiUartGetTxBufferSize\000"
 350      00554152 
 350      545F5370 
 350      69556172 
 350      74476574 
 351 00e1 00000000 		.ascii	"\000\000\000\000\000\000\000\000\000\000\000\312\000"
 351      00000000 
 351      000000CA 
 351      00
 352 00ee 00005541 		.ascii	"\000\000UART_SpiUartClearTxBuffer\000\000\000\000\000"
 352      52545F53 
 352      70695561 
 352      7274436C 
 352      65617254 
 353 010e 00000000 		.ascii	"\000\000\000\000\000\000\000\314\000\000\000UART_Sp"
 353      000000CC 
 353      00000055 
 353      4152545F 
 353      5370
 354 0120 69556172 		.ascii	"iUartDisableIntRx\000\000\000\000\000\000\000\000\000"
 354      74446973 
 354      61626C65 
 354      496E7452 
 354      78000000 
 355 013a 000000CE 		.ascii	"\000\000\000\316\000\000\000UART_SpiUartDisableIntT"
 355      00000055 
 355      4152545F 
 355      53706955 
 355      61727444 
 356 0158 78000000 		.ascii	"x\000\000\000\000\000\000\000\000\000\000\000\000\320"
 356      00000000 
 356      00000000 
 356      00D0
 357 0166 000000   		.ascii	"\000\000\000"
 358              		.text
ARM GAS  C:\Users\victo\AppData\Local\Temp\ccIqk2i6.s 			page 27


 359              		.section	.gnu.lto_.opts,"",%progbits
 360 0000 272D666E 		.ascii	"'-fno-trapv' '-mcpu=cortex-m0' '-mthumb' '-g' '-Os'"
 360      6F2D7472 
 360      61707627 
 360      20272D6D 
 360      6370753D 
 361 0033 20272D57 		.ascii	" '-Werror' '-ffunction-sections' '-finline-function"
 361      6572726F 
 361      72272027 
 361      2D666675 
 361      6E637469 
 362 0066 73272027 		.ascii	"s' '-flto' '-ffat-lto-objects' '-fno-strict-aliasin"
 362      2D666C74 
 362      6F272027 
 362      2D666661 
 362      742D6C74 
 363 0099 672700   		.ascii	"g'\000"
 364              		.text
 365              		.cfi_sections	.debug_frame
 366              		.section	.text.UART_SpiUartReadRxData,"ax",%progbits
 367              		.align	1
 368              		.global	UART_SpiUartReadRxData
 369              		.code	16
 370              		.thumb_func
 371              		.type	UART_SpiUartReadRxData, %function
 372              	UART_SpiUartReadRxData:
 373              	.LFB0:
 374              		.file 1 ".\\Generated_Source\\PSoC4\\UART_SPI_UART.c"
   1:.\Generated_Source\PSoC4/UART_SPI_UART.c **** /***************************************************************************//**
   2:.\Generated_Source\PSoC4/UART_SPI_UART.c **** * \file UART_SPI_UART.c
   3:.\Generated_Source\PSoC4/UART_SPI_UART.c **** * \version 3.20
   4:.\Generated_Source\PSoC4/UART_SPI_UART.c **** *
   5:.\Generated_Source\PSoC4/UART_SPI_UART.c **** * \brief
   6:.\Generated_Source\PSoC4/UART_SPI_UART.c **** *  This file provides the source code to the API for the SCB Component in
   7:.\Generated_Source\PSoC4/UART_SPI_UART.c **** *  SPI and UART modes.
   8:.\Generated_Source\PSoC4/UART_SPI_UART.c **** *
   9:.\Generated_Source\PSoC4/UART_SPI_UART.c **** * Note:
  10:.\Generated_Source\PSoC4/UART_SPI_UART.c **** *
  11:.\Generated_Source\PSoC4/UART_SPI_UART.c **** *******************************************************************************
  12:.\Generated_Source\PSoC4/UART_SPI_UART.c **** * \copyright
  13:.\Generated_Source\PSoC4/UART_SPI_UART.c **** * Copyright 2013-2016, Cypress Semiconductor Corporation.  All rights reserved.
  14:.\Generated_Source\PSoC4/UART_SPI_UART.c **** * You may use this file only in accordance with the license, terms, conditions,
  15:.\Generated_Source\PSoC4/UART_SPI_UART.c **** * disclaimers, and limitations in the end user license agreement accompanying
  16:.\Generated_Source\PSoC4/UART_SPI_UART.c **** * the software package with which this file was provided.
  17:.\Generated_Source\PSoC4/UART_SPI_UART.c **** *******************************************************************************/
  18:.\Generated_Source\PSoC4/UART_SPI_UART.c **** 
  19:.\Generated_Source\PSoC4/UART_SPI_UART.c **** #include "UART_PVT.h"
  20:.\Generated_Source\PSoC4/UART_SPI_UART.c **** #include "UART_SPI_UART_PVT.h"
  21:.\Generated_Source\PSoC4/UART_SPI_UART.c **** 
  22:.\Generated_Source\PSoC4/UART_SPI_UART.c **** /***************************************
  23:.\Generated_Source\PSoC4/UART_SPI_UART.c **** *        SPI/UART Private Vars
  24:.\Generated_Source\PSoC4/UART_SPI_UART.c **** ***************************************/
  25:.\Generated_Source\PSoC4/UART_SPI_UART.c **** 
  26:.\Generated_Source\PSoC4/UART_SPI_UART.c **** #if(UART_INTERNAL_RX_SW_BUFFER_CONST)
  27:.\Generated_Source\PSoC4/UART_SPI_UART.c ****     /* Start index to put data into the software receive buffer.*/
  28:.\Generated_Source\PSoC4/UART_SPI_UART.c ****     volatile uint32 UART_rxBufferHead;
  29:.\Generated_Source\PSoC4/UART_SPI_UART.c ****     /* Start index to get data from the software receive buffer.*/
ARM GAS  C:\Users\victo\AppData\Local\Temp\ccIqk2i6.s 			page 28


  30:.\Generated_Source\PSoC4/UART_SPI_UART.c ****     volatile uint32 UART_rxBufferTail;
  31:.\Generated_Source\PSoC4/UART_SPI_UART.c ****     /**
  32:.\Generated_Source\PSoC4/UART_SPI_UART.c ****     * \addtogroup group_globals
  33:.\Generated_Source\PSoC4/UART_SPI_UART.c ****     * \{
  34:.\Generated_Source\PSoC4/UART_SPI_UART.c ****     */
  35:.\Generated_Source\PSoC4/UART_SPI_UART.c ****     /** Sets when internal software receive buffer overflow
  36:.\Generated_Source\PSoC4/UART_SPI_UART.c ****     *  was occurred.
  37:.\Generated_Source\PSoC4/UART_SPI_UART.c ****     */
  38:.\Generated_Source\PSoC4/UART_SPI_UART.c ****     volatile uint8  UART_rxBufferOverflow;
  39:.\Generated_Source\PSoC4/UART_SPI_UART.c ****     /** \} globals */
  40:.\Generated_Source\PSoC4/UART_SPI_UART.c **** #endif /* (UART_INTERNAL_RX_SW_BUFFER_CONST) */
  41:.\Generated_Source\PSoC4/UART_SPI_UART.c **** 
  42:.\Generated_Source\PSoC4/UART_SPI_UART.c **** #if(UART_INTERNAL_TX_SW_BUFFER_CONST)
  43:.\Generated_Source\PSoC4/UART_SPI_UART.c ****     /* Start index to put data into the software transmit buffer.*/
  44:.\Generated_Source\PSoC4/UART_SPI_UART.c ****     volatile uint32 UART_txBufferHead;
  45:.\Generated_Source\PSoC4/UART_SPI_UART.c ****     /* Start index to get data from the software transmit buffer.*/
  46:.\Generated_Source\PSoC4/UART_SPI_UART.c ****     volatile uint32 UART_txBufferTail;
  47:.\Generated_Source\PSoC4/UART_SPI_UART.c **** #endif /* (UART_INTERNAL_TX_SW_BUFFER_CONST) */
  48:.\Generated_Source\PSoC4/UART_SPI_UART.c **** 
  49:.\Generated_Source\PSoC4/UART_SPI_UART.c **** #if(UART_INTERNAL_RX_SW_BUFFER)
  50:.\Generated_Source\PSoC4/UART_SPI_UART.c ****     /* Add one element to the buffer to receive full packet. One byte in receive buffer is always e
  51:.\Generated_Source\PSoC4/UART_SPI_UART.c ****     volatile uint8 UART_rxBufferInternal[UART_INTERNAL_RX_BUFFER_SIZE];
  52:.\Generated_Source\PSoC4/UART_SPI_UART.c **** #endif /* (UART_INTERNAL_RX_SW_BUFFER) */
  53:.\Generated_Source\PSoC4/UART_SPI_UART.c **** 
  54:.\Generated_Source\PSoC4/UART_SPI_UART.c **** #if(UART_INTERNAL_TX_SW_BUFFER)
  55:.\Generated_Source\PSoC4/UART_SPI_UART.c ****     volatile uint8 UART_txBufferInternal[UART_TX_BUFFER_SIZE];
  56:.\Generated_Source\PSoC4/UART_SPI_UART.c **** #endif /* (UART_INTERNAL_TX_SW_BUFFER) */
  57:.\Generated_Source\PSoC4/UART_SPI_UART.c **** 
  58:.\Generated_Source\PSoC4/UART_SPI_UART.c **** 
  59:.\Generated_Source\PSoC4/UART_SPI_UART.c **** #if(UART_RX_DIRECTION)
  60:.\Generated_Source\PSoC4/UART_SPI_UART.c ****     /*******************************************************************************
  61:.\Generated_Source\PSoC4/UART_SPI_UART.c ****     * Function Name: UART_SpiUartReadRxData
  62:.\Generated_Source\PSoC4/UART_SPI_UART.c ****     ****************************************************************************//**
  63:.\Generated_Source\PSoC4/UART_SPI_UART.c ****     *
  64:.\Generated_Source\PSoC4/UART_SPI_UART.c ****     *  Retrieves the next data element from the receive buffer.
  65:.\Generated_Source\PSoC4/UART_SPI_UART.c ****     *   - RX software buffer is disabled: Returns data element retrieved from
  66:.\Generated_Source\PSoC4/UART_SPI_UART.c ****     *     RX FIFO. Undefined data will be returned if the RX FIFO is empty.
  67:.\Generated_Source\PSoC4/UART_SPI_UART.c ****     *   - RX software buffer is enabled: Returns data element from the software
  68:.\Generated_Source\PSoC4/UART_SPI_UART.c ****     *     receive buffer. Zero value is returned if the software receive buffer
  69:.\Generated_Source\PSoC4/UART_SPI_UART.c ****     *     is empty.
  70:.\Generated_Source\PSoC4/UART_SPI_UART.c ****     *
  71:.\Generated_Source\PSoC4/UART_SPI_UART.c ****     * \return
  72:.\Generated_Source\PSoC4/UART_SPI_UART.c ****     *  Next data element from the receive buffer. 
  73:.\Generated_Source\PSoC4/UART_SPI_UART.c ****     *  The amount of data bits to be received depends on RX data bits selection 
  74:.\Generated_Source\PSoC4/UART_SPI_UART.c ****     *  (the data bit counting starts from LSB of return value).
  75:.\Generated_Source\PSoC4/UART_SPI_UART.c ****     *
  76:.\Generated_Source\PSoC4/UART_SPI_UART.c ****     * \globalvars
  77:.\Generated_Source\PSoC4/UART_SPI_UART.c ****     *  UART_rxBufferHead - the start index to put data into the 
  78:.\Generated_Source\PSoC4/UART_SPI_UART.c ****     *  software receive buffer.
  79:.\Generated_Source\PSoC4/UART_SPI_UART.c ****     *  UART_rxBufferTail - the start index to get data from the 
  80:.\Generated_Source\PSoC4/UART_SPI_UART.c ****     *  software receive buffer.
  81:.\Generated_Source\PSoC4/UART_SPI_UART.c ****     *
  82:.\Generated_Source\PSoC4/UART_SPI_UART.c ****     *******************************************************************************/
  83:.\Generated_Source\PSoC4/UART_SPI_UART.c ****     uint32 UART_SpiUartReadRxData(void)
  84:.\Generated_Source\PSoC4/UART_SPI_UART.c ****     {
 375              		.loc 1 84 0
 376              		.cfi_startproc
ARM GAS  C:\Users\victo\AppData\Local\Temp\ccIqk2i6.s 			page 29


 377              	.LVL0:
  85:.\Generated_Source\PSoC4/UART_SPI_UART.c ****         uint32 rxData = 0u;
  86:.\Generated_Source\PSoC4/UART_SPI_UART.c **** 
  87:.\Generated_Source\PSoC4/UART_SPI_UART.c ****     #if (UART_INTERNAL_RX_SW_BUFFER_CONST)
  88:.\Generated_Source\PSoC4/UART_SPI_UART.c ****         uint32 locTail;
  89:.\Generated_Source\PSoC4/UART_SPI_UART.c ****     #endif /* (UART_INTERNAL_RX_SW_BUFFER_CONST) */
  90:.\Generated_Source\PSoC4/UART_SPI_UART.c **** 
  91:.\Generated_Source\PSoC4/UART_SPI_UART.c ****         #if (UART_CHECK_RX_SW_BUFFER)
  92:.\Generated_Source\PSoC4/UART_SPI_UART.c ****         {
  93:.\Generated_Source\PSoC4/UART_SPI_UART.c ****             if (UART_rxBufferHead != UART_rxBufferTail)
  94:.\Generated_Source\PSoC4/UART_SPI_UART.c ****             {
  95:.\Generated_Source\PSoC4/UART_SPI_UART.c ****                 /* There is data in RX software buffer */
  96:.\Generated_Source\PSoC4/UART_SPI_UART.c **** 
  97:.\Generated_Source\PSoC4/UART_SPI_UART.c ****                 /* Calculate index to read from */
  98:.\Generated_Source\PSoC4/UART_SPI_UART.c ****                 locTail = (UART_rxBufferTail + 1u);
  99:.\Generated_Source\PSoC4/UART_SPI_UART.c **** 
 100:.\Generated_Source\PSoC4/UART_SPI_UART.c ****                 if (UART_INTERNAL_RX_BUFFER_SIZE == locTail)
 101:.\Generated_Source\PSoC4/UART_SPI_UART.c ****                 {
 102:.\Generated_Source\PSoC4/UART_SPI_UART.c ****                     locTail = 0u;
 103:.\Generated_Source\PSoC4/UART_SPI_UART.c ****                 }
 104:.\Generated_Source\PSoC4/UART_SPI_UART.c **** 
 105:.\Generated_Source\PSoC4/UART_SPI_UART.c ****                 /* Get data from RX software buffer */
 106:.\Generated_Source\PSoC4/UART_SPI_UART.c ****                 rxData = UART_GetWordFromRxBuffer(locTail);
 107:.\Generated_Source\PSoC4/UART_SPI_UART.c **** 
 108:.\Generated_Source\PSoC4/UART_SPI_UART.c ****                 /* Change index in the buffer */
 109:.\Generated_Source\PSoC4/UART_SPI_UART.c ****                 UART_rxBufferTail = locTail;
 110:.\Generated_Source\PSoC4/UART_SPI_UART.c **** 
 111:.\Generated_Source\PSoC4/UART_SPI_UART.c ****                 #if (UART_CHECK_UART_RTS_CONTROL_FLOW)
 112:.\Generated_Source\PSoC4/UART_SPI_UART.c ****                 {
 113:.\Generated_Source\PSoC4/UART_SPI_UART.c ****                     /* Check if RX Not Empty is disabled in the interrupt */
 114:.\Generated_Source\PSoC4/UART_SPI_UART.c ****                     if (0u == (UART_INTR_RX_MASK_REG & UART_INTR_RX_NOT_EMPTY))
 115:.\Generated_Source\PSoC4/UART_SPI_UART.c ****                     {
 116:.\Generated_Source\PSoC4/UART_SPI_UART.c ****                         /* Enable RX Not Empty interrupt source to continue
 117:.\Generated_Source\PSoC4/UART_SPI_UART.c ****                         * receiving data into software buffer.
 118:.\Generated_Source\PSoC4/UART_SPI_UART.c ****                         */
 119:.\Generated_Source\PSoC4/UART_SPI_UART.c ****                         UART_INTR_RX_MASK_REG |= UART_INTR_RX_NOT_EMPTY;
 120:.\Generated_Source\PSoC4/UART_SPI_UART.c ****                     }
 121:.\Generated_Source\PSoC4/UART_SPI_UART.c ****                 }
 122:.\Generated_Source\PSoC4/UART_SPI_UART.c ****                 #endif
 123:.\Generated_Source\PSoC4/UART_SPI_UART.c **** 
 124:.\Generated_Source\PSoC4/UART_SPI_UART.c ****             }
 125:.\Generated_Source\PSoC4/UART_SPI_UART.c ****         }
 126:.\Generated_Source\PSoC4/UART_SPI_UART.c ****         #else
 127:.\Generated_Source\PSoC4/UART_SPI_UART.c ****         {
 128:.\Generated_Source\PSoC4/UART_SPI_UART.c ****             /* Read data from RX FIFO */
 129:.\Generated_Source\PSoC4/UART_SPI_UART.c ****             rxData = UART_RX_FIFO_RD_REG;
 378              		.loc 1 129 0
 379 0000 014B     		ldr	r3, .L2
 130:.\Generated_Source\PSoC4/UART_SPI_UART.c ****         }
 131:.\Generated_Source\PSoC4/UART_SPI_UART.c ****         #endif
 132:.\Generated_Source\PSoC4/UART_SPI_UART.c **** 
 133:.\Generated_Source\PSoC4/UART_SPI_UART.c ****         return (rxData);
 134:.\Generated_Source\PSoC4/UART_SPI_UART.c ****     }
 380              		.loc 1 134 0
 381              		@ sp needed
 129:.\Generated_Source\PSoC4/UART_SPI_UART.c ****         }
 382              		.loc 1 129 0
ARM GAS  C:\Users\victo\AppData\Local\Temp\ccIqk2i6.s 			page 30


 383 0002 1868     		ldr	r0, [r3]
 384              	.LVL1:
 385              		.loc 1 134 0
 386 0004 7047     		bx	lr
 387              	.L3:
 388 0006 C046     		.align	2
 389              	.L2:
 390 0008 40030740 		.word	1074201408
 391              		.cfi_endproc
 392              	.LFE0:
 393              		.size	UART_SpiUartReadRxData, .-UART_SpiUartReadRxData
 394              		.section	.text.UART_SpiUartGetRxBufferSize,"ax",%progbits
 395              		.align	1
 396              		.global	UART_SpiUartGetRxBufferSize
 397              		.code	16
 398              		.thumb_func
 399              		.type	UART_SpiUartGetRxBufferSize, %function
 400              	UART_SpiUartGetRxBufferSize:
 401              	.LFB1:
 135:.\Generated_Source\PSoC4/UART_SPI_UART.c **** 
 136:.\Generated_Source\PSoC4/UART_SPI_UART.c **** 
 137:.\Generated_Source\PSoC4/UART_SPI_UART.c ****     /*******************************************************************************
 138:.\Generated_Source\PSoC4/UART_SPI_UART.c ****     * Function Name: UART_SpiUartGetRxBufferSize
 139:.\Generated_Source\PSoC4/UART_SPI_UART.c ****     ****************************************************************************//**
 140:.\Generated_Source\PSoC4/UART_SPI_UART.c ****     *
 141:.\Generated_Source\PSoC4/UART_SPI_UART.c ****     *  Returns the number of received data elements in the receive buffer.
 142:.\Generated_Source\PSoC4/UART_SPI_UART.c ****     *   - RX software buffer disabled: returns the number of used entries in
 143:.\Generated_Source\PSoC4/UART_SPI_UART.c ****     *     RX FIFO.
 144:.\Generated_Source\PSoC4/UART_SPI_UART.c ****     *   - RX software buffer enabled: returns the number of elements which were
 145:.\Generated_Source\PSoC4/UART_SPI_UART.c ****     *     placed in the receive buffer. This does not include the hardware RX FIFO.
 146:.\Generated_Source\PSoC4/UART_SPI_UART.c ****     *
 147:.\Generated_Source\PSoC4/UART_SPI_UART.c ****     * \return
 148:.\Generated_Source\PSoC4/UART_SPI_UART.c ****     *  Number of received data elements.
 149:.\Generated_Source\PSoC4/UART_SPI_UART.c ****     *
 150:.\Generated_Source\PSoC4/UART_SPI_UART.c ****     * \globalvars
 151:.\Generated_Source\PSoC4/UART_SPI_UART.c ****     *  UART_rxBufferHead - the start index to put data into the 
 152:.\Generated_Source\PSoC4/UART_SPI_UART.c ****     *  software receive buffer.
 153:.\Generated_Source\PSoC4/UART_SPI_UART.c ****     *  UART_rxBufferTail - the start index to get data from the 
 154:.\Generated_Source\PSoC4/UART_SPI_UART.c ****     *  software receive buffer.
 155:.\Generated_Source\PSoC4/UART_SPI_UART.c ****     *
 156:.\Generated_Source\PSoC4/UART_SPI_UART.c ****     *******************************************************************************/
 157:.\Generated_Source\PSoC4/UART_SPI_UART.c ****     uint32 UART_SpiUartGetRxBufferSize(void)
 158:.\Generated_Source\PSoC4/UART_SPI_UART.c ****     {
 402              		.loc 1 158 0
 403              		.cfi_startproc
 159:.\Generated_Source\PSoC4/UART_SPI_UART.c ****         uint32 size;
 160:.\Generated_Source\PSoC4/UART_SPI_UART.c ****     #if (UART_INTERNAL_RX_SW_BUFFER_CONST)
 161:.\Generated_Source\PSoC4/UART_SPI_UART.c ****         uint32 locHead;
 162:.\Generated_Source\PSoC4/UART_SPI_UART.c ****     #endif /* (UART_INTERNAL_RX_SW_BUFFER_CONST) */
 163:.\Generated_Source\PSoC4/UART_SPI_UART.c **** 
 164:.\Generated_Source\PSoC4/UART_SPI_UART.c ****         #if (UART_CHECK_RX_SW_BUFFER)
 165:.\Generated_Source\PSoC4/UART_SPI_UART.c ****         {
 166:.\Generated_Source\PSoC4/UART_SPI_UART.c ****             locHead = UART_rxBufferHead;
 167:.\Generated_Source\PSoC4/UART_SPI_UART.c **** 
 168:.\Generated_Source\PSoC4/UART_SPI_UART.c ****             if(locHead >= UART_rxBufferTail)
 169:.\Generated_Source\PSoC4/UART_SPI_UART.c ****             {
 170:.\Generated_Source\PSoC4/UART_SPI_UART.c ****                 size = (locHead - UART_rxBufferTail);
ARM GAS  C:\Users\victo\AppData\Local\Temp\ccIqk2i6.s 			page 31


 171:.\Generated_Source\PSoC4/UART_SPI_UART.c ****             }
 172:.\Generated_Source\PSoC4/UART_SPI_UART.c ****             else
 173:.\Generated_Source\PSoC4/UART_SPI_UART.c ****             {
 174:.\Generated_Source\PSoC4/UART_SPI_UART.c ****                 size = (locHead + (UART_INTERNAL_RX_BUFFER_SIZE - UART_rxBufferTail));
 175:.\Generated_Source\PSoC4/UART_SPI_UART.c ****             }
 176:.\Generated_Source\PSoC4/UART_SPI_UART.c ****         }
 177:.\Generated_Source\PSoC4/UART_SPI_UART.c ****         #else
 178:.\Generated_Source\PSoC4/UART_SPI_UART.c ****         {
 179:.\Generated_Source\PSoC4/UART_SPI_UART.c ****             size = UART_GET_RX_FIFO_ENTRIES;
 404              		.loc 1 179 0
 405 0000 024B     		ldr	r3, .L5
 180:.\Generated_Source\PSoC4/UART_SPI_UART.c ****         }
 181:.\Generated_Source\PSoC4/UART_SPI_UART.c ****         #endif
 182:.\Generated_Source\PSoC4/UART_SPI_UART.c **** 
 183:.\Generated_Source\PSoC4/UART_SPI_UART.c ****         return (size);
 184:.\Generated_Source\PSoC4/UART_SPI_UART.c ****     }
 406              		.loc 1 184 0
 407              		@ sp needed
 179:.\Generated_Source\PSoC4/UART_SPI_UART.c ****         }
 408              		.loc 1 179 0
 409 0002 1868     		ldr	r0, [r3]
 410              	.LVL2:
 411 0004 1F23     		mov	r3, #31
 412 0006 1840     		and	r0, r3
 413              	.LVL3:
 414              		.loc 1 184 0
 415 0008 7047     		bx	lr
 416              	.L6:
 417 000a C046     		.align	2
 418              	.L5:
 419 000c 08030740 		.word	1074201352
 420              		.cfi_endproc
 421              	.LFE1:
 422              		.size	UART_SpiUartGetRxBufferSize, .-UART_SpiUartGetRxBufferSize
 423              		.section	.text.UART_SpiUartClearRxBuffer,"ax",%progbits
 424              		.align	1
 425              		.global	UART_SpiUartClearRxBuffer
 426              		.code	16
 427              		.thumb_func
 428              		.type	UART_SpiUartClearRxBuffer, %function
 429              	UART_SpiUartClearRxBuffer:
 430              	.LFB2:
 185:.\Generated_Source\PSoC4/UART_SPI_UART.c **** 
 186:.\Generated_Source\PSoC4/UART_SPI_UART.c **** 
 187:.\Generated_Source\PSoC4/UART_SPI_UART.c ****     /*******************************************************************************
 188:.\Generated_Source\PSoC4/UART_SPI_UART.c ****     * Function Name: UART_SpiUartClearRxBuffer
 189:.\Generated_Source\PSoC4/UART_SPI_UART.c ****     ****************************************************************************//**
 190:.\Generated_Source\PSoC4/UART_SPI_UART.c ****     *
 191:.\Generated_Source\PSoC4/UART_SPI_UART.c ****     *  Clears the receive buffer and RX FIFO.
 192:.\Generated_Source\PSoC4/UART_SPI_UART.c ****     *
 193:.\Generated_Source\PSoC4/UART_SPI_UART.c ****     * \globalvars
 194:.\Generated_Source\PSoC4/UART_SPI_UART.c ****     *  UART_rxBufferHead - the start index to put data into the 
 195:.\Generated_Source\PSoC4/UART_SPI_UART.c ****     *  software receive buffer.
 196:.\Generated_Source\PSoC4/UART_SPI_UART.c ****     *  UART_rxBufferTail - the start index to get data from the 
 197:.\Generated_Source\PSoC4/UART_SPI_UART.c ****     *  software receive buffer.
 198:.\Generated_Source\PSoC4/UART_SPI_UART.c ****     *
 199:.\Generated_Source\PSoC4/UART_SPI_UART.c ****     *******************************************************************************/
ARM GAS  C:\Users\victo\AppData\Local\Temp\ccIqk2i6.s 			page 32


 200:.\Generated_Source\PSoC4/UART_SPI_UART.c ****     void UART_SpiUartClearRxBuffer(void)
 201:.\Generated_Source\PSoC4/UART_SPI_UART.c ****     {
 431              		.loc 1 201 0
 432              		.cfi_startproc
 202:.\Generated_Source\PSoC4/UART_SPI_UART.c ****         #if (UART_CHECK_RX_SW_BUFFER)
 203:.\Generated_Source\PSoC4/UART_SPI_UART.c ****         {
 204:.\Generated_Source\PSoC4/UART_SPI_UART.c ****             /* Lock from component interruption */
 205:.\Generated_Source\PSoC4/UART_SPI_UART.c ****             UART_DisableInt();
 206:.\Generated_Source\PSoC4/UART_SPI_UART.c **** 
 207:.\Generated_Source\PSoC4/UART_SPI_UART.c ****             /* Flush RX software buffer */
 208:.\Generated_Source\PSoC4/UART_SPI_UART.c ****             UART_rxBufferHead = UART_rxBufferTail;
 209:.\Generated_Source\PSoC4/UART_SPI_UART.c ****             UART_rxBufferOverflow = 0u;
 210:.\Generated_Source\PSoC4/UART_SPI_UART.c **** 
 211:.\Generated_Source\PSoC4/UART_SPI_UART.c ****             UART_CLEAR_RX_FIFO;
 212:.\Generated_Source\PSoC4/UART_SPI_UART.c ****             UART_ClearRxInterruptSource(UART_INTR_RX_ALL);
 213:.\Generated_Source\PSoC4/UART_SPI_UART.c **** 
 214:.\Generated_Source\PSoC4/UART_SPI_UART.c ****             #if (UART_CHECK_UART_RTS_CONTROL_FLOW)
 215:.\Generated_Source\PSoC4/UART_SPI_UART.c ****             {
 216:.\Generated_Source\PSoC4/UART_SPI_UART.c ****                 /* Enable RX Not Empty interrupt source to continue receiving
 217:.\Generated_Source\PSoC4/UART_SPI_UART.c ****                 * data into software buffer.
 218:.\Generated_Source\PSoC4/UART_SPI_UART.c ****                 */
 219:.\Generated_Source\PSoC4/UART_SPI_UART.c ****                 UART_INTR_RX_MASK_REG |= UART_INTR_RX_NOT_EMPTY;
 220:.\Generated_Source\PSoC4/UART_SPI_UART.c ****             }
 221:.\Generated_Source\PSoC4/UART_SPI_UART.c ****             #endif
 222:.\Generated_Source\PSoC4/UART_SPI_UART.c ****             
 223:.\Generated_Source\PSoC4/UART_SPI_UART.c ****             /* Release lock */
 224:.\Generated_Source\PSoC4/UART_SPI_UART.c ****             UART_EnableInt();
 225:.\Generated_Source\PSoC4/UART_SPI_UART.c ****         }
 226:.\Generated_Source\PSoC4/UART_SPI_UART.c ****         #else
 227:.\Generated_Source\PSoC4/UART_SPI_UART.c ****         {
 228:.\Generated_Source\PSoC4/UART_SPI_UART.c ****             UART_CLEAR_RX_FIFO;
 433              		.loc 1 228 0
 434 0000 8021     		mov	r1, #128
 435 0002 054B     		ldr	r3, .L8
 436 0004 4902     		lsl	r1, r1, #9
 437 0006 1A68     		ldr	r2, [r3]
 229:.\Generated_Source\PSoC4/UART_SPI_UART.c ****         }
 230:.\Generated_Source\PSoC4/UART_SPI_UART.c ****         #endif
 231:.\Generated_Source\PSoC4/UART_SPI_UART.c ****     }
 438              		.loc 1 231 0
 439              		@ sp needed
 228:.\Generated_Source\PSoC4/UART_SPI_UART.c ****         }
 440              		.loc 1 228 0
 441 0008 0A43     		orr	r2, r1
 442 000a 1A60     		str	r2, [r3]
 443 000c 1968     		ldr	r1, [r3]
 444 000e 034A     		ldr	r2, .L8+4
 445 0010 0A40     		and	r2, r1
 446 0012 1A60     		str	r2, [r3]
 447              		.loc 1 231 0
 448 0014 7047     		bx	lr
 449              	.L9:
 450 0016 C046     		.align	2
 451              	.L8:
 452 0018 04030740 		.word	1074201348
 453 001c FFFFFEFF 		.word	-65537
 454              		.cfi_endproc
ARM GAS  C:\Users\victo\AppData\Local\Temp\ccIqk2i6.s 			page 33


 455              	.LFE2:
 456              		.size	UART_SpiUartClearRxBuffer, .-UART_SpiUartClearRxBuffer
 457              		.section	.text.UART_SpiUartWriteTxData,"ax",%progbits
 458              		.align	1
 459              		.global	UART_SpiUartWriteTxData
 460              		.code	16
 461              		.thumb_func
 462              		.type	UART_SpiUartWriteTxData, %function
 463              	UART_SpiUartWriteTxData:
 464              	.LFB3:
 232:.\Generated_Source\PSoC4/UART_SPI_UART.c **** 
 233:.\Generated_Source\PSoC4/UART_SPI_UART.c **** #endif /* (UART_RX_DIRECTION) */
 234:.\Generated_Source\PSoC4/UART_SPI_UART.c **** 
 235:.\Generated_Source\PSoC4/UART_SPI_UART.c **** 
 236:.\Generated_Source\PSoC4/UART_SPI_UART.c **** #if(UART_TX_DIRECTION)
 237:.\Generated_Source\PSoC4/UART_SPI_UART.c ****     /*******************************************************************************
 238:.\Generated_Source\PSoC4/UART_SPI_UART.c ****     * Function Name: UART_SpiUartWriteTxData
 239:.\Generated_Source\PSoC4/UART_SPI_UART.c ****     ****************************************************************************//**
 240:.\Generated_Source\PSoC4/UART_SPI_UART.c ****     *
 241:.\Generated_Source\PSoC4/UART_SPI_UART.c ****     *  Places a data entry into the transmit buffer to be sent at the next available
 242:.\Generated_Source\PSoC4/UART_SPI_UART.c ****     *  bus time.
 243:.\Generated_Source\PSoC4/UART_SPI_UART.c ****     *  This function is blocking and waits until there is space available to put the
 244:.\Generated_Source\PSoC4/UART_SPI_UART.c ****     *  requested data in the transmit buffer.
 245:.\Generated_Source\PSoC4/UART_SPI_UART.c ****     *
 246:.\Generated_Source\PSoC4/UART_SPI_UART.c ****     *  \param txDataByte: the data to be transmitted.
 247:.\Generated_Source\PSoC4/UART_SPI_UART.c ****     *   The amount of data bits to be transmitted depends on TX data bits selection 
 248:.\Generated_Source\PSoC4/UART_SPI_UART.c ****     *   (the data bit counting starts from LSB of txDataByte).
 249:.\Generated_Source\PSoC4/UART_SPI_UART.c ****     *
 250:.\Generated_Source\PSoC4/UART_SPI_UART.c ****     * \globalvars
 251:.\Generated_Source\PSoC4/UART_SPI_UART.c ****     *  UART_txBufferHead - the start index to put data into the 
 252:.\Generated_Source\PSoC4/UART_SPI_UART.c ****     *  software transmit buffer.
 253:.\Generated_Source\PSoC4/UART_SPI_UART.c ****     *  UART_txBufferTail - start index to get data from the software
 254:.\Generated_Source\PSoC4/UART_SPI_UART.c ****     *  transmit buffer.
 255:.\Generated_Source\PSoC4/UART_SPI_UART.c ****     *
 256:.\Generated_Source\PSoC4/UART_SPI_UART.c ****     *******************************************************************************/
 257:.\Generated_Source\PSoC4/UART_SPI_UART.c ****     void UART_SpiUartWriteTxData(uint32 txData)
 258:.\Generated_Source\PSoC4/UART_SPI_UART.c ****     {
 465              		.loc 1 258 0
 466              		.cfi_startproc
 467              	.LVL4:
 468              	.L11:
 259:.\Generated_Source\PSoC4/UART_SPI_UART.c ****     #if (UART_INTERNAL_TX_SW_BUFFER_CONST)
 260:.\Generated_Source\PSoC4/UART_SPI_UART.c ****         uint32 locHead;
 261:.\Generated_Source\PSoC4/UART_SPI_UART.c ****     #endif /* (UART_INTERNAL_TX_SW_BUFFER_CONST) */
 262:.\Generated_Source\PSoC4/UART_SPI_UART.c **** 
 263:.\Generated_Source\PSoC4/UART_SPI_UART.c ****         #if (UART_CHECK_TX_SW_BUFFER)
 264:.\Generated_Source\PSoC4/UART_SPI_UART.c ****         {
 265:.\Generated_Source\PSoC4/UART_SPI_UART.c ****             /* Put data directly into the TX FIFO */
 266:.\Generated_Source\PSoC4/UART_SPI_UART.c ****             if ((UART_txBufferHead == UART_txBufferTail) &&
 267:.\Generated_Source\PSoC4/UART_SPI_UART.c ****                 (UART_SPI_UART_FIFO_SIZE != UART_GET_TX_FIFO_ENTRIES))
 268:.\Generated_Source\PSoC4/UART_SPI_UART.c ****             {
 269:.\Generated_Source\PSoC4/UART_SPI_UART.c ****                 /* TX software buffer is empty: put data directly in TX FIFO */
 270:.\Generated_Source\PSoC4/UART_SPI_UART.c ****                 UART_TX_FIFO_WR_REG = txData;
 271:.\Generated_Source\PSoC4/UART_SPI_UART.c ****             }
 272:.\Generated_Source\PSoC4/UART_SPI_UART.c ****             /* Put data into TX software buffer */
 273:.\Generated_Source\PSoC4/UART_SPI_UART.c ****             else
 274:.\Generated_Source\PSoC4/UART_SPI_UART.c ****             {
ARM GAS  C:\Users\victo\AppData\Local\Temp\ccIqk2i6.s 			page 34


 275:.\Generated_Source\PSoC4/UART_SPI_UART.c ****                 /* Head index to put data */
 276:.\Generated_Source\PSoC4/UART_SPI_UART.c ****                 locHead = (UART_txBufferHead + 1u);
 277:.\Generated_Source\PSoC4/UART_SPI_UART.c **** 
 278:.\Generated_Source\PSoC4/UART_SPI_UART.c ****                 /* Adjust TX software buffer index */
 279:.\Generated_Source\PSoC4/UART_SPI_UART.c ****                 if (UART_TX_BUFFER_SIZE == locHead)
 280:.\Generated_Source\PSoC4/UART_SPI_UART.c ****                 {
 281:.\Generated_Source\PSoC4/UART_SPI_UART.c ****                     locHead = 0u;
 282:.\Generated_Source\PSoC4/UART_SPI_UART.c ****                 }
 283:.\Generated_Source\PSoC4/UART_SPI_UART.c **** 
 284:.\Generated_Source\PSoC4/UART_SPI_UART.c ****                 /* Wait for space in TX software buffer */
 285:.\Generated_Source\PSoC4/UART_SPI_UART.c ****                 while (locHead == UART_txBufferTail)
 286:.\Generated_Source\PSoC4/UART_SPI_UART.c ****                 {
 287:.\Generated_Source\PSoC4/UART_SPI_UART.c ****                 }
 288:.\Generated_Source\PSoC4/UART_SPI_UART.c **** 
 289:.\Generated_Source\PSoC4/UART_SPI_UART.c ****                 /* TX software buffer has at least one room */
 290:.\Generated_Source\PSoC4/UART_SPI_UART.c **** 
 291:.\Generated_Source\PSoC4/UART_SPI_UART.c ****                 /* Clear old status of INTR_TX_NOT_FULL. It sets at the end of transfer when TX FIF
 292:.\Generated_Source\PSoC4/UART_SPI_UART.c ****                 UART_ClearTxInterruptSource(UART_INTR_TX_NOT_FULL);
 293:.\Generated_Source\PSoC4/UART_SPI_UART.c **** 
 294:.\Generated_Source\PSoC4/UART_SPI_UART.c ****                 UART_PutWordInTxBuffer(locHead, txData);
 295:.\Generated_Source\PSoC4/UART_SPI_UART.c **** 
 296:.\Generated_Source\PSoC4/UART_SPI_UART.c ****                 UART_txBufferHead = locHead;
 297:.\Generated_Source\PSoC4/UART_SPI_UART.c **** 
 298:.\Generated_Source\PSoC4/UART_SPI_UART.c ****                 /* Check if TX Not Full is disabled in interrupt */
 299:.\Generated_Source\PSoC4/UART_SPI_UART.c ****                 if (0u == (UART_INTR_TX_MASK_REG & UART_INTR_TX_NOT_FULL))
 300:.\Generated_Source\PSoC4/UART_SPI_UART.c ****                 {
 301:.\Generated_Source\PSoC4/UART_SPI_UART.c ****                     /* Enable TX Not Full interrupt source to transmit from software buffer */
 302:.\Generated_Source\PSoC4/UART_SPI_UART.c ****                     UART_INTR_TX_MASK_REG |= (uint32) UART_INTR_TX_NOT_FULL;
 303:.\Generated_Source\PSoC4/UART_SPI_UART.c ****                 }
 304:.\Generated_Source\PSoC4/UART_SPI_UART.c ****             }
 305:.\Generated_Source\PSoC4/UART_SPI_UART.c ****         }
 306:.\Generated_Source\PSoC4/UART_SPI_UART.c ****         #else
 307:.\Generated_Source\PSoC4/UART_SPI_UART.c ****         {
 308:.\Generated_Source\PSoC4/UART_SPI_UART.c ****             /* Wait until TX FIFO has space to put data element */
 309:.\Generated_Source\PSoC4/UART_SPI_UART.c ****             while (UART_SPI_UART_FIFO_SIZE == UART_GET_TX_FIFO_ENTRIES)
 469              		.loc 1 309 0 discriminator 1
 470 0000 044B     		ldr	r3, .L14
 471 0002 1A68     		ldr	r2, [r3]
 472 0004 1F23     		mov	r3, #31
 473 0006 1340     		and	r3, r2
 474 0008 082B     		cmp	r3, #8
 475 000a F9D0     		beq	.L11
 310:.\Generated_Source\PSoC4/UART_SPI_UART.c ****             {
 311:.\Generated_Source\PSoC4/UART_SPI_UART.c ****             }
 312:.\Generated_Source\PSoC4/UART_SPI_UART.c **** 
 313:.\Generated_Source\PSoC4/UART_SPI_UART.c ****             UART_TX_FIFO_WR_REG = txData;
 476              		.loc 1 313 0
 477 000c 024B     		ldr	r3, .L14+4
 314:.\Generated_Source\PSoC4/UART_SPI_UART.c ****         }
 315:.\Generated_Source\PSoC4/UART_SPI_UART.c ****         #endif
 316:.\Generated_Source\PSoC4/UART_SPI_UART.c ****     }
 478              		.loc 1 316 0
 479              		@ sp needed
 313:.\Generated_Source\PSoC4/UART_SPI_UART.c ****         }
 480              		.loc 1 313 0
 481 000e 1860     		str	r0, [r3]
 482              		.loc 1 316 0
ARM GAS  C:\Users\victo\AppData\Local\Temp\ccIqk2i6.s 			page 35


 483 0010 7047     		bx	lr
 484              	.L15:
 485 0012 C046     		.align	2
 486              	.L14:
 487 0014 08020740 		.word	1074201096
 488 0018 40020740 		.word	1074201152
 489              		.cfi_endproc
 490              	.LFE3:
 491              		.size	UART_SpiUartWriteTxData, .-UART_SpiUartWriteTxData
 492              		.section	.text.UART_SpiUartPutArray,"ax",%progbits
 493              		.align	1
 494              		.global	UART_SpiUartPutArray
 495              		.code	16
 496              		.thumb_func
 497              		.type	UART_SpiUartPutArray, %function
 498              	UART_SpiUartPutArray:
 499              	.LFB4:
 317:.\Generated_Source\PSoC4/UART_SPI_UART.c **** 
 318:.\Generated_Source\PSoC4/UART_SPI_UART.c **** 
 319:.\Generated_Source\PSoC4/UART_SPI_UART.c ****     /*******************************************************************************
 320:.\Generated_Source\PSoC4/UART_SPI_UART.c ****     * Function Name: UART_SpiUartPutArray
 321:.\Generated_Source\PSoC4/UART_SPI_UART.c ****     ****************************************************************************//**
 322:.\Generated_Source\PSoC4/UART_SPI_UART.c ****     *
 323:.\Generated_Source\PSoC4/UART_SPI_UART.c ****     *  Places an array of data into the transmit buffer to be sent.
 324:.\Generated_Source\PSoC4/UART_SPI_UART.c ****     *  This function is blocking and waits until there is a space available to put
 325:.\Generated_Source\PSoC4/UART_SPI_UART.c ****     *  all the requested data in the transmit buffer. The array size can be greater
 326:.\Generated_Source\PSoC4/UART_SPI_UART.c ****     *  than transmit buffer size.
 327:.\Generated_Source\PSoC4/UART_SPI_UART.c ****     *
 328:.\Generated_Source\PSoC4/UART_SPI_UART.c ****     * \param wrBuf: pointer to an array of data to be placed in transmit buffer. 
 329:.\Generated_Source\PSoC4/UART_SPI_UART.c ****     *  The width of the data to be transmitted depends on TX data width selection 
 330:.\Generated_Source\PSoC4/UART_SPI_UART.c ****     *  (the data bit counting starts from LSB for each array element).
 331:.\Generated_Source\PSoC4/UART_SPI_UART.c ****     * \param count: number of data elements to be placed in the transmit buffer.
 332:.\Generated_Source\PSoC4/UART_SPI_UART.c ****     *
 333:.\Generated_Source\PSoC4/UART_SPI_UART.c ****     * \globalvars
 334:.\Generated_Source\PSoC4/UART_SPI_UART.c ****     *  UART_txBufferHead - the start index to put data into the 
 335:.\Generated_Source\PSoC4/UART_SPI_UART.c ****     *  software transmit buffer.
 336:.\Generated_Source\PSoC4/UART_SPI_UART.c ****     *  UART_txBufferTail - start index to get data from the software
 337:.\Generated_Source\PSoC4/UART_SPI_UART.c ****     *  transmit buffer.
 338:.\Generated_Source\PSoC4/UART_SPI_UART.c ****     *
 339:.\Generated_Source\PSoC4/UART_SPI_UART.c ****     *******************************************************************************/
 340:.\Generated_Source\PSoC4/UART_SPI_UART.c ****     void UART_SpiUartPutArray(const uint8 wrBuf[], uint32 count)
 341:.\Generated_Source\PSoC4/UART_SPI_UART.c ****     {
 500              		.loc 1 341 0
 501              		.cfi_startproc
 502              	.LVL5:
 503 0000 38B5     		push	{r3, r4, r5, lr}
 504              		.cfi_def_cfa_offset 16
 505              		.cfi_offset 3, -16
 506              		.cfi_offset 4, -12
 507              		.cfi_offset 5, -8
 508              		.cfi_offset 14, -4
 509 0002 041C     		mov	r4, r0
 510 0004 4518     		add	r5, r0, r1
 511              	.LVL6:
 512              	.L17:
 342:.\Generated_Source\PSoC4/UART_SPI_UART.c ****         uint32 i;
 343:.\Generated_Source\PSoC4/UART_SPI_UART.c **** 
ARM GAS  C:\Users\victo\AppData\Local\Temp\ccIqk2i6.s 			page 36


 344:.\Generated_Source\PSoC4/UART_SPI_UART.c ****         for (i=0u; i < count; i++)
 513              		.loc 1 344 0 discriminator 1
 514 0006 AC42     		cmp	r4, r5
 515 0008 04D0     		beq	.L19
 345:.\Generated_Source\PSoC4/UART_SPI_UART.c ****         {
 346:.\Generated_Source\PSoC4/UART_SPI_UART.c ****             UART_SpiUartWriteTxData((uint32) wrBuf[i]);
 516              		.loc 1 346 0 discriminator 3
 517 000a 2078     		ldrb	r0, [r4]
 518 000c FFF7FEFF 		bl	UART_SpiUartWriteTxData
 519              	.LVL7:
 520 0010 0134     		add	r4, r4, #1
 521              	.LVL8:
 522 0012 F8E7     		b	.L17
 523              	.L19:
 347:.\Generated_Source\PSoC4/UART_SPI_UART.c ****         }
 348:.\Generated_Source\PSoC4/UART_SPI_UART.c ****     }
 524              		.loc 1 348 0
 525              		@ sp needed
 526              	.LVL9:
 527 0014 38BD     		pop	{r3, r4, r5, pc}
 528              		.cfi_endproc
 529              	.LFE4:
 530              		.size	UART_SpiUartPutArray, .-UART_SpiUartPutArray
 531              		.section	.text.UART_SpiUartGetTxBufferSize,"ax",%progbits
 532              		.align	1
 533              		.global	UART_SpiUartGetTxBufferSize
 534              		.code	16
 535              		.thumb_func
 536              		.type	UART_SpiUartGetTxBufferSize, %function
 537              	UART_SpiUartGetTxBufferSize:
 538              	.LFB5:
 349:.\Generated_Source\PSoC4/UART_SPI_UART.c **** 
 350:.\Generated_Source\PSoC4/UART_SPI_UART.c **** 
 351:.\Generated_Source\PSoC4/UART_SPI_UART.c ****     /*******************************************************************************
 352:.\Generated_Source\PSoC4/UART_SPI_UART.c ****     * Function Name: UART_SpiUartGetTxBufferSize
 353:.\Generated_Source\PSoC4/UART_SPI_UART.c ****     ****************************************************************************//**
 354:.\Generated_Source\PSoC4/UART_SPI_UART.c ****     *
 355:.\Generated_Source\PSoC4/UART_SPI_UART.c ****     *  Returns the number of elements currently in the transmit buffer.
 356:.\Generated_Source\PSoC4/UART_SPI_UART.c ****     *   - TX software buffer is disabled: returns the number of used entries in
 357:.\Generated_Source\PSoC4/UART_SPI_UART.c ****     *     TX FIFO.
 358:.\Generated_Source\PSoC4/UART_SPI_UART.c ****     *   - TX software buffer is enabled: returns the number of elements currently
 359:.\Generated_Source\PSoC4/UART_SPI_UART.c ****     *     used in the transmit buffer. This number does not include used entries in
 360:.\Generated_Source\PSoC4/UART_SPI_UART.c ****     *     the TX FIFO. The transmit buffer size is zero until the TX FIFO is
 361:.\Generated_Source\PSoC4/UART_SPI_UART.c ****     *     not full.
 362:.\Generated_Source\PSoC4/UART_SPI_UART.c ****     *
 363:.\Generated_Source\PSoC4/UART_SPI_UART.c ****     * \return
 364:.\Generated_Source\PSoC4/UART_SPI_UART.c ****     *  Number of data elements ready to transmit.
 365:.\Generated_Source\PSoC4/UART_SPI_UART.c ****     *
 366:.\Generated_Source\PSoC4/UART_SPI_UART.c ****     * \globalvars
 367:.\Generated_Source\PSoC4/UART_SPI_UART.c ****     *  UART_txBufferHead - the start index to put data into the 
 368:.\Generated_Source\PSoC4/UART_SPI_UART.c ****     *  software transmit buffer.
 369:.\Generated_Source\PSoC4/UART_SPI_UART.c ****     *  UART_txBufferTail - start index to get data from the software
 370:.\Generated_Source\PSoC4/UART_SPI_UART.c ****     *  transmit buffer.
 371:.\Generated_Source\PSoC4/UART_SPI_UART.c ****     *
 372:.\Generated_Source\PSoC4/UART_SPI_UART.c ****     *******************************************************************************/
 373:.\Generated_Source\PSoC4/UART_SPI_UART.c ****     uint32 UART_SpiUartGetTxBufferSize(void)
 374:.\Generated_Source\PSoC4/UART_SPI_UART.c ****     {
ARM GAS  C:\Users\victo\AppData\Local\Temp\ccIqk2i6.s 			page 37


 539              		.loc 1 374 0
 540              		.cfi_startproc
 375:.\Generated_Source\PSoC4/UART_SPI_UART.c ****         uint32 size;
 376:.\Generated_Source\PSoC4/UART_SPI_UART.c ****     #if (UART_INTERNAL_TX_SW_BUFFER_CONST)
 377:.\Generated_Source\PSoC4/UART_SPI_UART.c ****         uint32 locTail;
 378:.\Generated_Source\PSoC4/UART_SPI_UART.c ****     #endif /* (UART_INTERNAL_TX_SW_BUFFER_CONST) */
 379:.\Generated_Source\PSoC4/UART_SPI_UART.c **** 
 380:.\Generated_Source\PSoC4/UART_SPI_UART.c ****         #if (UART_CHECK_TX_SW_BUFFER)
 381:.\Generated_Source\PSoC4/UART_SPI_UART.c ****         {
 382:.\Generated_Source\PSoC4/UART_SPI_UART.c ****             /* Get current Tail index */
 383:.\Generated_Source\PSoC4/UART_SPI_UART.c ****             locTail = UART_txBufferTail;
 384:.\Generated_Source\PSoC4/UART_SPI_UART.c **** 
 385:.\Generated_Source\PSoC4/UART_SPI_UART.c ****             if (UART_txBufferHead >= locTail)
 386:.\Generated_Source\PSoC4/UART_SPI_UART.c ****             {
 387:.\Generated_Source\PSoC4/UART_SPI_UART.c ****                 size = (UART_txBufferHead - locTail);
 388:.\Generated_Source\PSoC4/UART_SPI_UART.c ****             }
 389:.\Generated_Source\PSoC4/UART_SPI_UART.c ****             else
 390:.\Generated_Source\PSoC4/UART_SPI_UART.c ****             {
 391:.\Generated_Source\PSoC4/UART_SPI_UART.c ****                 size = (UART_txBufferHead + (UART_TX_BUFFER_SIZE - locTail));
 392:.\Generated_Source\PSoC4/UART_SPI_UART.c ****             }
 393:.\Generated_Source\PSoC4/UART_SPI_UART.c ****         }
 394:.\Generated_Source\PSoC4/UART_SPI_UART.c ****         #else
 395:.\Generated_Source\PSoC4/UART_SPI_UART.c ****         {
 396:.\Generated_Source\PSoC4/UART_SPI_UART.c ****             size = UART_GET_TX_FIFO_ENTRIES;
 541              		.loc 1 396 0
 542 0000 024B     		ldr	r3, .L21
 397:.\Generated_Source\PSoC4/UART_SPI_UART.c ****         }
 398:.\Generated_Source\PSoC4/UART_SPI_UART.c ****         #endif
 399:.\Generated_Source\PSoC4/UART_SPI_UART.c **** 
 400:.\Generated_Source\PSoC4/UART_SPI_UART.c ****         return (size);
 401:.\Generated_Source\PSoC4/UART_SPI_UART.c ****     }
 543              		.loc 1 401 0
 544              		@ sp needed
 396:.\Generated_Source\PSoC4/UART_SPI_UART.c ****         }
 545              		.loc 1 396 0
 546 0002 1868     		ldr	r0, [r3]
 547              	.LVL10:
 548 0004 1F23     		mov	r3, #31
 549 0006 1840     		and	r0, r3
 550              	.LVL11:
 551              		.loc 1 401 0
 552 0008 7047     		bx	lr
 553              	.L22:
 554 000a C046     		.align	2
 555              	.L21:
 556 000c 08020740 		.word	1074201096
 557              		.cfi_endproc
 558              	.LFE5:
 559              		.size	UART_SpiUartGetTxBufferSize, .-UART_SpiUartGetTxBufferSize
 560              		.section	.text.UART_SpiUartClearTxBuffer,"ax",%progbits
 561              		.align	1
 562              		.global	UART_SpiUartClearTxBuffer
 563              		.code	16
 564              		.thumb_func
 565              		.type	UART_SpiUartClearTxBuffer, %function
 566              	UART_SpiUartClearTxBuffer:
 567              	.LFB6:
ARM GAS  C:\Users\victo\AppData\Local\Temp\ccIqk2i6.s 			page 38


 402:.\Generated_Source\PSoC4/UART_SPI_UART.c **** 
 403:.\Generated_Source\PSoC4/UART_SPI_UART.c **** 
 404:.\Generated_Source\PSoC4/UART_SPI_UART.c ****     /*******************************************************************************
 405:.\Generated_Source\PSoC4/UART_SPI_UART.c ****     * Function Name: UART_SpiUartClearTxBuffer
 406:.\Generated_Source\PSoC4/UART_SPI_UART.c ****     ****************************************************************************//**
 407:.\Generated_Source\PSoC4/UART_SPI_UART.c ****     *
 408:.\Generated_Source\PSoC4/UART_SPI_UART.c ****     *  Clears the transmit buffer and TX FIFO.
 409:.\Generated_Source\PSoC4/UART_SPI_UART.c ****     *
 410:.\Generated_Source\PSoC4/UART_SPI_UART.c ****     * \globalvars
 411:.\Generated_Source\PSoC4/UART_SPI_UART.c ****     *  UART_txBufferHead - the start index to put data into the 
 412:.\Generated_Source\PSoC4/UART_SPI_UART.c ****     *  software transmit buffer.
 413:.\Generated_Source\PSoC4/UART_SPI_UART.c ****     *  UART_txBufferTail - start index to get data from the software
 414:.\Generated_Source\PSoC4/UART_SPI_UART.c ****     *  transmit buffer.
 415:.\Generated_Source\PSoC4/UART_SPI_UART.c ****     *
 416:.\Generated_Source\PSoC4/UART_SPI_UART.c ****     *******************************************************************************/
 417:.\Generated_Source\PSoC4/UART_SPI_UART.c ****     void UART_SpiUartClearTxBuffer(void)
 418:.\Generated_Source\PSoC4/UART_SPI_UART.c ****     {
 568              		.loc 1 418 0
 569              		.cfi_startproc
 419:.\Generated_Source\PSoC4/UART_SPI_UART.c ****         #if (UART_CHECK_TX_SW_BUFFER)
 420:.\Generated_Source\PSoC4/UART_SPI_UART.c ****         {
 421:.\Generated_Source\PSoC4/UART_SPI_UART.c ****             /* Lock from component interruption */
 422:.\Generated_Source\PSoC4/UART_SPI_UART.c ****             UART_DisableInt();
 423:.\Generated_Source\PSoC4/UART_SPI_UART.c **** 
 424:.\Generated_Source\PSoC4/UART_SPI_UART.c ****             /* Flush TX software buffer */
 425:.\Generated_Source\PSoC4/UART_SPI_UART.c ****             UART_txBufferHead = UART_txBufferTail;
 426:.\Generated_Source\PSoC4/UART_SPI_UART.c **** 
 427:.\Generated_Source\PSoC4/UART_SPI_UART.c ****             UART_INTR_TX_MASK_REG &= (uint32) ~UART_INTR_TX_NOT_FULL;
 428:.\Generated_Source\PSoC4/UART_SPI_UART.c ****             UART_CLEAR_TX_FIFO;
 429:.\Generated_Source\PSoC4/UART_SPI_UART.c ****             UART_ClearTxInterruptSource(UART_INTR_TX_ALL);
 430:.\Generated_Source\PSoC4/UART_SPI_UART.c **** 
 431:.\Generated_Source\PSoC4/UART_SPI_UART.c ****             /* Release lock */
 432:.\Generated_Source\PSoC4/UART_SPI_UART.c ****             UART_EnableInt();
 433:.\Generated_Source\PSoC4/UART_SPI_UART.c ****         }
 434:.\Generated_Source\PSoC4/UART_SPI_UART.c ****         #else
 435:.\Generated_Source\PSoC4/UART_SPI_UART.c ****         {
 436:.\Generated_Source\PSoC4/UART_SPI_UART.c ****             UART_CLEAR_TX_FIFO;
 570              		.loc 1 436 0
 571 0000 8021     		mov	r1, #128
 572 0002 054B     		ldr	r3, .L24
 573 0004 4902     		lsl	r1, r1, #9
 574 0006 1A68     		ldr	r2, [r3]
 437:.\Generated_Source\PSoC4/UART_SPI_UART.c ****         }
 438:.\Generated_Source\PSoC4/UART_SPI_UART.c ****         #endif
 439:.\Generated_Source\PSoC4/UART_SPI_UART.c ****     }
 575              		.loc 1 439 0
 576              		@ sp needed
 436:.\Generated_Source\PSoC4/UART_SPI_UART.c ****         }
 577              		.loc 1 436 0
 578 0008 0A43     		orr	r2, r1
 579 000a 1A60     		str	r2, [r3]
 580 000c 1968     		ldr	r1, [r3]
 581 000e 034A     		ldr	r2, .L24+4
 582 0010 0A40     		and	r2, r1
 583 0012 1A60     		str	r2, [r3]
 584              		.loc 1 439 0
 585 0014 7047     		bx	lr
ARM GAS  C:\Users\victo\AppData\Local\Temp\ccIqk2i6.s 			page 39


 586              	.L25:
 587 0016 C046     		.align	2
 588              	.L24:
 589 0018 04020740 		.word	1074201092
 590 001c FFFFFEFF 		.word	-65537
 591              		.cfi_endproc
 592              	.LFE6:
 593              		.size	UART_SpiUartClearTxBuffer, .-UART_SpiUartClearTxBuffer
 594              		.section	.text.UART_SpiUartDisableIntRx,"ax",%progbits
 595              		.align	1
 596              		.global	UART_SpiUartDisableIntRx
 597              		.code	16
 598              		.thumb_func
 599              		.type	UART_SpiUartDisableIntRx, %function
 600              	UART_SpiUartDisableIntRx:
 601              	.LFB7:
 440:.\Generated_Source\PSoC4/UART_SPI_UART.c **** 
 441:.\Generated_Source\PSoC4/UART_SPI_UART.c **** #endif /* (UART_TX_DIRECTION) */
 442:.\Generated_Source\PSoC4/UART_SPI_UART.c **** 
 443:.\Generated_Source\PSoC4/UART_SPI_UART.c **** 
 444:.\Generated_Source\PSoC4/UART_SPI_UART.c **** /*******************************************************************************
 445:.\Generated_Source\PSoC4/UART_SPI_UART.c **** * Function Name: UART_SpiUartDisableIntRx
 446:.\Generated_Source\PSoC4/UART_SPI_UART.c **** ****************************************************************************//**
 447:.\Generated_Source\PSoC4/UART_SPI_UART.c **** *
 448:.\Generated_Source\PSoC4/UART_SPI_UART.c **** *  Disables the RX interrupt sources.
 449:.\Generated_Source\PSoC4/UART_SPI_UART.c **** *
 450:.\Generated_Source\PSoC4/UART_SPI_UART.c **** *  \return
 451:.\Generated_Source\PSoC4/UART_SPI_UART.c **** *   Returns the RX interrupt sources enabled before the function call.
 452:.\Generated_Source\PSoC4/UART_SPI_UART.c **** *
 453:.\Generated_Source\PSoC4/UART_SPI_UART.c **** *******************************************************************************/
 454:.\Generated_Source\PSoC4/UART_SPI_UART.c **** uint32 UART_SpiUartDisableIntRx(void)
 455:.\Generated_Source\PSoC4/UART_SPI_UART.c **** {
 602              		.loc 1 455 0
 603              		.cfi_startproc
 456:.\Generated_Source\PSoC4/UART_SPI_UART.c ****     uint32 intSource;
 457:.\Generated_Source\PSoC4/UART_SPI_UART.c **** 
 458:.\Generated_Source\PSoC4/UART_SPI_UART.c ****     intSource = UART_GetRxInterruptMode();
 459:.\Generated_Source\PSoC4/UART_SPI_UART.c **** 
 460:.\Generated_Source\PSoC4/UART_SPI_UART.c ****     UART_SetRxInterruptMode(UART_NO_INTR_SOURCES);
 604              		.loc 1 460 0
 605 0000 0022     		mov	r2, #0
 458:.\Generated_Source\PSoC4/UART_SPI_UART.c **** 
 606              		.loc 1 458 0
 607 0002 024B     		ldr	r3, .L27
 461:.\Generated_Source\PSoC4/UART_SPI_UART.c **** 
 462:.\Generated_Source\PSoC4/UART_SPI_UART.c ****     return (intSource);
 463:.\Generated_Source\PSoC4/UART_SPI_UART.c **** }
 608              		.loc 1 463 0
 609              		@ sp needed
 458:.\Generated_Source\PSoC4/UART_SPI_UART.c **** 
 610              		.loc 1 458 0
 611 0004 1868     		ldr	r0, [r3]
 612              	.LVL12:
 460:.\Generated_Source\PSoC4/UART_SPI_UART.c **** 
 613              		.loc 1 460 0
 614 0006 1A60     		str	r2, [r3]
 615              		.loc 1 463 0
ARM GAS  C:\Users\victo\AppData\Local\Temp\ccIqk2i6.s 			page 40


 616 0008 7047     		bx	lr
 617              	.L28:
 618 000a C046     		.align	2
 619              	.L27:
 620 000c C80F0740 		.word	1074204616
 621              		.cfi_endproc
 622              	.LFE7:
 623              		.size	UART_SpiUartDisableIntRx, .-UART_SpiUartDisableIntRx
 624              		.section	.text.UART_SpiUartDisableIntTx,"ax",%progbits
 625              		.align	1
 626              		.global	UART_SpiUartDisableIntTx
 627              		.code	16
 628              		.thumb_func
 629              		.type	UART_SpiUartDisableIntTx, %function
 630              	UART_SpiUartDisableIntTx:
 631              	.LFB8:
 464:.\Generated_Source\PSoC4/UART_SPI_UART.c **** 
 465:.\Generated_Source\PSoC4/UART_SPI_UART.c **** 
 466:.\Generated_Source\PSoC4/UART_SPI_UART.c **** /*******************************************************************************
 467:.\Generated_Source\PSoC4/UART_SPI_UART.c **** * Function Name: UART_SpiUartDisableIntTx
 468:.\Generated_Source\PSoC4/UART_SPI_UART.c **** ****************************************************************************//**
 469:.\Generated_Source\PSoC4/UART_SPI_UART.c **** *
 470:.\Generated_Source\PSoC4/UART_SPI_UART.c **** *  Disables TX interrupt sources.
 471:.\Generated_Source\PSoC4/UART_SPI_UART.c **** *
 472:.\Generated_Source\PSoC4/UART_SPI_UART.c **** *  \return
 473:.\Generated_Source\PSoC4/UART_SPI_UART.c **** *   Returns TX interrupt sources enabled before function call.
 474:.\Generated_Source\PSoC4/UART_SPI_UART.c **** *
 475:.\Generated_Source\PSoC4/UART_SPI_UART.c **** *******************************************************************************/
 476:.\Generated_Source\PSoC4/UART_SPI_UART.c **** uint32 UART_SpiUartDisableIntTx(void)
 477:.\Generated_Source\PSoC4/UART_SPI_UART.c **** {
 632              		.loc 1 477 0
 633              		.cfi_startproc
 478:.\Generated_Source\PSoC4/UART_SPI_UART.c ****     uint32 intSourceMask;
 479:.\Generated_Source\PSoC4/UART_SPI_UART.c **** 
 480:.\Generated_Source\PSoC4/UART_SPI_UART.c ****     intSourceMask = UART_GetTxInterruptMode();
 481:.\Generated_Source\PSoC4/UART_SPI_UART.c **** 
 482:.\Generated_Source\PSoC4/UART_SPI_UART.c ****     UART_SetTxInterruptMode(UART_NO_INTR_SOURCES);
 634              		.loc 1 482 0
 635 0000 0022     		mov	r2, #0
 480:.\Generated_Source\PSoC4/UART_SPI_UART.c **** 
 636              		.loc 1 480 0
 637 0002 024B     		ldr	r3, .L30
 483:.\Generated_Source\PSoC4/UART_SPI_UART.c **** 
 484:.\Generated_Source\PSoC4/UART_SPI_UART.c ****     return (intSourceMask);
 485:.\Generated_Source\PSoC4/UART_SPI_UART.c **** }
 638              		.loc 1 485 0
 639              		@ sp needed
 480:.\Generated_Source\PSoC4/UART_SPI_UART.c **** 
 640              		.loc 1 480 0
 641 0004 1868     		ldr	r0, [r3]
 642              	.LVL13:
 482:.\Generated_Source\PSoC4/UART_SPI_UART.c **** 
 643              		.loc 1 482 0
 644 0006 1A60     		str	r2, [r3]
 645              		.loc 1 485 0
 646 0008 7047     		bx	lr
 647              	.L31:
ARM GAS  C:\Users\victo\AppData\Local\Temp\ccIqk2i6.s 			page 41


 648 000a C046     		.align	2
 649              	.L30:
 650 000c 880F0740 		.word	1074204552
 651              		.cfi_endproc
 652              	.LFE8:
 653              		.size	UART_SpiUartDisableIntTx, .-UART_SpiUartDisableIntTx
 654              		.text
 655              	.Letext0:
 656              		.file 2 "Generated_Source\\PSoC4/cytypes.h"